
/var/folders/mz/_z9vt_y13rdf9tt_4qkvv0k40000gn/T/arduino_build_486959/UPDI4AVR-USB.ino.elf:     file format elf32-avr


Disassembly of section .data:

00806000 <__data_start>:
__data_start():
  806000:	01 55       	subi	r16, 0x51	; 81

00806001 <UPDI::recv_byte(unsigned long)::_set_ptr>:
  806001:	55 08 00 00 00 00                                   U.....

00806007 <UPDI::send_byte(unsigned long, unsigned char)::_set_ptr>:
  806007:	55 48 00 00 00 00                                   UH....

0080600d <UPDI::_set_repeat>:
  80600d:	55 a0 00 55 04                                      U..U.

00806012 <UPDI::_set_ptr24>:
  806012:	55 6a 00 00 00 00                                   Uj....

00806018 <_xclk>:
  806018:	e1 00                                               ..

0080601a <SYS::_updi_bitmap>:
  80601a:	00 00 00 ff ff 7f 55 7e c8 7f 59 fe 55 7e c3 7e     ......U~..Y.U~.~
  80602a:	04 ff 00 30 20 00                                   ...0 .

00806030 <TPI::nvmprog_key>:
  806030:	e0 ff 88 d8 cd 45 ab 89 12                          .....E...

00806039 <UPDI::set_rsd()::_set_rsd>:
  806039:	55 c2 0d                                            U..

0080603c <UPDI::clear_rsd()::_clear_rsd>:
  80603c:	55 c2 05                                            U..

0080603f <UPDI::key_status()::_key_stat>:
  80603f:	55 87                                               U.

00806041 <UPDI::sys_status()::_sys_stat>:
  806041:	55 8b                                               U.

00806043 <UPDI::nvmprog_key>:
  806043:	55 e0 20 67 6f 72 50 4d 56 4e                       U. gorPMVN

0080604d <UPDI::erase_key>:
  80604d:	55 e0 65 73 61 72 45 4d 56 4e                       U.esarEMVN

00806057 <UPDI::urowwrite_key>:
  806057:	55 e0 65 74 26 73 55 4d 56 4e                       U.et&sUMVN

00806061 <UPDI::write_userrow()::_urowstop>:
  806061:	55 c7 20                                            U. 

00806064 <UPDI::write_userrow()::_urowdone>:
  806064:	55 ca 03                                            U..

00806067 <UPDI::connect()::_sib256>:
  806067:	55 e6                                               U.

00806069 <UPDI::connect()::_init>:
  806069:	55 c8 59 55 c3 08 55 c2 05                          U.YU..U..

00806072 <UPDI::sys_reset(bool)::_reset>:
  806072:	55 c8 59 55 c8 00 55 c3 04                          U.YU..U..

0080607b <vtable for HarfUART_Class>:
  80607b:	00 00 00 00 ee 04 0d 0a 00                          .........

Disassembly of section .text:

00000000 <__vectors>:
__vectors():
../../../../crt1/gcrt1.S:61
       0:	6c c4       	rjmp	.+2264   	; 0x8da <__ctors_end>
       2:	00 00       	nop
../../../../crt1/gcrt1.S:67
       4:	a7 c4       	rjmp	.+2382   	; 0x954 <__bad_interrupt>
       6:	00 00       	nop
../../../../crt1/gcrt1.S:68
       8:	a5 c4       	rjmp	.+2378   	; 0x954 <__bad_interrupt>
       a:	00 00       	nop
../../../../crt1/gcrt1.S:69
       c:	a3 c4       	rjmp	.+2374   	; 0x954 <__bad_interrupt>
       e:	00 00       	nop
../../../../crt1/gcrt1.S:70
      10:	a1 c4       	rjmp	.+2370   	; 0x954 <__bad_interrupt>
      12:	00 00       	nop
../../../../crt1/gcrt1.S:71
      14:	9f c4       	rjmp	.+2366   	; 0x954 <__bad_interrupt>
      16:	00 00       	nop
../../../../crt1/gcrt1.S:72
      18:	0c 94 94 15 	jmp	0x2b28	; 0x2b28 <__vector_6>
../../../../crt1/gcrt1.S:73
      1c:	9b c4       	rjmp	.+2358   	; 0x954 <__bad_interrupt>
      1e:	00 00       	nop
../../../../crt1/gcrt1.S:74
      20:	99 c4       	rjmp	.+2354   	; 0x954 <__bad_interrupt>
      22:	00 00       	nop
../../../../crt1/gcrt1.S:75
      24:	97 c4       	rjmp	.+2350   	; 0x954 <__bad_interrupt>
      26:	00 00       	nop
../../../../crt1/gcrt1.S:76
      28:	95 c4       	rjmp	.+2346   	; 0x954 <__bad_interrupt>
      2a:	00 00       	nop
../../../../crt1/gcrt1.S:77
      2c:	93 c4       	rjmp	.+2342   	; 0x954 <__bad_interrupt>
      2e:	00 00       	nop
../../../../crt1/gcrt1.S:78
      30:	91 c4       	rjmp	.+2338   	; 0x954 <__bad_interrupt>
      32:	00 00       	nop
../../../../crt1/gcrt1.S:79
      34:	8f c4       	rjmp	.+2334   	; 0x954 <__bad_interrupt>
      36:	00 00       	nop
../../../../crt1/gcrt1.S:80
      38:	8d c4       	rjmp	.+2330   	; 0x954 <__bad_interrupt>
      3a:	00 00       	nop
../../../../crt1/gcrt1.S:81
      3c:	0c 94 1f 15 	jmp	0x2a3e	; 0x2a3e <__vector_15>
../../../../crt1/gcrt1.S:82
      40:	89 c4       	rjmp	.+2322   	; 0x954 <__bad_interrupt>
      42:	00 00       	nop
../../../../crt1/gcrt1.S:83
      44:	87 c4       	rjmp	.+2318   	; 0x954 <__bad_interrupt>
      46:	00 00       	nop
../../../../crt1/gcrt1.S:84
      48:	85 c4       	rjmp	.+2314   	; 0x954 <__bad_interrupt>
      4a:	00 00       	nop
../../../../crt1/gcrt1.S:85
      4c:	0c 94 89 14 	jmp	0x2912	; 0x2912 <__vector_19>
../../../../crt1/gcrt1.S:86
      50:	81 c4       	rjmp	.+2306   	; 0x954 <__bad_interrupt>
      52:	00 00       	nop
../../../../crt1/gcrt1.S:87
      54:	7f c4       	rjmp	.+2302   	; 0x954 <__bad_interrupt>
      56:	00 00       	nop
../../../../crt1/gcrt1.S:88
      58:	7d c4       	rjmp	.+2298   	; 0x954 <__bad_interrupt>
      5a:	00 00       	nop
../../../../crt1/gcrt1.S:89
      5c:	7b c4       	rjmp	.+2294   	; 0x954 <__bad_interrupt>
      5e:	00 00       	nop
../../../../crt1/gcrt1.S:90
      60:	0c 94 a4 15 	jmp	0x2b48	; 0x2b48 <__vector_24>
../../../../crt1/gcrt1.S:91
      64:	77 c4       	rjmp	.+2286   	; 0x954 <__bad_interrupt>
      66:	00 00       	nop
../../../../crt1/gcrt1.S:92
      68:	75 c4       	rjmp	.+2282   	; 0x954 <__bad_interrupt>
      6a:	00 00       	nop
../../../../crt1/gcrt1.S:93
      6c:	73 c4       	rjmp	.+2278   	; 0x954 <__bad_interrupt>
      6e:	00 00       	nop
../../../../crt1/gcrt1.S:94
      70:	71 c4       	rjmp	.+2274   	; 0x954 <__bad_interrupt>
      72:	00 00       	nop
../../../../crt1/gcrt1.S:95
      74:	6f c4       	rjmp	.+2270   	; 0x954 <__bad_interrupt>
      76:	00 00       	nop
../../../../crt1/gcrt1.S:96
      78:	6d c4       	rjmp	.+2266   	; 0x954 <__bad_interrupt>
      7a:	00 00       	nop
../../../../crt1/gcrt1.S:97
      7c:	6b c4       	rjmp	.+2262   	; 0x954 <__bad_interrupt>
      7e:	00 00       	nop
../../../../crt1/gcrt1.S:98
      80:	69 c4       	rjmp	.+2258   	; 0x954 <__bad_interrupt>
      82:	00 00       	nop
../../../../crt1/gcrt1.S:99
      84:	67 c4       	rjmp	.+2254   	; 0x954 <__bad_interrupt>
	...

00000088 <__trampolines_end>:
__trampolines_start():
      88:	43 00       	.word	0x0043	; ????
      8a:	44 00       	.word	0x0044	; ????
      8c:	43 00       	.word	0x0043	; ????
      8e:	2d 00       	.word	0x002d	; ????
      90:	41 00       	.word	0x0041	; ????
      92:	43 00       	.word	0x0043	; ????
      94:	4d 00       	.word	0x004d	; ????
      96:	2f 00       	.word	0x002f	; ????
      98:	56 00       	.word	0x0056	; ????
      9a:	43 00       	.word	0x0043	; ????
      9c:	50 00       	.word	0x0050	; ????
	...

000000a0 <USB::mstring>:
      a0:	55 00 50 00 44 00 49 00 34 00 41 00 56 00 52 00     U.P.D.I.4.A.V.R.
      b0:	2d 00 55 00 53 00 42 00 3a 00 41 00 56 00 52 00     -.U.S.B.:.A.V.R.
      c0:	2d 00 44 00 55 00 3a 00 45 00 44 00 42 00 47 00     -.D.U.:.E.D.B.G.
      d0:	2f 00 43 00 4d 00 53 00 49 00 53 00 2d 00 44 00     /.C.M.S.I.S.-.D.
      e0:	41 00 50 00 00 00                                   A.P...

000000e6 <USB::vstring>:
      e6:	4d 00 75 00 6c 00 74 00 69 00 58 00 2e 00 6a 00     M.u.l.t.i.X...j.
      f6:	70 00 20 00 4f 00 53 00 53 00 57 00 2f 00 4f 00     p. .O.S.S.W./.O.
     106:	53 00 48 00 57 00 20 00 50 00 72 00 6f 00 64 00     S.H.W. .P.r.o.d.
     116:	2e 00 00 00                                         ....

0000011a <USB::report_descriptor>:
     11a:	06 00 ff 09 01 a1 01 15 00 26 ff 00 75 08 96 40     .........&..u..@
     12a:	00 09 01 81 02 96 40 00 09 01 91 02 95 04 09 01     ......@.........
     13a:	b1 02 c0                                            ...

0000013d <USB::current_descriptor>:
     13d:	09 02 6b 00 03 01 00 80 32 09 04 00 00 02 03 00     ..k.....2.......
     14d:	00 00 09 21 11 01 00 01 22 23 00 07 05 02 03 40     ...!...."#.....@
     15d:	00 01 07 05 81 03 40 00 01 08 0b 01 02 02 02 01     ......@.........
     16d:	04 09 04 01 00 01 02 02 01 00 05 24 00 10 01 04     ...........$....
     17d:	24 02 06 05 24 06 01 02 05 24 01 03 02 07 05 82     $...$....$......
     18d:	03 10 00 04 09 04 02 00 02 0a 00 00 00 07 05 03     ................
     19d:	02 40 00 00 07 05 83 02 40 00 00                    .@......@..

000001a8 <USB::qualifier_descriptor>:
     1a8:	0a 06 00 02 ef 02 01 40 00 00                       .......@..

000001b2 <USB::get_descriptor(unsigned char*, unsigned int)::__c>:
     1b2:	20 56 49 44 3a 50 49 44 3d 25 30 34 58 3a 25 30      VID:PID=%04X:%0
     1c2:	34 58 0d 0a 00                                      4X...

000001c7 <USB::device_descriptor>:
     1c7:	12 01 00 02 ef 02 01 40 db 04 15 0b 00 01 01 02     .......@........
     1d7:	03 01                                               ..

000001d9 <USB::request_standard()::__c>:
     1d9:	3c 47 49 3a 25 30 32 58 3e 0d 0a 00                 <GI:%02X>...

000001e5 <USB::request_standard()::__c>:
     1e5:	3c 53 49 3a 30 3e 0d 0a 00                          <SI:0>...

000001ee <USB::request_standard()::__c>:
     1ee:	3c 53 43 3a 25 30 32 58 3e 0d 0a 00                 <SC:%02X>...

000001fa <USB::request_standard()::__c>:
     1fa:	3c 47 43 3a 25 30 32 58 3e 0d 0a 00                 <GC:%02X>...

00000206 <USB::request_standard()::__c>:
     206:	20 55 53 42 30 5f 41 44 44 52 3d 25 64 0d 0a 00      USB0_ADDR=%d...

00000216 <USB::request_standard()::__c>:
     216:	20 53 46 3d 25 30 32 58 3a 25 30 32 58 0d 0a 00      SF=%02X:%02X...

00000226 <USB::request_standard()::__c>:
     226:	20 43 46 3d 25 30 32 58 3a 25 30 32 58 0d 0a 00      CF=%02X:%02X...

00000236 <USB::request_class()::__c>:
     236:	20 53 42 3d 25 30 34 58 0d 0a 00                     SB=%04X...

00000241 <USB::request_class()::__c>:
     241:	20 53 4c 53 3d 25 30 32 58 0d 0a 00                  SLS=%02X...

0000024d <USB::request_class()::__c>:
     24d:	20 47 4c 45 3d 00                                    GLE=.

00000253 <USB::request_class()::__c>:
     253:	20 53 4c 45 3d 00                                    SLE=.

00000259 <USB::request_class()::__c>:
     259:	20 49 44 4c 3d 25 30 32 58 0d 0a 00                  IDL=%02X...

00000265 <USB::ep0_stalled()::__c>:
     265:	5b 53 54 41 4c 4c 45 44 5d 0d 0a 00                 [STALLED]...

00000271 <USB::handling_control_transactions()::__c>:
     271:	52 51 3d 25 30 32 58 3a 25 30 34 58 3a 25 30 32     RQ=%02X:%04X:%02
     281:	58 3a 25 30 32 58 3a 25 30 34 58 3a 25 30 34 58     X:%02X:%04X:%04X
     291:	3a 25 30 34 58 0d 0a 00                             :%04X...

00000299 <SYS::reset_enter()::__c>:
     299:	3c 52 53 54 3a 49 4e 3e 0d 0a 00                    <RST:IN>...

000002a4 <SYS::reset_leave()::__c>:
     2a4:	3c 52 53 54 3a 4f 55 54 3e 0d 0a 00                 <RST:OUT>...

000002b0 <JTAG::dap_command_check()::__c>:
     2b0:	3c 45 44 42 47 5f 45 4d 50 54 59 3e 0d 0a 00        <EDBG_EMPTY>...

000002bf <JTAG::dap_command_check()::__c>:
     2bf:	3c 45 44 42 47 5f 46 41 49 4c 3e 0d 0a 00           <EDBG_FAIL>...

000002cd <JTAG::dap_command_check()::__c>:
     2cd:	3c 45 44 42 47 5f 46 41 49 4c 3e 0d 0a 00           <EDBG_FAIL>...

000002db <JTAG::jtag_scope_general()::__c>:
     2db:	20 47 45 4e 3d 25 30 32 58 3a 25 30 32 58 3a 25      GEN=%02X:%02X:%
     2eb:	30 32 58 0d 0a 00                                   02X...

000002f1 <JTAG::jtag_scope_general()::__c>:
     2f1:	20 47 45 4e 5f 53 49 47 4e 5f 4f 46 46 0d 0a 00      GEN_SIGN_OFF...

00000301 <JTAG::jtag_scope_general()::__c>:
     301:	20 47 45 4e 5f 53 49 47 4e 5f 4f 4e 0d 0a 00         GEN_SIGN_ON...

00000310 <JTAG::jtag_physical>:
     310:	90 28 00 18 38 00 00 00                             .(..8...

00000318 <JTAG::jtag_scope_general()::__c>:
     318:	20 50 48 59 53 49 43 41 4c 3d 25 30 32 58 3a 25      PHYSICAL=%02X:%
     328:	30 32 58 0d 0a 00                                   02X...

0000032e <JTAG::jtag_scope_general()::__c>:
     32e:	20 56 54 41 52 47 45 54 3d 25 64 0d 0a 00            VTARGET=%d...

0000033c <JTAG::jtag_scope_general()::__c>:
     33c:	20 56 45 53 52 49 4f 4e 3d 00                        VESRION=.

00000346 <JTAG::jtag_version>:
     346:	00 01 20 2c 00                                      .. ,.

0000034b <JTAG::jtag_scope_general()::__c>:
     34b:	20 47 45 4e 5f 47 45 54 5f 50 41 52 41 4d 3d 25      GEN_GET_PARAM=%
     35b:	30 32 58 3a 25 30 32 58 3a 25 30 32 58 0d 0a 00     02X:%02X:%02X...

0000036b <USART::change_updi()::__c>:
     36b:	20 42 41 55 44 3d 25 30 34 58 3a 25 30 32 58 0d      BAUD=%04X:%02X.
     37b:	0a 00                                               ..

0000037d <USART::change_updi()::__c>:
     37d:	20 55 41 52 54 3d 55 50 44 49 0d 0a 00               UART=UPDI...

0000038a <UPDI::jtag_scope_updi()::__c>:
     38a:	20 55 50 44 49 5f 57 52 49 54 45 3d 25 30 32 58      UPDI_WRITE=%02X
     39a:	3a 25 30 36 6c 58 3a 25 30 34 58 0d 0a 00           :%06lX:%04X...

000003a8 <UPDI::jtag_scope_updi()::__c>:
     3a8:	20 55 50 44 49 5f 52 45 41 44 3d 25 30 32 58 3a      UPDI_READ=%02X:
     3b8:	25 30 36 6c 58 3a 25 30 34 58 0d 0a 00              %06lX:%04X...

000003c5 <UPDI::jtag_scope_updi()::__c>:
     3c5:	20 55 50 44 49 5f 45 52 41 53 45 3d 25 30 32 58      UPDI_ERASE=%02X
     3d5:	3a 25 30 36 6c 58 0d 0a 00                          :%06lX...

000003de <UPDI::jtag_scope_updi()::__c>:
     3de:	20 55 50 44 49 5f 4c 45 41 56 45 5f 50 52 4f 47      UPDI_LEAVE_PROG
     3ee:	0d 0a 00                                            ...

000003f1 <UPDI::jtag_scope_updi()::__c>:
     3f1:	20 55 50 44 49 5f 45 4e 54 45 52 5f 50 52 4f 47      UPDI_ENTER_PROG
     401:	0d 0a 00                                            ...

00000404 <UPDI::jtag_scope_updi()::__c>:
     404:	20 55 50 44 49 5f 53 49 47 4e 5f 4f 46 46 0d 0a      UPDI_SIGN_OFF..
	...

00000415 <UPDI::jtag_scope_updi()::__c>:
     415:	20 55 50 44 49 5f 53 49 47 4e 5f 4f 4e 3d 45 58      UPDI_SIGN_ON=EX
     425:	54 3a 25 30 32 58 0d 0a 00                          T:%02X...

0000042e <_ZZN4JTAG19jtag_scope_avr_coreEvE3__c__12_>:
     42e:	20 58 43 4c 4b 3d 25 64 0d 0a 00                     XCLK=%d...

00000439 <_ZZN4JTAG19jtag_scope_avr_coreEvE3__c__11_>:
     439:	20 43 4f 4e 4e 45 43 54 49 4f 4e 3d 25 30 32 58      CONNECTION=%02X
     449:	0d 0a 00                                            ...

0000044c <_ZZN4JTAG19jtag_scope_avr_coreEvE3__c__10_>:
     44c:	20 41 52 43 48 3d 25 30 32 58 0d 0a 00               ARCH=%02X...

00000459 <JTAG::jtag_scope_avr_core()::__c>:
     459:	20 41 56 52 5f 47 45 54 5f 50 41 52 41 4d 45 54      AVR_GET_PARAMET
     469:	45 52 3d 25 30 32 58 3a 25 30 32 58 3a 25 30 32     ER=%02X:%02X:%02
     479:	58 0d 0a 00                                         X...

0000047d <JTAG::jtag_scope_avr_core()::__c>:
     47d:	20 55 4e 4c 4f 43 4b 45 4e 3d 25 30 32 58 0d 0a      UNLOCKEN=%02X..
	...

0000048e <JTAG::jtag_scope_avr_core()::__c>:
     48e:	20 48 56 43 54 52 4c 45 4e 3d 25 30 32 58 0d 0a      HVCTRLEN=%02X..
	...

0000049f <JTAG::jtag_scope_avr_core()::__c>:
     49f:	20 48 56 54 59 50 45 3d 25 30 32 58 0d 0a 00         HVTYPE=%02X...

000004ae <JTAG::jtag_scope_avr_core()::__c>:
     4ae:	20 44 45 56 49 43 45 44 45 53 43 3d 25 58 0d 0a      DEVICEDESC=%X..
	...

000004bf <JTAG::jtag_scope_avr_core()::__c>:
     4bf:	20 46 49 58 5f 43 4c 4b 3d 25 64 0d 0a 00            FIX_CLK=%d...

000004cd <JTAG::jtag_scope_avr_core()::__c>:
     4cd:	20 58 43 4c 4b 3d 25 64 0d 0a 00                     XCLK=%d...

000004d8 <JTAG::jtag_scope_avr_core()::__c>:
     4d8:	20 43 4f 4e 4e 45 43 54 49 4f 4e 3d 25 30 32 58      CONNECTION=%02X
     4e8:	0d 0a 00                                            ...

000004eb <JTAG::jtag_scope_avr_core()::__c>:
     4eb:	20 53 45 53 53 5f 50 55 52 50 4f 53 45 3d 25 30      SESS_PURPOSE=%0
     4fb:	32 58 0d 0a 00                                      2X...

00000500 <JTAG::jtag_scope_avr_core()::__c>:
     500:	20 41 52 43 48 3d 25 30 32 58 0d 0a 00               ARCH=%02X...

0000050d <JTAG::jtag_scope_avr_core()::__c>:
     50d:	20 41 56 52 5f 53 45 54 5f 50 41 52 41 4d 3d 25      AVR_SET_PARAM=%
     51d:	30 32 58 3a 25 30 32 58 3a 25 30 32 58 3a 25 30     02X:%02X:%02X:%0
     52d:	32 58 0d 0a 00                                      2X...

00000532 <USART::change_tpi()::__c>:
     532:	20 42 41 55 44 3d 25 30 34 58 3a 25 30 32 58 0d      BAUD=%04X:%02X.
     542:	0a 00                                               ..

00000544 <USART::change_tpi()::__c>:
     544:	20 55 41 52 54 3d 54 50 49 0d 0a 00                  UART=TPI...

00000550 <TPI::disconnect()::__c>:
     550:	20 54 50 49 53 52 3c 30 30 0d 0a 00                  TPISR<00...

0000055c <TPI::jtag_scope_tpi()::__c>:
     55c:	20 3c 52 45 53 3a 25 30 32 58 3e 0d 0a 00            <RES:%02X>...

0000056a <TPI::jtag_scope_tpi()::__c>:
     56a:	20 54 50 49 5f 43 52 43 0d 0a 00                     TPI_CRC...

00000575 <TPI::jtag_scope_tpi()::__c>:
     575:	20 54 50 49 5f 52 45 41 44 3d 25 30 32 58 3a 25      TPI_READ=%02X:%
     585:	30 38 6c 58 3a 25 30 34 58 0d 0a 00                 08lX:%04X...

00000591 <TPI::jtag_scope_tpi()::__c>:
     591:	20 54 50 49 5f 57 52 49 54 45 3d 25 30 32 58 3a      TPI_WRITE=%02X:
     5a1:	25 30 38 6c 58 3a 25 30 34 58 0d 0a 00              %08lX:%04X...

000005ae <TPI::jtag_scope_tpi()::__c>:
     5ae:	20 54 50 49 5f 45 52 41 53 45 3d 25 30 32 58 3a      TPI_ERASE=%02X:
     5be:	25 30 38 6c 58 0d 0a 00                             %08lX...

000005c6 <TPI::jtag_scope_tpi()::__c>:
     5c6:	20 54 50 49 5f 4c 45 41 56 45 5f 50 52 4f 47 4d      TPI_LEAVE_PROGM
     5d6:	4f 44 45 0d 0a 00                                   ODE...

000005dc <TPI::jtag_scope_tpi()::__c>:
     5dc:	20 54 50 49 5f 45 4e 54 45 52 5f 50 52 4f 47 4d      TPI_ENTER_PROGM
     5ec:	4f 44 45 0d 0a 00                                   ODE...

000005f2 <JTAG::jtag_scope_edbg()::__c>:
     5f2:	20 54 41 52 47 45 54 5f 50 4f 57 45 52 3d 25 30      TARGET_POWER=%0
     602:	32 58 0d 0a 00                                      2X...

00000607 <JTAG::jtag_scope_edbg()::__c>:
     607:	20 41 56 52 5f 47 45 54 5f 50 41 52 41 4d 3d 25      AVR_GET_PARAM=%
     617:	30 32 58 3a 25 30 32 58 3a 25 30 32 58 0d 0a 00     02X:%02X:%02X...

00000627 <JTAG::jtag_scope_edbg()::__c>:
     627:	20 54 41 52 47 45 54 5f 50 4f 57 45 52 3d 25 30      TARGET_POWER=%0
     637:	32 58 0d 0a 00                                      2X...

0000063c <JTAG::jtag_scope_edbg()::__c>:
     63c:	20 41 56 52 5f 53 45 54 5f 50 41 52 41 4d 3d 25      AVR_SET_PARAM=%
     64c:	30 32 58 3a 25 30 32 58 3a 25 30 32 58 3a 25 30     02X:%02X:%02X:%0
     65c:	32 58 0d 0a 00                                      2X...

00000661 <JTAG::jtag_scope_branch()::__c>:
     661:	53 43 4f 50 45 3d 25 30 32 58 2c 43 3d 25 30 32     SCOPE=%02X,C=%02
     671:	58 2c 53 3d 25 30 32 58 2c 4c 3d 25 30 32 58 0d     X,S=%02X,L=%02X.
     681:	0a 00                                               ..

00000683 <main::__c>:
     683:	3c 57 41 49 54 49 4e 47 3e 0d 0a 00                 <WAITING>...

0000068f <main::__c>:
     68f:	5f 5f 41 56 52 5f 41 52 43 48 5f 5f 20 3d 20 00     __AVR_ARCH__ = .

0000069f <main::__c>:
     69f:	69 6f 61 76 72 36 34 64 75 33 32 2e 68 00           ioavr64du32.h.

000006ad <main::__c>:
     6ad:	5f 41 56 52 5f 49 4f 58 58 58 5f 48 5f 20 3d 20     _AVR_IOXXX_H_ = 
	...

000006be <main::__c>:
     6be:	46 5f 43 50 55 20 3d 20 00                          F_CPU = .

000006c7 <main::__c>:
     6c7:	0a 3c 73 74 61 72 74 75 70 3e 00                    .<startup>.

000006d2 <SYS::reboot()::__c>:
     6d2:	3c 52 45 42 4f 4f 54 3e 0d 0a 00                    <REBOOT>...

000006dd <TPI::erase_memory()::__c>:
     6dd:	20 53 45 43 54 49 4f 4e 5f 45 52 41 53 45 3d 25      SECTION_ERASE=%
     6ed:	30 34 58 0d 0a 00                                   04X...

000006f3 <TPI::erase_memory()::__c>:
     6f3:	20 43 48 49 50 5f 45 52 41 53 45 3d 25 30 34 58      CHIP_ERASE=%04X
     703:	0d 0a 00                                            ...

00000706 <TPI::connect()::__c>:
     706:	20 53 49 47 3e 25 30 34 58 3a 25 30 32 58 0d 0a      SIG>%04X:%02X..
	...

00000717 <TPI::connect()::__c>:
     717:	20 53 4b 45 59 0d 0a 00                              SKEY...

0000071f <TPI::connect()::__c>:
     71f:	20 54 50 49 53 52 3e 25 30 32 58 0d 0a 00            TPISR>%02X...

0000072d <TPI::connect()::__c>:
     72d:	20 54 50 49 49 52 3e 25 30 32 58 0d 0a 00            TPIIR>%02X...

0000073b <TPI::connect()::__c>:
     73b:	20 54 50 49 50 43 52 3c 30 35 0d 0a 00               TPIPCR<05...

00000748 <TPI::connect()::__c>:
     748:	3c 48 56 45 4e 3e 0d 0a 00                          <HVEN>...

00000751 <UPDI::set_nvmprog_key(bool)::__c>:
     751:	20 4b 45 59 3d 25 30 32 58 0d 0a 00                  KEY=%02X...

0000075d <UPDI::set_nvmprog_key(bool)::__c>:
     75d:	20 50 52 4f 47 5f 4b 45 59 0d 0a 00                  PROG_KEY...

00000769 <UPDI::set_erase_key()::__c>:
     769:	20 4b 45 59 3d 25 30 32 58 0d 0a 00                  KEY=%02X...

00000775 <UPDI::set_erase_key()::__c>:
     775:	20 45 52 41 53 45 5f 4b 45 59 0d 0a 00               ERASE_KEY...

00000782 <UPDI::chip_erase()::__c>:
     782:	20 50 52 4f 47 53 54 41 52 54 3d 25 30 32 58 0d      PROGSTART=%02X.
     792:	0a 00                                               ..

00000794 <UPDI::chip_erase()::__c>:
     794:	20 3c 53 59 53 3a 25 30 32 58 3e 0d 0a 00            <SYS:%02X>...

000007a2 <UPDI::set_urowwrite_key()::__c>:
     7a2:	20 4b 45 59 3d 25 30 32 58 0d 0a 00                  KEY=%02X...

000007ae <UPDI::set_urowwrite_key()::__c>:
     7ae:	20 55 52 4f 57 5f 4b 45 59 0d 0a 00                  UROW_KEY...

000007ba <UPDI::write_userrow()::__c>:
     7ba:	20 52 45 5f 50 52 4f 47 53 54 41 52 54 3d 25 30      RE_PROGSTART=%0
     7ca:	32 58 0d 0a 00                                      2X...

000007cf <UPDI::write_userrow()::__c>:
     7cf:	20 45 4e 54 45 52 5f 55 52 4f 57 3d 25 30 34 6c      ENTER_UROW=%04l
     7df:	58 3a 25 30 34 58 0d 0a 00                          X:%04X...

000007e8 <UPDI::connect()::__c>:
     7e8:	20 3c 4e 56 4d 3a 25 30 32 58 3e 0d 0a 00            <NVM:%02X>...

000007f6 <UPDI::connect()::__c>:
     7f6:	20 53 49 42 3d 25 73 0d 0a 00                        SIB=%s...

00000800 <UPDI::connect()::__c>:
     800:	3c 53 54 41 54 3a 25 30 32 58 3e 00                 <STAT:%02X>.

0000080c <UPDI::connect()::__c>:
     80c:	3c 50 57 52 53 54 3e 0d 0a 00                       <PWRST>...

00000816 <UPDI::disconnect()::__c>:
     816:	20 3c 52 53 54 3a 25 64 3e 0d 0a 00                  <RST:%d>...

00000822 <UPDI::enter_progmode()::__c>:
     822:	20 50 52 4f 47 53 54 41 52 54 3d 25 30 32 58 0d      PROGSTART=%02X.
     832:	0a 00                                               ..

00000834 <USART::disable_vcp()::__c>:
     834:	20 55 41 52 54 3d 4f 46 46 0d 0a 00                  UART=OFF...

00000840 <USART::change_vcp()::__c>:
     840:	20 55 41 52 54 3d 46 41 49 4c 0d 0a 00               UART=FAIL...

0000084d <USART::change_vcp()::__c>:
     84d:	20 55 41 52 54 3d 56 43 50 0d 0a 00                  UART=VCP...

00000859 <USART::change_vcp()::__c>:
     859:	20 42 41 55 44 3d 25 30 38 6c 58 3a 25 30 32 58      BAUD=%08lX:%02X
     869:	0d 0a 00                                            ...

0000086c <USB::cci_interrupt()::__c>:
     86c:	20 43 43 49 3d 00                                    CCI=.

00000872 <USB::ep_init>:
	...
     87a:	00 4b 00 00 16 63 00 00 00 7b 00 00 1e 63 00 00     .K...c...{...c..
	...
     892:	00 bb 40 00 2e 63 00 00 00 8b 00 00 2e 63 40 00     ..@..c.......c@.
     8a2:	00 b9 00 00 1e 63 00 00 00 8b 00 00 6e 63 40 00     .....c......nc@.
     8b2:	02 bb 00 00 ae 63 00 00 00 00                       .....c....

000008bc <_portmux_usart1c>:
     8bc:	e2 05 18 10 60 04 40 80 77 04                       ....`.@.w.

000008c6 <Timeout::command(unsigned int (*)(), unsigned int)::__c>:
     8c6:	0d 0a 21 54 49 4d 45 4f 55 54 3a 25 30 34 58 3e     ..!TIMEOUT:%04X>
	...

000008d8 <__ctors_start>:
__ctors_start():
     8d8:	b3 15       	cp	r27, r3

000008da <__ctors_end>:
__dtors_end():
../../../../crt1/gcrt1.S:230
     8da:	11 24       	eor	r1, r1
../../../../crt1/gcrt1.S:231
     8dc:	1f be       	out	0x3f, r1	; 63
../../../../crt1/gcrt1.S:232
     8de:	cf ef       	ldi	r28, 0xFF	; 255
../../../../crt1/gcrt1.S:234
     8e0:	cd bf       	out	0x3d, r28	; 61
../../../../crt1/gcrt1.S:236
     8e2:	df e7       	ldi	r29, 0x7F	; 127
../../../../crt1/gcrt1.S:237
     8e4:	de bf       	out	0x3e, r29	; 62

000008e6 <setup_mcu()>:
_CLKCTRL_SETUP():
/Users/askn/Library/Arduino15/packages/MultiX-Zinnia/hardware/modernAVR/0.2.14/cores/modernAVR/api/CLKCTRL_modernAVR.h:301
#else
#assert This internal CPU clock is not supported
#endif

#if defined(_CLKCTRL_FREQSEL_)
  _PROTECTED_WRITE(CLKCTRL_OSCHFCTRLA, _CLKCTRL_FREQSEL_);
     8e6:	88 ed       	ldi	r24, 0xD8	; 216
     8e8:	90 e2       	ldi	r25, 0x20	; 32
     8ea:	84 bf       	out	0x34, r24	; 52
     8ec:	90 93 68 00 	sts	0x0068, r25	; 0x800068 <__TEXT_REGION_LENGTH__+0x7f0068>
/Users/askn/Library/Arduino15/packages/MultiX-Zinnia/hardware/modernAVR/0.2.14/cores/modernAVR/api/CLKCTRL_modernAVR.h:313
#endif

#if defined(_CLKCTRL_PDIV_)
  _PROTECTED_WRITE(CLKCTRL_MCLKCTRLB, _CLKCTRL_PDIV_ | CLKCTRL_PEN_bm);
#else
  _PROTECTED_WRITE(CLKCTRL_MCLKCTRLB, 0);
     8f0:	90 e0       	ldi	r25, 0x00	; 0
     8f2:	84 bf       	out	0x34, r24	; 52
     8f4:	90 93 61 00 	sts	0x0061, r25	; 0x800061 <__TEXT_REGION_LENGTH__+0x7f0061>
initVariant():
/Users/askn/Library/Arduino15/packages/MultiX-Zinnia/hardware/modernAVR/0.2.14/variants/avr_du32/variant.h:267
extern "C" {
#endif

inline void initVariant (void) {
  _CLKCTRL_SETUP();
  PORTA.PINCONFIG = PORT_ISC_INPUT_DISABLE_gc;
     8f8:	e0 e0       	ldi	r30, 0x00	; 0
     8fa:	f4 e0       	ldi	r31, 0x04	; 4
     8fc:	84 e0       	ldi	r24, 0x04	; 4
     8fe:	83 87       	std	Z+11, r24	; 0x0b
/Users/askn/Library/Arduino15/packages/MultiX-Zinnia/hardware/modernAVR/0.2.14/variants/avr_du32/variant.h:268
  PORTA.PINCTRLUPD = ~0;
     900:	8f ef       	ldi	r24, 0xFF	; 255
     902:	84 87       	std	Z+12, r24	; 0x0c
/Users/askn/Library/Arduino15/packages/MultiX-Zinnia/hardware/modernAVR/0.2.14/variants/avr_du32/variant.h:269
  PORTC.PINCTRLUPD = ~0;
     904:	80 93 4c 04 	sts	0x044C, r24	; 0x80044c <__TEXT_REGION_LENGTH__+0x7f044c>
/Users/askn/Library/Arduino15/packages/MultiX-Zinnia/hardware/modernAVR/0.2.14/variants/avr_du32/variant.h:270
  PORTD.PINCTRLUPD = ~0;
     908:	80 93 6c 04 	sts	0x046C, r24	; 0x80046c <__TEXT_REGION_LENGTH__+0x7f046c>
/Users/askn/Library/Arduino15/packages/MultiX-Zinnia/hardware/modernAVR/0.2.14/variants/avr_du32/variant.h:271
  PORTF.PINCTRLUPD = ~0;
     90c:	80 93 ac 04 	sts	0x04AC, r24	; 0x8004ac <__TEXT_REGION_LENGTH__+0x7f04ac>

00000910 <__do_copy_data>:
__do_copy_data():
     910:	10 e6       	ldi	r17, 0x60	; 96
     912:	a0 e0       	ldi	r26, 0x00	; 0
     914:	b0 e6       	ldi	r27, 0x60	; 96
     916:	e8 ed       	ldi	r30, 0xD8	; 216
     918:	f9 e4       	ldi	r31, 0x49	; 73
     91a:	02 c0       	rjmp	.+4      	; 0x920 <__do_copy_data+0x10>
     91c:	05 90       	lpm	r0, Z+
     91e:	0d 92       	st	X+, r0
     920:	a4 38       	cpi	r26, 0x84	; 132
     922:	b1 07       	cpc	r27, r17
     924:	d9 f7       	brne	.-10     	; 0x91c <__do_copy_data+0xc>

00000926 <__do_clear_bss>:
__do_clear_bss():
     926:	20 e6       	ldi	r18, 0x60	; 96
     928:	a4 e8       	ldi	r26, 0x84	; 132
     92a:	b0 e6       	ldi	r27, 0x60	; 96
     92c:	01 c0       	rjmp	.+2      	; 0x930 <.do_clear_bss_start>

0000092e <.do_clear_bss_loop>:
     92e:	1d 92       	st	X+, r1

00000930 <.do_clear_bss_start>:
     930:	a4 39       	cpi	r26, 0x94	; 148
     932:	b2 07       	cpc	r27, r18
     934:	e1 f7       	brne	.-8      	; 0x92e <.do_clear_bss_loop>

00000936 <__do_global_ctors>:
__do_global_ctors():
     936:	14 e0       	ldi	r17, 0x04	; 4
     938:	cd e6       	ldi	r28, 0x6D	; 109
     93a:	d4 e0       	ldi	r29, 0x04	; 4
     93c:	04 c0       	rjmp	.+8      	; 0x946 <__do_global_ctors+0x10>
     93e:	21 97       	sbiw	r28, 0x01	; 1
     940:	fe 01       	movw	r30, r28
     942:	0e 94 c7 24 	call	0x498e	; 0x498e <__tablejump2__>
     946:	cc 36       	cpi	r28, 0x6C	; 108
     948:	d1 07       	cpc	r29, r17
     94a:	c9 f7       	brne	.-14     	; 0x93e <__do_global_ctors+0x8>
../../../../crt1/gcrt1.S:314
     94c:	0e 94 c2 15 	call	0x2b84	; 0x2b84 <main>
../../../../crt1/gcrt1.S:315
     950:	0c 94 ea 24 	jmp	0x49d4	; 0x49d4 <_exit>

00000954 <__bad_interrupt>:
__vector_22():
../../../../crt1/gcrt1.S:209
     954:	55 cb       	rjmp	.-2390   	; 0x0 <__vectors>

00000956 <printf_putchar(char, __file*)>:
printf_putchar():
/Users/askn/Library/Arduino15/packages/MultiX-Zinnia/hardware/modernAVR/0.2.14/cores/modernAVR/api/cpp/Print_format.cpp:22
/*
 * Format Printable
 */

static int printf_putchar (char _c, FILE *_fp) {
  return ((class Print *)(fdev_get_udata(_fp)))->write((uint8_t) _c);
     956:	fb 01       	movw	r30, r22
     958:	a4 85       	ldd	r26, Z+12	; 0x0c
     95a:	b5 85       	ldd	r27, Z+13	; 0x0d
     95c:	ed 91       	ld	r30, X+
     95e:	fc 91       	ld	r31, X
     960:	11 97       	sbiw	r26, 0x01	; 1
     962:	01 90       	ld	r0, Z+
     964:	f0 81       	ld	r31, Z
     966:	e0 2d       	mov	r30, r0
     968:	68 2f       	mov	r22, r24
     96a:	cd 01       	movw	r24, r26
     96c:	09 94       	ijmp

0000096e <SYS::send_bitmap(unsigned char const*, unsigned int) [clone .constprop.9]>:
send_bitmap():
/Users/askn/Documents/Zinnia-tools/Products/software/UPDI4AVR-USB/src/sys.cpp:236

  /*** Low level TDAT stream manipulation ***/
  /* UPDI commands are sent from TDAT using only TCA0 and bit manipulation, without switching USART. */
  /* 128kbps is the lowest limit that can be achieved with an 8-bit timer at 32MHz or less. */
  void send_bitmap (const uint8_t _bitmap[], const size_t _length) {
    TCA0_SPLIT_HPER  = TCA0_225K;
     96e:	88 e5       	ldi	r24, 0x58	; 88
     970:	80 93 27 0a 	sts	0x0A27, r24	; 0x800a27 <__TEXT_REGION_LENGTH__+0x7f0a27>
/Users/askn/Documents/Zinnia-tools/Products/software/UPDI4AVR-USB/src/sys.cpp:237
    TCA0_SPLIT_CTRLA = TCA_SPLIT_ENABLE_bm | TCA_SPLIT_CLKSEL_DIV1_gc;
     974:	81 e0       	ldi	r24, 0x01	; 1
     976:	80 93 00 0a 	sts	0x0A00, r24	; 0x800a00 <__TEXT_REGION_LENGTH__+0x7f0a00>
     97a:	90 e0       	ldi	r25, 0x00	; 0
     97c:	80 e0       	ldi	r24, 0x00	; 0
/Users/askn/Documents/Zinnia-tools/Products/software/UPDI4AVR-USB/src/sys.cpp:239
    for (uint8_t i = 0; i < _length; i++) {
      uint8_t _d = (_bitmap[i >> 3]) >> (i & 7);
     97e:	fc 01       	movw	r30, r24
     980:	23 e0       	ldi	r18, 0x03	; 3
     982:	f5 95       	asr	r31
     984:	e7 95       	ror	r30
     986:	2a 95       	dec	r18
     988:	e1 f7       	brne	.-8      	; 0x982 <SYS::send_bitmap(unsigned char const*, unsigned int) [clone .constprop.9]+0x14>
     98a:	e6 5e       	subi	r30, 0xE6	; 230
     98c:	ff 49       	sbci	r31, 0x9F	; 159
     98e:	20 81       	ld	r18, Z
     990:	30 e0       	ldi	r19, 0x00	; 0
     992:	48 2f       	mov	r20, r24
     994:	47 70       	andi	r20, 0x07	; 7
     996:	02 c0       	rjmp	.+4      	; 0x99c <SYS::send_bitmap(unsigned char const*, unsigned int) [clone .constprop.9]+0x2e>
     998:	35 95       	asr	r19
     99a:	27 95       	ror	r18
     99c:	4a 95       	dec	r20
     99e:	e2 f7       	brpl	.-8      	; 0x998 <SYS::send_bitmap(unsigned char const*, unsigned int) [clone .constprop.9]+0x2a>
/Users/askn/Documents/Zinnia-tools/Products/software/UPDI4AVR-USB/src/sys.cpp:240
      loop_until_bit_is_set(TCA0_SPLIT_INTFLAGS, TCA_SPLIT_HUNF_bp);
     9a0:	40 91 0b 0a 	lds	r20, 0x0A0B	; 0x800a0b <__TEXT_REGION_LENGTH__+0x7f0a0b>
     9a4:	41 ff       	sbrs	r20, 1
     9a6:	fc cf       	rjmp	.-8      	; 0x9a0 <SYS::send_bitmap(unsigned char const*, unsigned int) [clone .constprop.9]+0x32>
/Users/askn/Documents/Zinnia-tools/Products/software/UPDI4AVR-USB/src/sys.cpp:241
      if (bit_is_set(_d, 0))
     9a8:	20 ff       	sbrs	r18, 0
     9aa:	0d c0       	rjmp	.+26     	; 0x9c6 <SYS::send_bitmap(unsigned char const*, unsigned int) [clone .constprop.9]+0x58>
/Users/askn/Documents/Zinnia-tools/Products/software/UPDI4AVR-USB/src/sys.cpp:242
        openDrainWriteMacro(PIN_PG_TDAT, HIGH);
     9ac:	00 98       	cbi	0x00, 0	; 0
/Users/askn/Documents/Zinnia-tools/Products/software/UPDI4AVR-USB/src/sys.cpp:245
      else
        openDrainWriteMacro(PIN_PG_TDAT, LOW);
      bit_set(TCA0_SPLIT_INTFLAGS, TCA_SPLIT_HUNF_bp);
     9ae:	20 91 0b 0a 	lds	r18, 0x0A0B	; 0x800a0b <__TEXT_REGION_LENGTH__+0x7f0a0b>
     9b2:	22 60       	ori	r18, 0x02	; 2
     9b4:	20 93 0b 0a 	sts	0x0A0B, r18	; 0x800a0b <__TEXT_REGION_LENGTH__+0x7f0a0b>
     9b8:	01 96       	adiw	r24, 0x01	; 1
/Users/askn/Documents/Zinnia-tools/Products/software/UPDI4AVR-USB/src/sys.cpp:238
  /* UPDI commands are sent from TDAT using only TCA0 and bit manipulation, without switching USART. */
  /* 128kbps is the lowest limit that can be achieved with an 8-bit timer at 32MHz or less. */
  void send_bitmap (const uint8_t _bitmap[], const size_t _length) {
    TCA0_SPLIT_HPER  = TCA0_225K;
    TCA0_SPLIT_CTRLA = TCA_SPLIT_ENABLE_bm | TCA_SPLIT_CLKSEL_DIV1_gc;
    for (uint8_t i = 0; i < _length; i++) {
     9ba:	80 39       	cpi	r24, 0x90	; 144
     9bc:	91 05       	cpc	r25, r1
     9be:	f9 f6       	brne	.-66     	; 0x97e <SYS::send_bitmap(unsigned char const*, unsigned int) [clone .constprop.9]+0x10>
/Users/askn/Documents/Zinnia-tools/Products/software/UPDI4AVR-USB/src/sys.cpp:247
        openDrainWriteMacro(PIN_PG_TDAT, HIGH);
      else
        openDrainWriteMacro(PIN_PG_TDAT, LOW);
      bit_set(TCA0_SPLIT_INTFLAGS, TCA_SPLIT_HUNF_bp);
    }
    TCA0_SPLIT_CTRLA = 0;
     9c0:	10 92 00 0a 	sts	0x0A00, r1	; 0x800a00 <__TEXT_REGION_LENGTH__+0x7f0a00>
/Users/askn/Documents/Zinnia-tools/Products/software/UPDI4AVR-USB/src/sys.cpp:248
  }
     9c4:	08 95       	ret
/Users/askn/Documents/Zinnia-tools/Products/software/UPDI4AVR-USB/src/sys.cpp:244
      uint8_t _d = (_bitmap[i >> 3]) >> (i & 7);
      loop_until_bit_is_set(TCA0_SPLIT_INTFLAGS, TCA_SPLIT_HUNF_bp);
      if (bit_is_set(_d, 0))
        openDrainWriteMacro(PIN_PG_TDAT, HIGH);
      else
        openDrainWriteMacro(PIN_PG_TDAT, LOW);
     9c6:	00 9a       	sbi	0x00, 0	; 0
     9c8:	f2 cf       	rjmp	.-28     	; 0x9ae <SYS::send_bitmap(unsigned char const*, unsigned int) [clone .constprop.9]+0x40>

000009ca <btoh>:
btoh():
/Users/askn/Library/Arduino15/packages/MultiX-Zinnia/hardware/modernAVR/0.2.14/cores/modernAVR/api/cpp/btools.cpp:69
    _p++; _r--;
  }
}

char btoh (uint8_t _x) {
  _x = (_x & 15) + '0';
     9ca:	98 2f       	mov	r25, r24
     9cc:	9f 70       	andi	r25, 0x0F	; 15
     9ce:	80 e3       	ldi	r24, 0x30	; 48
     9d0:	89 0f       	add	r24, r25
/Users/askn/Library/Arduino15/packages/MultiX-Zinnia/hardware/modernAVR/0.2.14/cores/modernAVR/api/cpp/btools.cpp:70
  if (_x > '9') _x += 7;
     9d2:	8a 33       	cpi	r24, 0x3A	; 58
     9d4:	10 f0       	brcs	.+4      	; 0x9da <btoh+0x10>
     9d6:	87 e3       	ldi	r24, 0x37	; 55
     9d8:	89 0f       	add	r24, r25
/Users/askn/Library/Arduino15/packages/MultiX-Zinnia/hardware/modernAVR/0.2.14/cores/modernAVR/api/cpp/btools.cpp:77
  // static char PROGMEM _hex[] = {
  //   '0','1','2','3','4','5','6','7',
  //   '8','9','A','B','C','D','E','F'
  // };
  // return pgm_read_byte(&_hex[_x & 15]);
}
     9da:	08 95       	ret

000009dc <UsartBaseClass::write(unsigned char)>:
write():
/Users/askn/Library/Arduino15/packages/MultiX-Zinnia/hardware/modernAVR/0.2.14/cores/modernAVR/api/cpp/UsartBaseClass.cpp:18
#if !defined(__AVR_TINY__)

#include "../UsartBaseClass.h"

size_t UsartBaseClass::write (const uint8_t _c) {
  loop_until_bit_is_set(usart->STATUS, USART_DREIF_bp);
     9dc:	dc 01       	movw	r26, r24
     9de:	12 96       	adiw	r26, 0x02	; 2
     9e0:	ed 91       	ld	r30, X+
     9e2:	fc 91       	ld	r31, X
     9e4:	24 81       	ldd	r18, Z+4	; 0x04
     9e6:	25 ff       	sbrs	r18, 5
     9e8:	fd cf       	rjmp	.-6      	; 0x9e4 <UsartBaseClass::write(unsigned char)+0x8>
/Users/askn/Library/Arduino15/packages/MultiX-Zinnia/hardware/modernAVR/0.2.14/cores/modernAVR/api/cpp/UsartBaseClass.cpp:19
  usart->STATUS = USART_TXCIF_bm;
     9ea:	20 e4       	ldi	r18, 0x40	; 64
     9ec:	24 83       	std	Z+4, r18	; 0x04
/Users/askn/Library/Arduino15/packages/MultiX-Zinnia/hardware/modernAVR/0.2.14/cores/modernAVR/api/cpp/UsartBaseClass.cpp:20
  usart->TXDATAL = _c;
     9ee:	dc 01       	movw	r26, r24
     9f0:	12 96       	adiw	r26, 0x02	; 2
     9f2:	ed 91       	ld	r30, X+
     9f4:	fc 91       	ld	r31, X
     9f6:	62 83       	std	Z+2, r22	; 0x02
/Users/askn/Library/Arduino15/packages/MultiX-Zinnia/hardware/modernAVR/0.2.14/cores/modernAVR/api/cpp/UsartBaseClass.cpp:22
  return 1;
}
     9f8:	81 e0       	ldi	r24, 0x01	; 1
     9fa:	90 e0       	ldi	r25, 0x00	; 0
     9fc:	08 95       	ret

000009fe <USB::ep_cdo_listen()>:
ep_cdo_listen():
/Users/askn/Documents/Zinnia-tools/Products/software/UPDI4AVR-USB/src/usb.cpp:350
    loop_until_bit_is_clear(USB0_INTFLAGSB, USB_RMWBUSY_bp);
    USB_EP_STATUS_CLR(USB_EP_CDI) = ~USB_TOGGLE_bm;
  }

  void ep_cdo_listen (void) {
    ATOMIC_BLOCK(ATOMIC_RESTORESTATE) {
     9fe:	8f b7       	in	r24, 0x3f	; 63
__iCliRetVal():
/Users/askn/Library/Arduino15/packages/MultiX-Zinnia/tools/avr-gcc/7.3.0-avr8-gnu-toolchain/avr/include/util/atomic.h:50
    return 1;
}

static __inline__ uint8_t __iCliRetVal(void)
{
    cli();
     a00:	f8 94       	cli
ep_cdo_listen():
/Users/askn/Documents/Zinnia-tools/Products/software/UPDI4AVR-USB/src/usb.cpp:351
      _recv_count = 0;
     a02:	10 92 31 64 	sts	0x6431, r1	; 0x806431 <_recv_count>
/Users/askn/Documents/Zinnia-tools/Products/software/UPDI4AVR-USB/src/usb.cpp:352
      EP_CDO.CNT  = 0;
     a06:	10 92 70 64 	sts	0x6470, r1	; 0x806470 <EP_TABLE+0x3a>
     a0a:	10 92 71 64 	sts	0x6471, r1	; 0x806471 <EP_TABLE+0x3b>
__iRestore():
/Users/askn/Library/Arduino15/packages/MultiX-Zinnia/tools/avr-gcc/7.3.0-avr8-gnu-toolchain/avr/include/util/atomic.h:70
    (void)__s;
}

static __inline__ void __iRestore(const  uint8_t *__s)
{
    SREG = *__s;
     a0e:	8f bf       	out	0x3f, r24	; 63
ep_cdo_listen():
/Users/askn/Documents/Zinnia-tools/Products/software/UPDI4AVR-USB/src/usb.cpp:354
    }
    loop_until_bit_is_clear(USB0_INTFLAGSB, USB_RMWBUSY_bp);
     a10:	80 91 0b 0c 	lds	r24, 0x0C0B	; 0x800c0b <__TEXT_REGION_LENGTH__+0x7f0c0b>
     a14:	82 fd       	sbrc	r24, 2
     a16:	fc cf       	rjmp	.-8      	; 0xa10 <USB::ep_cdo_listen()+0x12>
/Users/askn/Documents/Zinnia-tools/Products/software/UPDI4AVR-USB/src/usb.cpp:355
    USB_EP_STATUS_CLR(USB_EP_CDO) = ~USB_TOGGLE_bm;
     a18:	8e ef       	ldi	r24, 0xFE	; 254
     a1a:	80 93 4c 0c 	sts	0x0C4C, r24	; 0x800c4c <__TEXT_REGION_LENGTH__+0x7f0c4c>
/Users/askn/Documents/Zinnia-tools/Products/software/UPDI4AVR-USB/src/usb.cpp:356
  }
     a1e:	08 95       	ret

00000a20 <USB::ep_cdi_listen()>:
ep_cdi_listen():
/Users/askn/Documents/Zinnia-tools/Products/software/UPDI4AVR-USB/src/usb.cpp:325
  #else
    /* If our math is correct, then if each side of the double */
    /* buffer can complete the transmission of 64 characters   */
    /* in 1 ms, then it can support 640 kbps. */
    if (bit_is_clear(GPCONF, GPCONF_OPN_bp)
     || bit_is_clear(EP_CDI.STATUS, USB_BUSNAK_bp)) {
     a20:	e4 9b       	sbis	0x1c, 4	; 28
     a22:	0b c0       	rjmp	.+22     	; 0xa3a <USB::ep_cdi_listen()+0x1a>
     a24:	80 91 76 64 	lds	r24, 0x6476	; 0x806476 <EP_TABLE+0x40>
     a28:	81 ff       	sbrs	r24, 1
     a2a:	07 c0       	rjmp	.+14     	; 0xa3a <USB::ep_cdi_listen()+0x1a>
/Users/askn/Documents/Zinnia-tools/Products/software/UPDI4AVR-USB/src/usb.cpp:336
  #endif
    D2PRINTF(" VI=%02X:", _send_count);
    D2PRINTHEX(bit_is_set(GPCONF, GPCONF_DBL_bp)
      ? &EP_MEM.cdi_data[64]
      : &EP_MEM.cdi_data[0], _send_count);
    ATOMIC_BLOCK(ATOMIC_RESTORESTATE) {
     a2c:	2f b7       	in	r18, 0x3f	; 63
__iCliRetVal():
/Users/askn/Library/Arduino15/packages/MultiX-Zinnia/tools/avr-gcc/7.3.0-avr8-gnu-toolchain/avr/include/util/atomic.h:50
    return 1;
}

static __inline__ uint8_t __iCliRetVal(void)
{
    cli();
     a2e:	f8 94       	cli
ep_cdi_listen():
/Users/askn/Documents/Zinnia-tools/Products/software/UPDI4AVR-USB/src/usb.cpp:338
      EP_CDI.DATAPTR = bit_is_set(GPCONF, GPCONF_DBL_bp)
        ? (register16_t)&EP_MEM.cdi_data[64]
     a30:	e2 99       	sbic	0x1c, 2	; 28
     a32:	0a c0       	rjmp	.+20     	; 0xa48 <USB::ep_cdi_listen()+0x28>
     a34:	8e ea       	ldi	r24, 0xAE	; 174
     a36:	93 e6       	ldi	r25, 0x63	; 99
     a38:	09 c0       	rjmp	.+18     	; 0xa4c <USB::ep_cdi_listen()+0x2c>
/Users/askn/Documents/Zinnia-tools/Products/software/UPDI4AVR-USB/src/usb.cpp:328
    /* in 1 ms, then it can support 640 kbps. */
    if (bit_is_clear(GPCONF, GPCONF_OPN_bp)
     || bit_is_clear(EP_CDI.STATUS, USB_BUSNAK_bp)) {
      /* No sending allowed while port is closed.  */
      /* If the buffer overflows, it is discarded. */
      if (_send_count == 64) _send_count = 0;
     a3a:	80 91 32 64 	lds	r24, 0x6432	; 0x806432 <_send_count>
     a3e:	80 34       	cpi	r24, 0x40	; 64
     a40:	11 f5       	brne	.+68     	; 0xa86 <USB::ep_cdi_listen()+0x66>
     a42:	10 92 32 64 	sts	0x6432, r1	; 0x806432 <_send_count>
     a46:	08 95       	ret
/Users/askn/Documents/Zinnia-tools/Products/software/UPDI4AVR-USB/src/usb.cpp:338
    D2PRINTHEX(bit_is_set(GPCONF, GPCONF_DBL_bp)
      ? &EP_MEM.cdi_data[64]
      : &EP_MEM.cdi_data[0], _send_count);
    ATOMIC_BLOCK(ATOMIC_RESTORESTATE) {
      EP_CDI.DATAPTR = bit_is_set(GPCONF, GPCONF_DBL_bp)
        ? (register16_t)&EP_MEM.cdi_data[64]
     a48:	8e ee       	ldi	r24, 0xEE	; 238
     a4a:	93 e6       	ldi	r25, 0x63	; 99
/Users/askn/Documents/Zinnia-tools/Products/software/UPDI4AVR-USB/src/usb.cpp:337
    D2PRINTF(" VI=%02X:", _send_count);
    D2PRINTHEX(bit_is_set(GPCONF, GPCONF_DBL_bp)
      ? &EP_MEM.cdi_data[64]
      : &EP_MEM.cdi_data[0], _send_count);
    ATOMIC_BLOCK(ATOMIC_RESTORESTATE) {
      EP_CDI.DATAPTR = bit_is_set(GPCONF, GPCONF_DBL_bp)
     a4c:	80 93 7a 64 	sts	0x647A, r24	; 0x80647a <EP_TABLE+0x44>
     a50:	90 93 7b 64 	sts	0x647B, r25	; 0x80647b <EP_TABLE+0x45>
/Users/askn/Documents/Zinnia-tools/Products/software/UPDI4AVR-USB/src/usb.cpp:340
        ? (register16_t)&EP_MEM.cdi_data[64]
        : (register16_t)&EP_MEM.cdi_data[0];
      EP_CDI.CNT = _send_count;
     a54:	80 91 32 64 	lds	r24, 0x6432	; 0x806432 <_send_count>
     a58:	90 e0       	ldi	r25, 0x00	; 0
     a5a:	80 93 78 64 	sts	0x6478, r24	; 0x806478 <EP_TABLE+0x42>
     a5e:	90 93 79 64 	sts	0x6479, r25	; 0x806479 <EP_TABLE+0x43>
/Users/askn/Documents/Zinnia-tools/Products/software/UPDI4AVR-USB/src/usb.cpp:341
      EP_CDI.MCNT = 0;
     a62:	10 92 7c 64 	sts	0x647C, r1	; 0x80647c <EP_TABLE+0x46>
     a66:	10 92 7d 64 	sts	0x647D, r1	; 0x80647d <EP_TABLE+0x47>
/Users/askn/Documents/Zinnia-tools/Products/software/UPDI4AVR-USB/src/usb.cpp:342
      _send_count = 0;
     a6a:	10 92 32 64 	sts	0x6432, r1	; 0x806432 <_send_count>
/Users/askn/Documents/Zinnia-tools/Products/software/UPDI4AVR-USB/src/usb.cpp:343
      GPCONF ^= GPCONF_DBL_bm;
     a6e:	8c b3       	in	r24, 0x1c	; 28
     a70:	94 e0       	ldi	r25, 0x04	; 4
     a72:	89 27       	eor	r24, r25
     a74:	8c bb       	out	0x1c, r24	; 28
__iRestore():
/Users/askn/Library/Arduino15/packages/MultiX-Zinnia/tools/avr-gcc/7.3.0-avr8-gnu-toolchain/avr/include/util/atomic.h:70
    (void)__s;
}

static __inline__ void __iRestore(const  uint8_t *__s)
{
    SREG = *__s;
     a76:	2f bf       	out	0x3f, r18	; 63
ep_cdi_listen():
/Users/askn/Documents/Zinnia-tools/Products/software/UPDI4AVR-USB/src/usb.cpp:345
    }
    loop_until_bit_is_clear(USB0_INTFLAGSB, USB_RMWBUSY_bp);
     a78:	80 91 0b 0c 	lds	r24, 0x0C0B	; 0x800c0b <__TEXT_REGION_LENGTH__+0x7f0c0b>
     a7c:	82 fd       	sbrc	r24, 2
     a7e:	fc cf       	rjmp	.-8      	; 0xa78 <USB::ep_cdi_listen()+0x58>
/Users/askn/Documents/Zinnia-tools/Products/software/UPDI4AVR-USB/src/usb.cpp:346
    USB_EP_STATUS_CLR(USB_EP_CDI) = ~USB_TOGGLE_bm;
     a80:	8e ef       	ldi	r24, 0xFE	; 254
     a82:	80 93 4e 0c 	sts	0x0C4E, r24	; 0x800c4e <__TEXT_REGION_LENGTH__+0x7f0c4e>
/Users/askn/Documents/Zinnia-tools/Products/software/UPDI4AVR-USB/src/usb.cpp:347
  }
     a86:	08 95       	ret

00000a88 <USB::ep_cci_listen()>:
ep_cci_listen():
/Users/askn/Documents/Zinnia-tools/Products/software/UPDI4AVR-USB/src/usb.cpp:292
    loop_until_bit_is_clear(USB0_INTFLAGSB, USB_RMWBUSY_bp);
    USB_EP_STATUS_CLR(USB_EP_DPO) = ~USB_TOGGLE_bm;
  }

  void ep_cci_listen (void) {
    EP_CCI.CNT = 10;
     a88:	8a e0       	ldi	r24, 0x0A	; 10
     a8a:	90 e0       	ldi	r25, 0x00	; 0
     a8c:	80 93 68 64 	sts	0x6468, r24	; 0x806468 <EP_TABLE+0x32>
     a90:	90 93 69 64 	sts	0x6469, r25	; 0x806469 <EP_TABLE+0x33>
/Users/askn/Documents/Zinnia-tools/Products/software/UPDI4AVR-USB/src/usb.cpp:293
    EP_CCI.MCNT = 0;
     a94:	10 92 6c 64 	sts	0x646C, r1	; 0x80646c <EP_TABLE+0x36>
     a98:	10 92 6d 64 	sts	0x646D, r1	; 0x80646d <EP_TABLE+0x37>
/Users/askn/Documents/Zinnia-tools/Products/software/UPDI4AVR-USB/src/usb.cpp:294
    loop_until_bit_is_clear(USB0_INTFLAGSB, USB_RMWBUSY_bp);
     a9c:	80 91 0b 0c 	lds	r24, 0x0C0B	; 0x800c0b <__TEXT_REGION_LENGTH__+0x7f0c0b>
     aa0:	82 fd       	sbrc	r24, 2
     aa2:	fc cf       	rjmp	.-8      	; 0xa9c <USB::ep_cci_listen()+0x14>
/Users/askn/Documents/Zinnia-tools/Products/software/UPDI4AVR-USB/src/usb.cpp:295
    USB_EP_STATUS_CLR(USB_EP_CCI) = ~USB_TOGGLE_bm;
     aa4:	8e ef       	ldi	r24, 0xFE	; 254
     aa6:	80 93 4a 0c 	sts	0x0C4A, r24	; 0x800c4a <__TEXT_REGION_LENGTH__+0x7f0c4a>
/Users/askn/Documents/Zinnia-tools/Products/software/UPDI4AVR-USB/src/usb.cpp:296
  }
     aaa:	08 95       	ret

00000aac <USB::ep_res_listen()>:
ep_res_listen():
/Users/askn/Documents/Zinnia-tools/Products/software/UPDI4AVR-USB/src/usb.cpp:273
    loop_until_bit_is_clear(USB0_INTFLAGSB, USB_RMWBUSY_bp);
    USB_EP_STATUS_CLR(USB_EP_REQ) = ~USB_TOGGLE_bm;
  }

  void ep_res_listen (void) {
    EP_RES.MCNT = 0;
     aac:	10 92 4c 64 	sts	0x644C, r1	; 0x80644c <EP_TABLE+0x16>
     ab0:	10 92 4d 64 	sts	0x644D, r1	; 0x80644d <EP_TABLE+0x17>
/Users/askn/Documents/Zinnia-tools/Products/software/UPDI4AVR-USB/src/usb.cpp:274
    loop_until_bit_is_clear(USB0_INTFLAGSB, USB_RMWBUSY_bp);
     ab4:	80 91 0b 0c 	lds	r24, 0x0C0B	; 0x800c0b <__TEXT_REGION_LENGTH__+0x7f0c0b>
     ab8:	82 fd       	sbrc	r24, 2
     aba:	fc cf       	rjmp	.-8      	; 0xab4 <USB::ep_res_listen()+0x8>
/Users/askn/Documents/Zinnia-tools/Products/software/UPDI4AVR-USB/src/usb.cpp:275
    USB_EP_STATUS_CLR(USB_EP_RES) = ~USB_TOGGLE_bm;
     abc:	8e ef       	ldi	r24, 0xFE	; 254
     abe:	80 93 42 0c 	sts	0x0C42, r24	; 0x800c42 <__TEXT_REGION_LENGTH__+0x7f0c42>
/Users/askn/Documents/Zinnia-tools/Products/software/UPDI4AVR-USB/src/usb.cpp:276
  }
     ac2:	08 95       	ret

00000ac4 <USB::ep_req_listen()>:
ep_req_listen():
/Users/askn/Documents/Zinnia-tools/Products/software/UPDI4AVR-USB/src/usb.cpp:267
  void ep_cci_pending (void) { loop_until_bit_is_set(EP_CCI.STATUS, USB_BUSNAK_bp); }
  void ep_cdo_pending (void) { loop_until_bit_is_set(EP_CDO.STATUS, USB_BUSNAK_bp); }
  void ep_cdi_pending (void) { loop_until_bit_is_set(EP_CDI.STATUS, USB_BUSNAK_bp); }

  void ep_req_listen (void) {
    EP_REQ.CNT = 0;
     ac4:	10 92 40 64 	sts	0x6440, r1	; 0x806440 <EP_TABLE+0xa>
     ac8:	10 92 41 64 	sts	0x6441, r1	; 0x806441 <EP_TABLE+0xb>
/Users/askn/Documents/Zinnia-tools/Products/software/UPDI4AVR-USB/src/usb.cpp:268
    loop_until_bit_is_clear(USB0_INTFLAGSB, USB_RMWBUSY_bp);
     acc:	80 91 0b 0c 	lds	r24, 0x0C0B	; 0x800c0b <__TEXT_REGION_LENGTH__+0x7f0c0b>
     ad0:	82 fd       	sbrc	r24, 2
     ad2:	fc cf       	rjmp	.-8      	; 0xacc <USB::ep_req_listen()+0x8>
/Users/askn/Documents/Zinnia-tools/Products/software/UPDI4AVR-USB/src/usb.cpp:269
    USB_EP_STATUS_CLR(USB_EP_REQ) = ~USB_TOGGLE_bm;
     ad4:	8e ef       	ldi	r24, 0xFE	; 254
     ad6:	80 93 40 0c 	sts	0x0C40, r24	; 0x800c40 <__TEXT_REGION_LENGTH__+0x7f0c40>
/Users/askn/Documents/Zinnia-tools/Products/software/UPDI4AVR-USB/src/usb.cpp:270
  }
     ada:	08 95       	ret

00000adc <USART::drain(unsigned int)>:
drain():
/Users/askn/Documents/Zinnia-tools/Products/software/UPDI4AVR-USB/src/usart.cpp:41
    return _baud;
  }

  void drain (size_t _delay) {
    do {
      if (bit_is_set(USART0_STATUS, USART_RXCIF_bp)) {
     adc:	20 91 04 08 	lds	r18, 0x0804	; 0x800804 <__TEXT_REGION_LENGTH__+0x7f0804>
     ae0:	27 ff       	sbrs	r18, 7
     ae2:	04 c0       	rjmp	.+8      	; 0xaec <USART::drain(unsigned int)+0x10>
/Users/askn/Documents/Zinnia-tools/Products/software/UPDI4AVR-USB/src/usart.cpp:45
        __asm__ __volatile__ (
          "LDS R0, 0x0801\n"  /* drop USART0_RXDATAH */
          "LDS R0, 0x0800\n"  /* drop USART0_RXDATAL */
        );
     ae4:	00 90 01 08 	lds	r0, 0x0801	; 0x800801 <__TEXT_REGION_LENGTH__+0x7f0801>
     ae8:	00 90 00 08 	lds	r0, 0x0800	; 0x800800 <__TEXT_REGION_LENGTH__+0x7f0800>
/Users/askn/Documents/Zinnia-tools/Products/software/UPDI4AVR-USB/src/usart.cpp:47
      }
    } while (--_delay);
     aec:	01 97       	sbiw	r24, 0x01	; 1
     aee:	b1 f7       	brne	.-20     	; 0xadc <USART::drain(unsigned int)>
/Users/askn/Documents/Zinnia-tools/Products/software/UPDI4AVR-USB/src/usart.cpp:48
  }
     af0:	08 95       	ret

00000af2 <USART::calk_baud_khz(unsigned int)>:
calk_baud_khz():
/Users/askn/Documents/Zinnia-tools/Products/software/UPDI4AVR-USB/src/usart.cpp:33
    pinModeMacro(PIN_PG_TRST, INPUT_PULLUP);  /* USART0_ALT3 or USART0_DEFAULT */
  }

  /*** Calculate the baud rate for VCP asynchronous mode. ***/
  uint16_t calk_baud_khz (uint16_t _khz) {
    uint32_t _baud = ((F_CPU / 1000L * 8L) / _khz + 1) / 2;
     af2:	9c 01       	movw	r18, r24
     af4:	50 e0       	ldi	r21, 0x00	; 0
     af6:	40 e0       	ldi	r20, 0x00	; 0
     af8:	60 e0       	ldi	r22, 0x00	; 0
     afa:	71 e7       	ldi	r23, 0x71	; 113
     afc:	82 e0       	ldi	r24, 0x02	; 2
     afe:	90 e0       	ldi	r25, 0x00	; 0
     b00:	0e 94 a4 24 	call	0x4948	; 0x4948 <__divmodsi4>
     b04:	da 01       	movw	r26, r20
     b06:	c9 01       	movw	r24, r18
     b08:	01 96       	adiw	r24, 0x01	; 1
     b0a:	a1 1d       	adc	r26, r1
     b0c:	b1 1d       	adc	r27, r1
     b0e:	b5 95       	asr	r27
     b10:	a7 95       	ror	r26
     b12:	97 95       	ror	r25
     b14:	87 95       	ror	r24
/Users/askn/Documents/Zinnia-tools/Products/software/UPDI4AVR-USB/src/usart.cpp:34
    if (_baud < 64) _baud = 64;
     b16:	80 34       	cpi	r24, 0x40	; 64
     b18:	91 05       	cpc	r25, r1
     b1a:	a1 05       	cpc	r26, r1
     b1c:	b1 05       	cpc	r27, r1
     b1e:	54 f0       	brlt	.+20     	; 0xb34 <USART::calk_baud_khz(unsigned int)+0x42>
     b20:	00 97       	sbiw	r24, 0x00	; 0
     b22:	21 e0       	ldi	r18, 0x01	; 1
     b24:	a2 07       	cpc	r26, r18
     b26:	b1 05       	cpc	r27, r1
     b28:	48 f0       	brcs	.+18     	; 0xb3c <USART::calk_baud_khz(unsigned int)+0x4a>
     b2a:	8f ef       	ldi	r24, 0xFF	; 255
     b2c:	9f ef       	ldi	r25, 0xFF	; 255
     b2e:	a0 e0       	ldi	r26, 0x00	; 0
     b30:	b0 e0       	ldi	r27, 0x00	; 0
     b32:	08 95       	ret
     b34:	80 e4       	ldi	r24, 0x40	; 64
     b36:	90 e0       	ldi	r25, 0x00	; 0
     b38:	a0 e0       	ldi	r26, 0x00	; 0
     b3a:	b0 e0       	ldi	r27, 0x00	; 0
/Users/askn/Documents/Zinnia-tools/Products/software/UPDI4AVR-USB/src/usart.cpp:37
    else if (_baud > 0xFFFFU) _baud = 0xFFFF;
    return _baud;
  }
     b3c:	08 95       	ret

00000b3e <NVM::V1::prog_init()>:
prog_init():
/Users/askn/Documents/Zinnia-tools/Products/software/UPDI4AVR-USB/src/nvmv1.cpp:30
 * This file is a template for the future.
 */

namespace NVM::V1 {

  size_t prog_init (void) { return 0; }
     b3e:	90 e0       	ldi	r25, 0x00	; 0
     b40:	80 e0       	ldi	r24, 0x00	; 0
     b42:	08 95       	ret

00000b44 <UPDI::recv()>:
recv():
/Users/askn/Documents/Zinnia-tools/Products/software/UPDI4AVR-USB/src/updi.cpp:72
    send(0x00);
    USART0_BAUD = USART::calk_baud_khz(_xclk);
  }

  bool recv (void) {
    loop_until_bit_is_set(USART0_STATUS, USART_RXCIF_bp);
     b44:	80 91 04 08 	lds	r24, 0x0804	; 0x800804 <__TEXT_REGION_LENGTH__+0x7f0804>
     b48:	87 ff       	sbrs	r24, 7
     b4a:	fc cf       	rjmp	.-8      	; 0xb44 <UPDI::recv()>
/Users/askn/Documents/Zinnia-tools/Products/software/UPDI4AVR-USB/src/updi.cpp:73
    RXSTAT = USART0_RXDATAH ^ 0x80;
     b4c:	80 91 01 08 	lds	r24, 0x0801	; 0x800801 <__TEXT_REGION_LENGTH__+0x7f0801>
     b50:	80 58       	subi	r24, 0x80	; 128
     b52:	8e bb       	out	0x1e, r24	; 30
/Users/askn/Documents/Zinnia-tools/Products/software/UPDI4AVR-USB/src/updi.cpp:74
    RXDATA = USART0_RXDATAL;
     b54:	80 91 00 08 	lds	r24, 0x0800	; 0x800800 <__TEXT_REGION_LENGTH__+0x7f0800>
     b58:	8f bb       	out	0x1f, r24	; 31
/Users/askn/Documents/Zinnia-tools/Products/software/UPDI4AVR-USB/src/updi.cpp:75
    return RXSTAT == 0 || send_break();
     b5a:	8e b3       	in	r24, 0x1e	; 30
     b5c:	88 23       	and	r24, r24
     b5e:	11 f1       	breq	.+68     	; 0xba4 <UPDI::recv()+0x60>
send_break():
/Users/askn/Documents/Zinnia-tools/Products/software/UPDI4AVR-USB/src/updi.cpp:57
    0x55, 0x04        /* LD,ST PTR++ DATA1,2 */
  };

  bool send_break (void) {
    D2PRINTF("<BRK>");
    USART0_BAUD = USART0_BAUD + (USART0_BAUD >> 2);
     b60:	20 91 08 08 	lds	r18, 0x0808	; 0x800808 <__TEXT_REGION_LENGTH__+0x7f0808>
     b64:	30 91 09 08 	lds	r19, 0x0809	; 0x800809 <__TEXT_REGION_LENGTH__+0x7f0809>
     b68:	80 91 08 08 	lds	r24, 0x0808	; 0x800808 <__TEXT_REGION_LENGTH__+0x7f0808>
     b6c:	90 91 09 08 	lds	r25, 0x0809	; 0x800809 <__TEXT_REGION_LENGTH__+0x7f0809>
     b70:	96 95       	lsr	r25
     b72:	87 95       	ror	r24
     b74:	96 95       	lsr	r25
     b76:	87 95       	ror	r24
     b78:	82 0f       	add	r24, r18
     b7a:	93 1f       	adc	r25, r19
     b7c:	80 93 08 08 	sts	0x0808, r24	; 0x800808 <__TEXT_REGION_LENGTH__+0x7f0808>
     b80:	90 93 09 08 	sts	0x0809, r25	; 0x800809 <__TEXT_REGION_LENGTH__+0x7f0809>
/Users/askn/Documents/Zinnia-tools/Products/software/UPDI4AVR-USB/src/updi.cpp:58
    send(0x00);
     b84:	80 e0       	ldi	r24, 0x00	; 0
     b86:	10 d0       	rcall	.+32     	; 0xba8 <UPDI::send(unsigned char)>
/Users/askn/Documents/Zinnia-tools/Products/software/UPDI4AVR-USB/src/updi.cpp:59
    USART0_BAUD = USART::calk_baud_khz(_xclk);
     b88:	80 91 18 60 	lds	r24, 0x6018	; 0x806018 <_xclk>
     b8c:	90 91 19 60 	lds	r25, 0x6019	; 0x806019 <_xclk+0x1>
     b90:	b0 df       	rcall	.-160    	; 0xaf2 <USART::calk_baud_khz(unsigned int)>
     b92:	80 93 08 08 	sts	0x0808, r24	; 0x800808 <__TEXT_REGION_LENGTH__+0x7f0808>
     b96:	90 93 09 08 	sts	0x0809, r25	; 0x800809 <__TEXT_REGION_LENGTH__+0x7f0809>
/Users/askn/Documents/Zinnia-tools/Products/software/UPDI4AVR-USB/src/updi.cpp:60
    USART::drain();
     b9a:	90 e0       	ldi	r25, 0x00	; 0
     b9c:	80 e0       	ldi	r24, 0x00	; 0
     b9e:	9e df       	rcall	.-196    	; 0xadc <USART::drain(unsigned int)>
     ba0:	80 e0       	ldi	r24, 0x00	; 0
     ba2:	08 95       	ret
recv():
/Users/askn/Documents/Zinnia-tools/Products/software/UPDI4AVR-USB/src/updi.cpp:75

  bool recv (void) {
    loop_until_bit_is_set(USART0_STATUS, USART_RXCIF_bp);
    RXSTAT = USART0_RXDATAH ^ 0x80;
    RXDATA = USART0_RXDATAL;
    return RXSTAT == 0 || send_break();
     ba4:	81 e0       	ldi	r24, 0x01	; 1
/Users/askn/Documents/Zinnia-tools/Products/software/UPDI4AVR-USB/src/updi.cpp:76
  }
     ba6:	08 95       	ret

00000ba8 <UPDI::send(unsigned char)>:
send():
/Users/askn/Documents/Zinnia-tools/Products/software/UPDI4AVR-USB/src/updi.cpp:90

  bool is_ack (void) {
    return recv() && 0x40 == RXDATA;
  }

  bool send (const uint8_t _data) {
     ba8:	cf 93       	push	r28
     baa:	c8 2f       	mov	r28, r24
/Users/askn/Documents/Zinnia-tools/Products/software/UPDI4AVR-USB/src/updi.cpp:91
    loop_until_bit_is_set(USART0_STATUS, USART_DREIF_bp);
     bac:	80 91 04 08 	lds	r24, 0x0804	; 0x800804 <__TEXT_REGION_LENGTH__+0x7f0804>
     bb0:	85 ff       	sbrs	r24, 5
/Users/askn/Documents/Zinnia-tools/Products/software/UPDI4AVR-USB/src/updi.cpp:92
    USART0_TXDATAL = _data;
     bb2:	fc cf       	rjmp	.-8      	; 0xbac <UPDI::send(unsigned char)+0x4>
     bb4:	c0 93 02 08 	sts	0x0802, r28	; 0x800802 <__TEXT_REGION_LENGTH__+0x7f0802>
/Users/askn/Documents/Zinnia-tools/Products/software/UPDI4AVR-USB/src/updi.cpp:93
    return recv() && _data == RXDATA;
     bb8:	c5 df       	rcall	.-118    	; 0xb44 <UPDI::recv()>
     bba:	88 23       	and	r24, r24
     bbc:	21 f0       	breq	.+8      	; 0xbc6 <UPDI::send(unsigned char)+0x1e>
     bbe:	9f b3       	in	r25, 0x1f	; 31
     bc0:	81 e0       	ldi	r24, 0x01	; 1
     bc2:	9c 13       	cpse	r25, r28
     bc4:	80 e0       	ldi	r24, 0x00	; 0
/Users/askn/Documents/Zinnia-tools/Products/software/UPDI4AVR-USB/src/updi.cpp:94
  }
     bc6:	cf 91       	pop	r28
     bc8:	08 95       	ret

00000bca <UPDI::send_bytes(unsigned char const*, unsigned int)>:
send_bytes():
/Users/askn/Documents/Zinnia-tools/Products/software/UPDI4AVR-USB/src/updi.cpp:96

  bool send_bytes (const uint8_t* _data, size_t _len) {
     bca:	0f 93       	push	r16
     bcc:	1f 93       	push	r17
     bce:	cf 93       	push	r28
     bd0:	df 93       	push	r29
     bd2:	eb 01       	movw	r28, r22
/Users/askn/Documents/Zinnia-tools/Products/software/UPDI4AVR-USB/src/updi.cpp:98
    do {
      if (!send(*_data++)) return false;
     bd4:	8c 01       	movw	r16, r24
     bd6:	f8 01       	movw	r30, r16
     bd8:	81 91       	ld	r24, Z+
     bda:	8f 01       	movw	r16, r30
     bdc:	e5 df       	rcall	.-54     	; 0xba8 <UPDI::send(unsigned char)>
     bde:	88 23       	and	r24, r24
     be0:	11 f0       	breq	.+4      	; 0xbe6 <UPDI::send_bytes(unsigned char const*, unsigned int)+0x1c>
/Users/askn/Documents/Zinnia-tools/Products/software/UPDI4AVR-USB/src/updi.cpp:99
    } while (--_len);
     be2:	21 97       	sbiw	r28, 0x01	; 1
     be4:	c1 f7       	brne	.-16     	; 0xbd6 <UPDI::send_bytes(unsigned char const*, unsigned int)+0xc>
/Users/askn/Documents/Zinnia-tools/Products/software/UPDI4AVR-USB/src/updi.cpp:101
    return true;
  }
     be6:	df 91       	pop	r29
     be8:	cf 91       	pop	r28
     bea:	1f 91       	pop	r17
     bec:	0f 91       	pop	r16
/Users/askn/Documents/Zinnia-tools/Products/software/UPDI4AVR-USB/src/updi.cpp:223
    return send_bytes(_key_stat, 2) && recv();
  }

  bool sys_status (void) {
    const static uint8_t _sys_stat[] = {0x55, 0x8B};
    return send_bytes(_sys_stat, 2) && recv();
     bee:	08 95       	ret

00000bf0 <UPDI::sys_status()>:
sys_status():
     bf0:	62 e0       	ldi	r22, 0x02	; 2
     bf2:	70 e0       	ldi	r23, 0x00	; 0
     bf4:	81 e4       	ldi	r24, 0x41	; 65
     bf6:	90 e6       	ldi	r25, 0x60	; 96
     bf8:	e8 df       	rcall	.-48     	; 0xbca <UPDI::send_bytes(unsigned char const*, unsigned int)>
/Users/askn/Documents/Zinnia-tools/Products/software/UPDI4AVR-USB/src/updi.cpp:110
  bool recv_byte (uint32_t _dwAddr) {
    static uint8_t _set_ptr[] = {
      0x55, 0x08, 0, 0, 0, 0  /* LDS ADDR3 DATA1 */
    };
    _CAPS32(_set_ptr[2])->dword = _dwAddr;
    return send_bytes(_set_ptr, 5) && recv();
     bfa:	81 11       	cpse	r24, r1
/Users/askn/Documents/Zinnia-tools/Products/software/UPDI4AVR-USB/src/updi.cpp:224
  }

  bool sys_status (void) {
    const static uint8_t _sys_stat[] = {0x55, 0x8B};
    return send_bytes(_sys_stat, 2) && recv();
  }
     bfc:	a3 cf       	rjmp	.-186    	; 0xb44 <UPDI::recv()>
/Users/askn/Documents/Zinnia-tools/Products/software/UPDI4AVR-USB/src/updi.cpp:218
    return send_byte(0x1000, _nvmcmd);  /* NVMCTRL_CTRLA */
  }

  bool key_status (void) {
    const static uint8_t _key_stat[] = {0x55, 0x87};
    return send_bytes(_key_stat, 2) && recv();
     bfe:	80 e0       	ldi	r24, 0x00	; 0
     c00:	08 95       	ret

00000c02 <UPDI::key_status()>:
key_status():
     c02:	62 e0       	ldi	r22, 0x02	; 2
     c04:	70 e0       	ldi	r23, 0x00	; 0
     c06:	8f e3       	ldi	r24, 0x3F	; 63
     c08:	90 e6       	ldi	r25, 0x60	; 96
     c0a:	df df       	rcall	.-66     	; 0xbca <UPDI::send_bytes(unsigned char const*, unsigned int)>
/Users/askn/Documents/Zinnia-tools/Products/software/UPDI4AVR-USB/src/updi.cpp:110
  bool recv_byte (uint32_t _dwAddr) {
    static uint8_t _set_ptr[] = {
      0x55, 0x08, 0, 0, 0, 0  /* LDS ADDR3 DATA1 */
    };
    _CAPS32(_set_ptr[2])->dword = _dwAddr;
    return send_bytes(_set_ptr, 5) && recv();
     c0c:	81 11       	cpse	r24, r1
     c0e:	9a cf       	rjmp	.-204    	; 0xb44 <UPDI::recv()>
/Users/askn/Documents/Zinnia-tools/Products/software/UPDI4AVR-USB/src/updi.cpp:219
  }

  bool key_status (void) {
    const static uint8_t _key_stat[] = {0x55, 0x87};
    return send_bytes(_key_stat, 2) && recv();
  }
     c10:	80 e0       	ldi	r24, 0x00	; 0
     c12:	08 95       	ret

00000c14 <UPDI::recv_byte(unsigned long)>:
recv_byte():
/Users/askn/Documents/Zinnia-tools/Products/software/UPDI4AVR-USB/src/updi.cpp:109
  /* The acquired data is stored in RXDATA.    */
  bool recv_byte (uint32_t _dwAddr) {
    static uint8_t _set_ptr[] = {
      0x55, 0x08, 0, 0, 0, 0  /* LDS ADDR3 DATA1 */
    };
    _CAPS32(_set_ptr[2])->dword = _dwAddr;
     c14:	60 93 03 60 	sts	0x6003, r22	; 0x806003 <UPDI::recv_byte(unsigned long)::_set_ptr+0x2>
     c18:	70 93 04 60 	sts	0x6004, r23	; 0x806004 <UPDI::recv_byte(unsigned long)::_set_ptr+0x3>
     c1c:	80 93 05 60 	sts	0x6005, r24	; 0x806005 <UPDI::recv_byte(unsigned long)::_set_ptr+0x4>
/Users/askn/Documents/Zinnia-tools/Products/software/UPDI4AVR-USB/src/updi.cpp:110
    return send_bytes(_set_ptr, 5) && recv();
     c20:	90 93 06 60 	sts	0x6006, r25	; 0x806006 <UPDI::recv_byte(unsigned long)::_set_ptr+0x5>
     c24:	65 e0       	ldi	r22, 0x05	; 5
     c26:	70 e0       	ldi	r23, 0x00	; 0
     c28:	81 e0       	ldi	r24, 0x01	; 1
     c2a:	90 e6       	ldi	r25, 0x60	; 96
     c2c:	ce df       	rcall	.-100    	; 0xbca <UPDI::send_bytes(unsigned char const*, unsigned int)>
     c2e:	81 11       	cpse	r24, r1
/Users/askn/Documents/Zinnia-tools/Products/software/UPDI4AVR-USB/src/updi.cpp:111
  }
     c30:	89 cf       	rjmp	.-238    	; 0xb44 <UPDI::recv()>
     c32:	80 e0       	ldi	r24, 0x00	; 0
/Users/askn/Documents/Zinnia-tools/Products/software/UPDI4AVR-USB/src/updi.cpp:87
    } while (--_len);
    return true;
  }

  bool is_ack (void) {
    return recv() && 0x40 == RXDATA;
     c34:	08 95       	ret

00000c36 <UPDI::is_ack()>:
is_ack():
     c36:	86 df       	rcall	.-244    	; 0xb44 <UPDI::recv()>
     c38:	88 23       	and	r24, r24
     c3a:	29 f0       	breq	.+10     	; 0xc46 <UPDI::is_ack()+0x10>
     c3c:	9f b3       	in	r25, 0x1f	; 31
     c3e:	81 e0       	ldi	r24, 0x01	; 1
     c40:	90 34       	cpi	r25, 0x40	; 64
     c42:	09 f0       	breq	.+2      	; 0xc46 <UPDI::is_ack()+0x10>
     c44:	80 e0       	ldi	r24, 0x00	; 0
/Users/askn/Documents/Zinnia-tools/Products/software/UPDI4AVR-USB/src/updi.cpp:88
  }
     c46:	08 95       	ret

00000c48 <UPDI::send_words_block(unsigned long, unsigned int)>:
send_words_block():
/Users/askn/Documents/Zinnia-tools/Products/software/UPDI4AVR-USB/src/updi.cpp:186
      && send_bytes(_set_repeat, sizeof(_set_repeat))
      && send_bytes(&packet.out.memData[0], _wLength)
      && clear_rsd();
  }

  bool send_words_block (uint32_t _dwAddr, size_t _wLength) {
     c48:	cf 93       	push	r28
     c4a:	df 93       	push	r29
     c4c:	ea 01       	movw	r28, r20
/Users/askn/Documents/Zinnia-tools/Products/software/UPDI4AVR-USB/src/updi.cpp:189
    /* This function works in word units up to 256 words, */
    /* and will round down any fractional words.          */
    _CAPS32(_set_ptr24[2])->dword = _dwAddr;
     c4e:	60 93 14 60 	sts	0x6014, r22	; 0x806014 <UPDI::_set_ptr24+0x2>
     c52:	70 93 15 60 	sts	0x6015, r23	; 0x806015 <UPDI::_set_ptr24+0x3>
     c56:	80 93 16 60 	sts	0x6016, r24	; 0x806016 <UPDI::_set_ptr24+0x4>
     c5a:	90 93 17 60 	sts	0x6017, r25	; 0x806017 <UPDI::_set_ptr24+0x5>
/Users/askn/Documents/Zinnia-tools/Products/software/UPDI4AVR-USB/src/updi.cpp:190
    _set_repeat[2] = (_wLength >> 1) - 1;
     c5e:	ca 01       	movw	r24, r20
     c60:	96 95       	lsr	r25
     c62:	87 95       	ror	r24
     c64:	81 50       	subi	r24, 0x01	; 1
/Users/askn/Documents/Zinnia-tools/Products/software/UPDI4AVR-USB/src/updi.cpp:191
    _set_repeat[4] = 0x65;  /* ST PTR++ DATA2 */
     c66:	80 93 0f 60 	sts	0x600F, r24	; 0x80600f <UPDI::_set_repeat+0x2>
     c6a:	85 e6       	ldi	r24, 0x65	; 101
/Users/askn/Documents/Zinnia-tools/Products/software/UPDI4AVR-USB/src/updi.cpp:192
    return send_bytes(_set_ptr24, 5)
     c6c:	80 93 11 60 	sts	0x6011, r24	; 0x806011 <UPDI::_set_repeat+0x4>
     c70:	65 e0       	ldi	r22, 0x05	; 5
     c72:	70 e0       	ldi	r23, 0x00	; 0
     c74:	82 e1       	ldi	r24, 0x12	; 18
/Users/askn/Documents/Zinnia-tools/Products/software/UPDI4AVR-USB/src/updi.cpp:197
      && is_ack()
      && set_rsd()
      && send_bytes(_set_repeat, sizeof(_set_repeat))
      && send_bytes(&packet.out.memData[0], _wLength & ~1)
      && clear_rsd();
     c76:	90 e6       	ldi	r25, 0x60	; 96
     c78:	a8 df       	rcall	.-176    	; 0xbca <UPDI::send_bytes(unsigned char const*, unsigned int)>
/Users/askn/Documents/Zinnia-tools/Products/software/UPDI4AVR-USB/src/updi.cpp:193
    /* and will round down any fractional words.          */
    _CAPS32(_set_ptr24[2])->dword = _dwAddr;
    _set_repeat[2] = (_wLength >> 1) - 1;
    _set_repeat[4] = 0x65;  /* ST PTR++ DATA2 */
    return send_bytes(_set_ptr24, 5)
      && is_ack()
     c7a:	88 23       	and	r24, r24
     c7c:	f9 f0       	breq	.+62     	; 0xcbc <UPDI::send_words_block(unsigned long, unsigned int)+0x74>
     c7e:	db df       	rcall	.-74     	; 0xc36 <UPDI::is_ack()>
/Users/askn/Documents/Zinnia-tools/Products/software/UPDI4AVR-USB/src/updi.cpp:144
  #endif
  }

  bool set_rsd (void) {
    const static uint8_t _set_rsd[] = {0x55, 0xC2, 0x0D};
    return send_bytes(_set_rsd, 3);
     c80:	88 23       	and	r24, r24
     c82:	e1 f0       	breq	.+56     	; 0xcbc <UPDI::send_words_block(unsigned long, unsigned int)+0x74>
set_rsd():
     c84:	63 e0       	ldi	r22, 0x03	; 3
     c86:	70 e0       	ldi	r23, 0x00	; 0
     c88:	89 e3       	ldi	r24, 0x39	; 57
/Users/askn/Documents/Zinnia-tools/Products/software/UPDI4AVR-USB/src/updi.cpp:194
    _CAPS32(_set_ptr24[2])->dword = _dwAddr;
    _set_repeat[2] = (_wLength >> 1) - 1;
    _set_repeat[4] = 0x65;  /* ST PTR++ DATA2 */
    return send_bytes(_set_ptr24, 5)
      && is_ack()
      && set_rsd()
     c8a:	90 e6       	ldi	r25, 0x60	; 96
     c8c:	9e df       	rcall	.-196    	; 0xbca <UPDI::send_bytes(unsigned char const*, unsigned int)>
send_words_block():
/Users/askn/Documents/Zinnia-tools/Products/software/UPDI4AVR-USB/src/updi.cpp:195
      && send_bytes(_set_repeat, sizeof(_set_repeat))
     c8e:	88 23       	and	r24, r24
     c90:	a9 f0       	breq	.+42     	; 0xcbc <UPDI::send_words_block(unsigned long, unsigned int)+0x74>
     c92:	65 e0       	ldi	r22, 0x05	; 5
     c94:	70 e0       	ldi	r23, 0x00	; 0
     c96:	8d e0       	ldi	r24, 0x0D	; 13
     c98:	90 e6       	ldi	r25, 0x60	; 96
     c9a:	97 df       	rcall	.-210    	; 0xbca <UPDI::send_bytes(unsigned char const*, unsigned int)>
/Users/askn/Documents/Zinnia-tools/Products/software/UPDI4AVR-USB/src/updi.cpp:196
      && send_bytes(&packet.out.memData[0], _wLength & ~1)
     c9c:	88 23       	and	r24, r24
     c9e:	71 f0       	breq	.+28     	; 0xcbc <UPDI::send_words_block(unsigned long, unsigned int)+0x74>
     ca0:	be 01       	movw	r22, r28
     ca2:	6e 7f       	andi	r22, 0xFE	; 254
     ca4:	8f ed       	ldi	r24, 0xDF	; 223
     ca6:	90 e6       	ldi	r25, 0x60	; 96
     ca8:	90 df       	rcall	.-224    	; 0xbca <UPDI::send_bytes(unsigned char const*, unsigned int)>
     caa:	88 23       	and	r24, r24
/Users/askn/Documents/Zinnia-tools/Products/software/UPDI4AVR-USB/src/updi.cpp:149
    return send_bytes(_set_rsd, 3);
  }

  bool clear_rsd (void) {
    const static uint8_t _clear_rsd[] = {0x55, 0xC2, 0x05};
    return send_bytes(_clear_rsd, 3);
     cac:	39 f0       	breq	.+14     	; 0xcbc <UPDI::send_words_block(unsigned long, unsigned int)+0x74>
clear_rsd():
     cae:	63 e0       	ldi	r22, 0x03	; 3
     cb0:	70 e0       	ldi	r23, 0x00	; 0
     cb2:	8c e3       	ldi	r24, 0x3C	; 60
/Users/askn/Documents/Zinnia-tools/Products/software/UPDI4AVR-USB/src/updi.cpp:198
      && is_ack()
      && set_rsd()
      && send_bytes(_set_repeat, sizeof(_set_repeat))
      && send_bytes(&packet.out.memData[0], _wLength & ~1)
      && clear_rsd();
  }
     cb4:	90 e6       	ldi	r25, 0x60	; 96
send_words_block():
     cb6:	df 91       	pop	r29
/Users/askn/Documents/Zinnia-tools/Products/software/UPDI4AVR-USB/src/updi.cpp:149
    return send_bytes(_set_rsd, 3);
  }

  bool clear_rsd (void) {
    const static uint8_t _clear_rsd[] = {0x55, 0xC2, 0x05};
    return send_bytes(_clear_rsd, 3);
     cb8:	cf 91       	pop	r28
clear_rsd():
     cba:	87 cf       	rjmp	.-242    	; 0xbca <UPDI::send_bytes(unsigned char const*, unsigned int)>
send_words_block():
/Users/askn/Documents/Zinnia-tools/Products/software/UPDI4AVR-USB/src/updi.cpp:198
      && is_ack()
      && set_rsd()
      && send_bytes(_set_repeat, sizeof(_set_repeat))
      && send_bytes(&packet.out.memData[0], _wLength & ~1)
      && clear_rsd();
  }
     cbc:	80 e0       	ldi	r24, 0x00	; 0
     cbe:	df 91       	pop	r29
     cc0:	cf 91       	pop	r28
     cc2:	08 95       	ret

00000cc4 <UPDI::send_bytes_block(unsigned long, unsigned int)>:
send_bytes_block():
/Users/askn/Documents/Zinnia-tools/Products/software/UPDI4AVR-USB/src/updi.cpp:174
      && is_ack()
      && send_bytes(_set_repeat, sizeof(_set_repeat))
      && recv_bytes(&packet.in.data[0], _wLength & ~1);
  }

  bool send_bytes_block (uint32_t _dwAddr, size_t _wLength) {
     cc4:	cf 93       	push	r28
     cc6:	df 93       	push	r29
     cc8:	ea 01       	movw	r28, r20
/Users/askn/Documents/Zinnia-tools/Products/software/UPDI4AVR-USB/src/updi.cpp:175
    _CAPS32(_set_ptr24[2])->dword = _dwAddr;
     cca:	60 93 14 60 	sts	0x6014, r22	; 0x806014 <UPDI::_set_ptr24+0x2>
     cce:	70 93 15 60 	sts	0x6015, r23	; 0x806015 <UPDI::_set_ptr24+0x3>
     cd2:	80 93 16 60 	sts	0x6016, r24	; 0x806016 <UPDI::_set_ptr24+0x4>
/Users/askn/Documents/Zinnia-tools/Products/software/UPDI4AVR-USB/src/updi.cpp:176
    _set_repeat[2] = _wLength - 1;
     cd6:	90 93 17 60 	sts	0x6017, r25	; 0x806017 <UPDI::_set_ptr24+0x5>
     cda:	8f ef       	ldi	r24, 0xFF	; 255
/Users/askn/Documents/Zinnia-tools/Products/software/UPDI4AVR-USB/src/updi.cpp:177
    _set_repeat[4] = 0x64;  /* ST PTR++ DATA1 */
     cdc:	84 0f       	add	r24, r20
     cde:	80 93 0f 60 	sts	0x600F, r24	; 0x80600f <UPDI::_set_repeat+0x2>
/Users/askn/Documents/Zinnia-tools/Products/software/UPDI4AVR-USB/src/updi.cpp:178
    return send_bytes(_set_ptr24, 5)
     ce2:	84 e6       	ldi	r24, 0x64	; 100
     ce4:	80 93 11 60 	sts	0x6011, r24	; 0x806011 <UPDI::_set_repeat+0x4>
     ce8:	65 e0       	ldi	r22, 0x05	; 5
     cea:	70 e0       	ldi	r23, 0x00	; 0
/Users/askn/Documents/Zinnia-tools/Products/software/UPDI4AVR-USB/src/updi.cpp:183
      && is_ack()
      && set_rsd()
      && send_bytes(_set_repeat, sizeof(_set_repeat))
      && send_bytes(&packet.out.memData[0], _wLength)
      && clear_rsd();
     cec:	82 e1       	ldi	r24, 0x12	; 18
     cee:	90 e6       	ldi	r25, 0x60	; 96
/Users/askn/Documents/Zinnia-tools/Products/software/UPDI4AVR-USB/src/updi.cpp:179
  bool send_bytes_block (uint32_t _dwAddr, size_t _wLength) {
    _CAPS32(_set_ptr24[2])->dword = _dwAddr;
    _set_repeat[2] = _wLength - 1;
    _set_repeat[4] = 0x64;  /* ST PTR++ DATA1 */
    return send_bytes(_set_ptr24, 5)
      && is_ack()
     cf0:	6c df       	rcall	.-296    	; 0xbca <UPDI::send_bytes(unsigned char const*, unsigned int)>
     cf2:	88 23       	and	r24, r24
     cf4:	f1 f0       	breq	.+60     	; 0xd32 <UPDI::send_bytes_block(unsigned long, unsigned int)+0x6e>
/Users/askn/Documents/Zinnia-tools/Products/software/UPDI4AVR-USB/src/updi.cpp:144
  #endif
  }

  bool set_rsd (void) {
    const static uint8_t _set_rsd[] = {0x55, 0xC2, 0x0D};
    return send_bytes(_set_rsd, 3);
     cf6:	9f df       	rcall	.-194    	; 0xc36 <UPDI::is_ack()>
     cf8:	88 23       	and	r24, r24
     cfa:	d9 f0       	breq	.+54     	; 0xd32 <UPDI::send_bytes_block(unsigned long, unsigned int)+0x6e>
set_rsd():
     cfc:	63 e0       	ldi	r22, 0x03	; 3
     cfe:	70 e0       	ldi	r23, 0x00	; 0
     d00:	89 e3       	ldi	r24, 0x39	; 57
/Users/askn/Documents/Zinnia-tools/Products/software/UPDI4AVR-USB/src/updi.cpp:180
    _CAPS32(_set_ptr24[2])->dword = _dwAddr;
    _set_repeat[2] = _wLength - 1;
    _set_repeat[4] = 0x64;  /* ST PTR++ DATA1 */
    return send_bytes(_set_ptr24, 5)
      && is_ack()
      && set_rsd()
     d02:	90 e6       	ldi	r25, 0x60	; 96
/Users/askn/Documents/Zinnia-tools/Products/software/UPDI4AVR-USB/src/updi.cpp:181
      && send_bytes(_set_repeat, sizeof(_set_repeat))
     d04:	62 df       	rcall	.-316    	; 0xbca <UPDI::send_bytes(unsigned char const*, unsigned int)>
send_bytes_block():
     d06:	88 23       	and	r24, r24
     d08:	a1 f0       	breq	.+40     	; 0xd32 <UPDI::send_bytes_block(unsigned long, unsigned int)+0x6e>
     d0a:	65 e0       	ldi	r22, 0x05	; 5
     d0c:	70 e0       	ldi	r23, 0x00	; 0
     d0e:	8d e0       	ldi	r24, 0x0D	; 13
     d10:	90 e6       	ldi	r25, 0x60	; 96
     d12:	5b df       	rcall	.-330    	; 0xbca <UPDI::send_bytes(unsigned char const*, unsigned int)>
/Users/askn/Documents/Zinnia-tools/Products/software/UPDI4AVR-USB/src/updi.cpp:182
      && send_bytes(&packet.out.memData[0], _wLength)
     d14:	88 23       	and	r24, r24
     d16:	69 f0       	breq	.+26     	; 0xd32 <UPDI::send_bytes_block(unsigned long, unsigned int)+0x6e>
     d18:	be 01       	movw	r22, r28
     d1a:	8f ed       	ldi	r24, 0xDF	; 223
     d1c:	90 e6       	ldi	r25, 0x60	; 96
     d1e:	55 df       	rcall	.-342    	; 0xbca <UPDI::send_bytes(unsigned char const*, unsigned int)>
     d20:	88 23       	and	r24, r24
/Users/askn/Documents/Zinnia-tools/Products/software/UPDI4AVR-USB/src/updi.cpp:149
    return send_bytes(_set_rsd, 3);
  }

  bool clear_rsd (void) {
    const static uint8_t _clear_rsd[] = {0x55, 0xC2, 0x05};
    return send_bytes(_clear_rsd, 3);
     d22:	39 f0       	breq	.+14     	; 0xd32 <UPDI::send_bytes_block(unsigned long, unsigned int)+0x6e>
clear_rsd():
     d24:	63 e0       	ldi	r22, 0x03	; 3
     d26:	70 e0       	ldi	r23, 0x00	; 0
/Users/askn/Documents/Zinnia-tools/Products/software/UPDI4AVR-USB/src/updi.cpp:184
      && is_ack()
      && set_rsd()
      && send_bytes(_set_repeat, sizeof(_set_repeat))
      && send_bytes(&packet.out.memData[0], _wLength)
      && clear_rsd();
  }
     d28:	8c e3       	ldi	r24, 0x3C	; 60
/Users/askn/Documents/Zinnia-tools/Products/software/UPDI4AVR-USB/src/updi.cpp:149
    return send_bytes(_set_rsd, 3);
  }

  bool clear_rsd (void) {
    const static uint8_t _clear_rsd[] = {0x55, 0xC2, 0x05};
    return send_bytes(_clear_rsd, 3);
     d2a:	90 e6       	ldi	r25, 0x60	; 96
send_bytes_block():
     d2c:	df 91       	pop	r29
/Users/askn/Documents/Zinnia-tools/Products/software/UPDI4AVR-USB/src/updi.cpp:184
      && is_ack()
      && set_rsd()
      && send_bytes(_set_repeat, sizeof(_set_repeat))
      && send_bytes(&packet.out.memData[0], _wLength)
      && clear_rsd();
  }
     d2e:	cf 91       	pop	r28
clear_rsd():
     d30:	4c cf       	rjmp	.-360    	; 0xbca <UPDI::send_bytes(unsigned char const*, unsigned int)>
send_bytes_block():
     d32:	80 e0       	ldi	r24, 0x00	; 0
/Users/askn/Documents/Zinnia-tools/Products/software/UPDI4AVR-USB/src/updi.cpp:113
    };
    _CAPS32(_set_ptr[2])->dword = _dwAddr;
    return send_bytes(_set_ptr, 5) && recv();
  }

  bool send_byte (uint32_t _dwAddr, uint8_t _data) {
     d34:	df 91       	pop	r29
/Users/askn/Documents/Zinnia-tools/Products/software/UPDI4AVR-USB/src/updi.cpp:117
    static uint8_t _set_ptr[] = {
      0x55, 0x48, 0, 0, 0, 0  /* STS ADDR3 DATA1 */
    };
    _CAPS32(_set_ptr[2])->dword = _dwAddr;
     d36:	cf 91       	pop	r28
     d38:	08 95       	ret

00000d3a <UPDI::send_byte(unsigned long, unsigned char)>:
send_byte():
     d3a:	cf 93       	push	r28
     d3c:	c4 2f       	mov	r28, r20
     d3e:	60 93 09 60 	sts	0x6009, r22	; 0x806009 <UPDI::send_byte(unsigned long, unsigned char)::_set_ptr+0x2>
     d42:	70 93 0a 60 	sts	0x600A, r23	; 0x80600a <UPDI::send_byte(unsigned long, unsigned char)::_set_ptr+0x3>
/Users/askn/Documents/Zinnia-tools/Products/software/UPDI4AVR-USB/src/updi.cpp:118
    return send_bytes(_set_ptr, 5)
     d46:	80 93 0b 60 	sts	0x600B, r24	; 0x80600b <UPDI::send_byte(unsigned long, unsigned char)::_set_ptr+0x4>
     d4a:	90 93 0c 60 	sts	0x600C, r25	; 0x80600c <UPDI::send_byte(unsigned long, unsigned char)::_set_ptr+0x5>
     d4e:	65 e0       	ldi	r22, 0x05	; 5
/Users/askn/Documents/Zinnia-tools/Products/software/UPDI4AVR-USB/src/updi.cpp:121
      && is_ack()
      && send(_data)
      && is_ack();
     d50:	70 e0       	ldi	r23, 0x00	; 0
     d52:	87 e0       	ldi	r24, 0x07	; 7
/Users/askn/Documents/Zinnia-tools/Products/software/UPDI4AVR-USB/src/updi.cpp:119
    static uint8_t _set_ptr[] = {
      0x55, 0x48, 0, 0, 0, 0  /* STS ADDR3 DATA1 */
    };
    _CAPS32(_set_ptr[2])->dword = _dwAddr;
    return send_bytes(_set_ptr, 5)
      && is_ack()
     d54:	90 e6       	ldi	r25, 0x60	; 96
     d56:	39 df       	rcall	.-398    	; 0xbca <UPDI::send_bytes(unsigned char const*, unsigned int)>
     d58:	88 23       	and	r24, r24
     d5a:	49 f0       	breq	.+18     	; 0xd6e <UPDI::send_byte(unsigned long, unsigned char)+0x34>
/Users/askn/Documents/Zinnia-tools/Products/software/UPDI4AVR-USB/src/updi.cpp:120
      && send(_data)
     d5c:	6c df       	rcall	.-296    	; 0xc36 <UPDI::is_ack()>
     d5e:	88 23       	and	r24, r24
     d60:	31 f0       	breq	.+12     	; 0xd6e <UPDI::send_byte(unsigned long, unsigned char)+0x34>
     d62:	8c 2f       	mov	r24, r28
     d64:	21 df       	rcall	.-446    	; 0xba8 <UPDI::send(unsigned char)>
/Users/askn/Documents/Zinnia-tools/Products/software/UPDI4AVR-USB/src/updi.cpp:122
      && is_ack();
  }
     d66:	88 23       	and	r24, r24
/Users/askn/Documents/Zinnia-tools/Products/software/UPDI4AVR-USB/src/updi.cpp:121
    };
    _CAPS32(_set_ptr[2])->dword = _dwAddr;
    return send_bytes(_set_ptr, 5)
      && is_ack()
      && send(_data)
      && is_ack();
     d68:	11 f0       	breq	.+4      	; 0xd6e <UPDI::send_byte(unsigned long, unsigned char)+0x34>
     d6a:	cf 91       	pop	r28
/Users/askn/Documents/Zinnia-tools/Products/software/UPDI4AVR-USB/src/updi.cpp:122
  }
     d6c:	64 cf       	rjmp	.-312    	; 0xc36 <UPDI::is_ack()>
     d6e:	80 e0       	ldi	r24, 0x00	; 0
     d70:	cf 91       	pop	r28
/Users/askn/Documents/Zinnia-tools/Products/software/UPDI4AVR-USB/src/updi.cpp:213
    /* This slow process is due to USERROW and BOOTROW. */
    return send_bytes_data(_dwAddr, &packet.out.memData[0], _wLength);
  }

  bool nvm_ctrl (uint8_t _nvmcmd) {
    return send_byte(0x1000, _nvmcmd);  /* NVMCTRL_CTRLA */
     d72:	08 95       	ret

00000d74 <UPDI::nvm_ctrl(unsigned char)>:
nvm_ctrl():
     d74:	48 2f       	mov	r20, r24
     d76:	60 e0       	ldi	r22, 0x00	; 0
     d78:	70 e1       	ldi	r23, 0x10	; 16
     d7a:	80 e0       	ldi	r24, 0x00	; 0
     d7c:	90 e0       	ldi	r25, 0x00	; 0
/Users/askn/Documents/Zinnia-tools/Products/software/UPDI4AVR-USB/src/updi.cpp:207
      if (!send_byte(_dwAddr++, *_data++)) return false;
    }
    return true;
  }

  bool send_bytes_block_slow (uint32_t _dwAddr, size_t _wLength) {
     d7e:	dd cf       	rjmp	.-70     	; 0xd3a <UPDI::send_byte(unsigned long, unsigned char)>

00000d80 <UPDI::send_bytes_block_slow(unsigned long, unsigned int)>:
send_bytes_block_slow():
     d80:	cf 92       	push	r12
     d82:	df 92       	push	r13
     d84:	ef 92       	push	r14
     d86:	ff 92       	push	r15
     d88:	0f 93       	push	r16
     d8a:	1f 93       	push	r17
     d8c:	cf 93       	push	r28
     d8e:	df 93       	push	r29
     d90:	ce ec       	ldi	r28, 0xCE	; 206
     d92:	d0 e6       	ldi	r29, 0x60	; 96
     d94:	8a 01       	movw	r16, r20
     d96:	02 53       	subi	r16, 0x32	; 50
/Users/askn/Documents/Zinnia-tools/Products/software/UPDI4AVR-USB/src/updi.cpp:201
      && send_bytes(&packet.out.memData[0], _wLength & ~1)
      && clear_rsd();
  }

  bool send_bytes_data (uint32_t _dwAddr, uint8_t* _data, size_t _wLength) {
    for (size_t _i = 0; _i < _wLength; _i++) {
     d98:	1f 49       	sbci	r17, 0x9F	; 159
send_bytes_data():
     d9a:	c0 17       	cp	r28, r16
     d9c:	d1 07       	cpc	r29, r17
/Users/askn/Documents/Zinnia-tools/Products/software/UPDI4AVR-USB/src/updi.cpp:202
      if (!send_byte(_dwAddr++, *_data++)) return false;
     d9e:	c1 f0       	breq	.+48     	; 0xdd0 <UPDI::send_bytes_block_slow(unsigned long, unsigned int)+0x50>
     da0:	6b 01       	movw	r12, r22
     da2:	7c 01       	movw	r14, r24
     da4:	2f ef       	ldi	r18, 0xFF	; 255
     da6:	c2 1a       	sub	r12, r18
     da8:	d2 0a       	sbc	r13, r18
     daa:	e2 0a       	sbc	r14, r18
     dac:	f2 0a       	sbc	r15, r18
     dae:	49 89       	ldd	r20, Y+17	; 0x11
     db0:	c4 df       	rcall	.-120    	; 0xd3a <UPDI::send_byte(unsigned long, unsigned char)>
     db2:	21 96       	adiw	r28, 0x01	; 1
     db4:	81 11       	cpse	r24, r1
/Users/askn/Documents/Zinnia-tools/Products/software/UPDI4AVR-USB/src/updi.cpp:210
  }

  bool send_bytes_block_slow (uint32_t _dwAddr, size_t _wLength) {
    /* This slow process is due to USERROW and BOOTROW. */
    return send_bytes_data(_dwAddr, &packet.out.memData[0], _wLength);
  }
     db6:	09 c0       	rjmp	.+18     	; 0xdca <UPDI::send_bytes_block_slow(unsigned long, unsigned int)+0x4a>
send_bytes_block_slow():
     db8:	df 91       	pop	r29
     dba:	cf 91       	pop	r28
     dbc:	1f 91       	pop	r17
     dbe:	0f 91       	pop	r16
     dc0:	ff 90       	pop	r15
     dc2:	ef 90       	pop	r14
     dc4:	df 90       	pop	r13
     dc6:	cf 90       	pop	r12
/Users/askn/Documents/Zinnia-tools/Products/software/UPDI4AVR-USB/src/updi.cpp:202
      && clear_rsd();
  }

  bool send_bytes_data (uint32_t _dwAddr, uint8_t* _data, size_t _wLength) {
    for (size_t _i = 0; _i < _wLength; _i++) {
      if (!send_byte(_dwAddr++, *_data++)) return false;
     dc8:	08 95       	ret
     dca:	c7 01       	movw	r24, r14
     dcc:	b6 01       	movw	r22, r12
/Users/askn/Documents/Zinnia-tools/Products/software/UPDI4AVR-USB/src/updi.cpp:204
    }
    return true;
     dce:	e5 cf       	rjmp	.-54     	; 0xd9a <UPDI::send_bytes_block_slow(unsigned long, unsigned int)+0x1a>
     dd0:	81 e0       	ldi	r24, 0x01	; 1
/Users/askn/Documents/Zinnia-tools/Products/software/UPDI4AVR-USB/src/updi.cpp:78
    RXSTAT = USART0_RXDATAH ^ 0x80;
    RXDATA = USART0_RXDATAL;
    return RXSTAT == 0 || send_break();
  }

  bool recv_bytes (uint8_t* _data, size_t _len) {
     dd2:	f2 cf       	rjmp	.-28     	; 0xdb8 <UPDI::send_bytes_block_slow(unsigned long, unsigned int)+0x38>

00000dd4 <UPDI::recv_bytes(unsigned char*, unsigned int)>:
recv_bytes():
     dd4:	0f 93       	push	r16
     dd6:	1f 93       	push	r17
     dd8:	cf 93       	push	r28
     dda:	df 93       	push	r29
     ddc:	eb 01       	movw	r28, r22
/Users/askn/Documents/Zinnia-tools/Products/software/UPDI4AVR-USB/src/updi.cpp:80
    do {
      if (!recv()) return false;
     dde:	8c 01       	movw	r16, r24
     de0:	b1 de       	rcall	.-670    	; 0xb44 <UPDI::recv()>
     de2:	88 23       	and	r24, r24
     de4:	31 f0       	breq	.+12     	; 0xdf2 <UPDI::recv_bytes(unsigned char*, unsigned int)+0x1e>
/Users/askn/Documents/Zinnia-tools/Products/software/UPDI4AVR-USB/src/updi.cpp:81
      *_data++ = RXDATA;
     de6:	9f b3       	in	r25, 0x1f	; 31
     de8:	f8 01       	movw	r30, r16
     dea:	91 93       	st	Z+, r25
     dec:	8f 01       	movw	r16, r30
/Users/askn/Documents/Zinnia-tools/Products/software/UPDI4AVR-USB/src/updi.cpp:82
    } while (--_len);
     dee:	21 97       	sbiw	r28, 0x01	; 1
/Users/askn/Documents/Zinnia-tools/Products/software/UPDI4AVR-USB/src/updi.cpp:84
    return true;
  }
     df0:	b9 f7       	brne	.-18     	; 0xde0 <UPDI::recv_bytes(unsigned char*, unsigned int)+0xc>
     df2:	df 91       	pop	r29
     df4:	cf 91       	pop	r28
     df6:	1f 91       	pop	r17
/Users/askn/Documents/Zinnia-tools/Products/software/UPDI4AVR-USB/src/updi.cpp:162
      && is_ack()
      && send_bytes(_set_repeat, sizeof(_set_repeat))
      && recv_bytes(&packet.in.data[0], _wLength);
  }

  bool recv_words_block (uint32_t _dwAddr, size_t _wLength) {
     df8:	0f 91       	pop	r16
     dfa:	08 95       	ret

00000dfc <UPDI::recv_words_block(unsigned long, unsigned int)>:
recv_words_block():
     dfc:	cf 93       	push	r28
/Users/askn/Documents/Zinnia-tools/Products/software/UPDI4AVR-USB/src/updi.cpp:165
    /* This function works in word units up to 256 words, */
    /* and will round down any fractional words.          */
    _CAPS32(_set_ptr24[2])->dword = _dwAddr;
     dfe:	df 93       	push	r29
     e00:	ea 01       	movw	r28, r20
     e02:	60 93 14 60 	sts	0x6014, r22	; 0x806014 <UPDI::_set_ptr24+0x2>
     e06:	70 93 15 60 	sts	0x6015, r23	; 0x806015 <UPDI::_set_ptr24+0x3>
     e0a:	80 93 16 60 	sts	0x6016, r24	; 0x806016 <UPDI::_set_ptr24+0x4>
/Users/askn/Documents/Zinnia-tools/Products/software/UPDI4AVR-USB/src/updi.cpp:166
    _set_repeat[2] = (_wLength >> 1) - 1;
     e0e:	90 93 17 60 	sts	0x6017, r25	; 0x806017 <UPDI::_set_ptr24+0x5>
     e12:	ca 01       	movw	r24, r20
     e14:	96 95       	lsr	r25
/Users/askn/Documents/Zinnia-tools/Products/software/UPDI4AVR-USB/src/updi.cpp:167
    _set_repeat[4] = 0x25;  /* LD PTR++ DATA2 */
     e16:	87 95       	ror	r24
     e18:	81 50       	subi	r24, 0x01	; 1
     e1a:	80 93 0f 60 	sts	0x600F, r24	; 0x80600f <UPDI::_set_repeat+0x2>
/Users/askn/Documents/Zinnia-tools/Products/software/UPDI4AVR-USB/src/updi.cpp:168
    return send_bytes(_set_ptr24, 5)
     e1e:	85 e2       	ldi	r24, 0x25	; 37
     e20:	80 93 11 60 	sts	0x6011, r24	; 0x806011 <UPDI::_set_repeat+0x4>
     e24:	65 e0       	ldi	r22, 0x05	; 5
     e26:	70 e0       	ldi	r23, 0x00	; 0
/Users/askn/Documents/Zinnia-tools/Products/software/UPDI4AVR-USB/src/updi.cpp:171
      && is_ack()
      && send_bytes(_set_repeat, sizeof(_set_repeat))
      && recv_bytes(&packet.in.data[0], _wLength & ~1);
     e28:	82 e1       	ldi	r24, 0x12	; 18
     e2a:	90 e6       	ldi	r25, 0x60	; 96
/Users/askn/Documents/Zinnia-tools/Products/software/UPDI4AVR-USB/src/updi.cpp:169
    /* and will round down any fractional words.          */
    _CAPS32(_set_ptr24[2])->dword = _dwAddr;
    _set_repeat[2] = (_wLength >> 1) - 1;
    _set_repeat[4] = 0x25;  /* LD PTR++ DATA2 */
    return send_bytes(_set_ptr24, 5)
      && is_ack()
     e2c:	ce de       	rcall	.-612    	; 0xbca <UPDI::send_bytes(unsigned char const*, unsigned int)>
     e2e:	88 23       	and	r24, r24
     e30:	89 f0       	breq	.+34     	; 0xe54 <UPDI::recv_words_block(unsigned long, unsigned int)+0x58>
     e32:	01 df       	rcall	.-510    	; 0xc36 <UPDI::is_ack()>
/Users/askn/Documents/Zinnia-tools/Products/software/UPDI4AVR-USB/src/updi.cpp:170
      && send_bytes(_set_repeat, sizeof(_set_repeat))
     e34:	88 23       	and	r24, r24
     e36:	71 f0       	breq	.+28     	; 0xe54 <UPDI::recv_words_block(unsigned long, unsigned int)+0x58>
     e38:	65 e0       	ldi	r22, 0x05	; 5
     e3a:	70 e0       	ldi	r23, 0x00	; 0
     e3c:	8d e0       	ldi	r24, 0x0D	; 13
     e3e:	90 e6       	ldi	r25, 0x60	; 96
     e40:	c4 de       	rcall	.-632    	; 0xbca <UPDI::send_bytes(unsigned char const*, unsigned int)>
/Users/askn/Documents/Zinnia-tools/Products/software/UPDI4AVR-USB/src/updi.cpp:171
      && recv_bytes(&packet.in.data[0], _wLength & ~1);
     e42:	88 23       	and	r24, r24
     e44:	39 f0       	breq	.+14     	; 0xe54 <UPDI::recv_words_block(unsigned long, unsigned int)+0x58>
     e46:	be 01       	movw	r22, r28
/Users/askn/Documents/Zinnia-tools/Products/software/UPDI4AVR-USB/src/updi.cpp:172
  }
     e48:	6e 7f       	andi	r22, 0xFE	; 254
     e4a:	85 ed       	ldi	r24, 0xD5	; 213
/Users/askn/Documents/Zinnia-tools/Products/software/UPDI4AVR-USB/src/updi.cpp:171
    _set_repeat[2] = (_wLength >> 1) - 1;
    _set_repeat[4] = 0x25;  /* LD PTR++ DATA2 */
    return send_bytes(_set_ptr24, 5)
      && is_ack()
      && send_bytes(_set_repeat, sizeof(_set_repeat))
      && recv_bytes(&packet.in.data[0], _wLength & ~1);
     e4c:	90 e6       	ldi	r25, 0x60	; 96
     e4e:	df 91       	pop	r29
/Users/askn/Documents/Zinnia-tools/Products/software/UPDI4AVR-USB/src/updi.cpp:172
  }
     e50:	cf 91       	pop	r28
     e52:	c0 cf       	rjmp	.-128    	; 0xdd4 <UPDI::recv_bytes(unsigned char*, unsigned int)>
     e54:	80 e0       	ldi	r24, 0x00	; 0
/Users/askn/Documents/Zinnia-tools/Products/software/UPDI4AVR-USB/src/updi.cpp:152
  bool clear_rsd (void) {
    const static uint8_t _clear_rsd[] = {0x55, 0xC2, 0x05};
    return send_bytes(_clear_rsd, 3);
  }

  bool recv_bytes_block (uint32_t _dwAddr, size_t _wLength) {
     e56:	df 91       	pop	r29
     e58:	cf 91       	pop	r28
     e5a:	08 95       	ret

00000e5c <UPDI::recv_bytes_block(unsigned long, unsigned int)>:
recv_bytes_block():
/Users/askn/Documents/Zinnia-tools/Products/software/UPDI4AVR-USB/src/updi.cpp:153
    _CAPS32(_set_ptr24[2])->dword = _dwAddr;
     e5c:	cf 93       	push	r28
     e5e:	df 93       	push	r29
     e60:	ea 01       	movw	r28, r20
     e62:	60 93 14 60 	sts	0x6014, r22	; 0x806014 <UPDI::_set_ptr24+0x2>
     e66:	70 93 15 60 	sts	0x6015, r23	; 0x806015 <UPDI::_set_ptr24+0x3>
/Users/askn/Documents/Zinnia-tools/Products/software/UPDI4AVR-USB/src/updi.cpp:154
    _set_repeat[2] = _wLength - 1;
     e6a:	80 93 16 60 	sts	0x6016, r24	; 0x806016 <UPDI::_set_ptr24+0x4>
     e6e:	90 93 17 60 	sts	0x6017, r25	; 0x806017 <UPDI::_set_ptr24+0x5>
/Users/askn/Documents/Zinnia-tools/Products/software/UPDI4AVR-USB/src/updi.cpp:155
    _set_repeat[4] = 0x24;  /* LD PTR++ DATA1 */
     e72:	8f ef       	ldi	r24, 0xFF	; 255
     e74:	84 0f       	add	r24, r20
     e76:	80 93 0f 60 	sts	0x600F, r24	; 0x80600f <UPDI::_set_repeat+0x2>
/Users/askn/Documents/Zinnia-tools/Products/software/UPDI4AVR-USB/src/updi.cpp:156
    return send_bytes(_set_ptr24, 5)
     e7a:	84 e2       	ldi	r24, 0x24	; 36
     e7c:	80 93 11 60 	sts	0x6011, r24	; 0x806011 <UPDI::_set_repeat+0x4>
     e80:	65 e0       	ldi	r22, 0x05	; 5
     e82:	70 e0       	ldi	r23, 0x00	; 0
/Users/askn/Documents/Zinnia-tools/Products/software/UPDI4AVR-USB/src/updi.cpp:159
      && is_ack()
      && send_bytes(_set_repeat, sizeof(_set_repeat))
      && recv_bytes(&packet.in.data[0], _wLength);
     e84:	82 e1       	ldi	r24, 0x12	; 18
     e86:	90 e6       	ldi	r25, 0x60	; 96
/Users/askn/Documents/Zinnia-tools/Products/software/UPDI4AVR-USB/src/updi.cpp:157
  bool recv_bytes_block (uint32_t _dwAddr, size_t _wLength) {
    _CAPS32(_set_ptr24[2])->dword = _dwAddr;
    _set_repeat[2] = _wLength - 1;
    _set_repeat[4] = 0x24;  /* LD PTR++ DATA1 */
    return send_bytes(_set_ptr24, 5)
      && is_ack()
     e88:	a0 de       	rcall	.-704    	; 0xbca <UPDI::send_bytes(unsigned char const*, unsigned int)>
     e8a:	88 23       	and	r24, r24
     e8c:	81 f0       	breq	.+32     	; 0xeae <UPDI::recv_bytes_block(unsigned long, unsigned int)+0x52>
     e8e:	d3 de       	rcall	.-602    	; 0xc36 <UPDI::is_ack()>
/Users/askn/Documents/Zinnia-tools/Products/software/UPDI4AVR-USB/src/updi.cpp:158
      && send_bytes(_set_repeat, sizeof(_set_repeat))
     e90:	88 23       	and	r24, r24
     e92:	69 f0       	breq	.+26     	; 0xeae <UPDI::recv_bytes_block(unsigned long, unsigned int)+0x52>
     e94:	65 e0       	ldi	r22, 0x05	; 5
     e96:	70 e0       	ldi	r23, 0x00	; 0
     e98:	8d e0       	ldi	r24, 0x0D	; 13
     e9a:	90 e6       	ldi	r25, 0x60	; 96
     e9c:	96 de       	rcall	.-724    	; 0xbca <UPDI::send_bytes(unsigned char const*, unsigned int)>
     e9e:	88 23       	and	r24, r24
/Users/askn/Documents/Zinnia-tools/Products/software/UPDI4AVR-USB/src/updi.cpp:159
      && recv_bytes(&packet.in.data[0], _wLength);
     ea0:	31 f0       	breq	.+12     	; 0xeae <UPDI::recv_bytes_block(unsigned long, unsigned int)+0x52>
     ea2:	be 01       	movw	r22, r28
/Users/askn/Documents/Zinnia-tools/Products/software/UPDI4AVR-USB/src/updi.cpp:160
  }
     ea4:	85 ed       	ldi	r24, 0xD5	; 213
     ea6:	90 e6       	ldi	r25, 0x60	; 96
/Users/askn/Documents/Zinnia-tools/Products/software/UPDI4AVR-USB/src/updi.cpp:159
    _set_repeat[2] = _wLength - 1;
    _set_repeat[4] = 0x24;  /* LD PTR++ DATA1 */
    return send_bytes(_set_ptr24, 5)
      && is_ack()
      && send_bytes(_set_repeat, sizeof(_set_repeat))
      && recv_bytes(&packet.in.data[0], _wLength);
     ea8:	df 91       	pop	r29
     eaa:	cf 91       	pop	r28
/Users/askn/Documents/Zinnia-tools/Products/software/UPDI4AVR-USB/src/updi.cpp:160
  }
     eac:	93 cf       	rjmp	.-218    	; 0xdd4 <UPDI::recv_bytes(unsigned char*, unsigned int)>
     eae:	80 e0       	ldi	r24, 0x00	; 0
     eb0:	df 91       	pop	r29
     eb2:	cf 91       	pop	r28
/Users/askn/Documents/Zinnia-tools/Products/software/UPDI4AVR-USB/src/nvmv4.cpp:119

  size_t prog_init (void) {
    return nvm_ctrl_change(0x00);
  }

  size_t read_memory (void) {
     eb4:	08 95       	ret

00000eb6 <NVM::V4::read_memory()>:
read_memory():
     eb6:	cf 93       	push	r28
/Users/askn/Documents/Zinnia-tools/Products/software/UPDI4AVR-USB/src/nvmv4.cpp:123
    uint8_t   m_type = packet.out.bMType;
    uint32_t _dwAddr = packet.out.dwAddr;
    size_t  _wLength = packet.out.dwLength;
    if (bit_is_set(PGCONF, PGCONF_PROG_bp)) {
     eb8:	df 93       	push	r29
     eba:	e9 99       	sbic	0x1d, 1	; 29
/Users/askn/Documents/Zinnia-tools/Products/software/UPDI4AVR-USB/src/nvmv4.cpp:136
        _dwAddr = PROD_SIG + ((uint8_t)_dwAddr & 0x7F);
      }
      if (UPDI::recv_bytes_block(_dwAddr, _wLength))
        return _wLength + 1;
    }
    return 0;
     ebc:	05 c0       	rjmp	.+10     	; 0xec8 <NVM::V4::read_memory()+0x12>
     ebe:	90 e0       	ldi	r25, 0x00	; 0
/Users/askn/Documents/Zinnia-tools/Products/software/UPDI4AVR-USB/src/nvmv4.cpp:137
  }
     ec0:	80 e0       	ldi	r24, 0x00	; 0
     ec2:	df 91       	pop	r29
/Users/askn/Documents/Zinnia-tools/Products/software/UPDI4AVR-USB/src/nvmv4.cpp:120
  size_t prog_init (void) {
    return nvm_ctrl_change(0x00);
  }

  size_t read_memory (void) {
    uint8_t   m_type = packet.out.bMType;
     ec4:	cf 91       	pop	r28
     ec6:	08 95       	ret
/Users/askn/Documents/Zinnia-tools/Products/software/UPDI4AVR-USB/src/nvmv4.cpp:121
    uint32_t _dwAddr = packet.out.dwAddr;
     ec8:	20 91 d5 60 	lds	r18, 0x60D5	; 0x8060d5 <packet+0x7>
     ecc:	60 91 d6 60 	lds	r22, 0x60D6	; 0x8060d6 <packet+0x8>
     ed0:	70 91 d7 60 	lds	r23, 0x60D7	; 0x8060d7 <packet+0x9>
     ed4:	80 91 d8 60 	lds	r24, 0x60D8	; 0x8060d8 <packet+0xa>
/Users/askn/Documents/Zinnia-tools/Products/software/UPDI4AVR-USB/src/nvmv4.cpp:122
    size_t  _wLength = packet.out.dwLength;
     ed8:	90 91 d9 60 	lds	r25, 0x60D9	; 0x8060d9 <packet+0xb>
     edc:	c0 91 da 60 	lds	r28, 0x60DA	; 0x8060da <packet+0xc>
/Users/askn/Documents/Zinnia-tools/Products/software/UPDI4AVR-USB/src/nvmv4.cpp:124
    if (bit_is_set(PGCONF, PGCONF_PROG_bp)) {
      if (m_type == 0xB0) {
     ee0:	d0 91 db 60 	lds	r29, 0x60DB	; 0x8060db <packet+0xd>
/Users/askn/Documents/Zinnia-tools/Products/software/UPDI4AVR-USB/src/nvmv4.cpp:126
        /* MTYPE_FLASH_PAGE (PROGMEM) */
        _dwAddr += PROG_START;
     ee4:	20 3b       	cpi	r18, 0xB0	; 176
     ee6:	49 f4       	brne	.+18     	; 0xefa <NVM::V4::read_memory()+0x44>
/Users/askn/Documents/Zinnia-tools/Products/software/UPDI4AVR-USB/src/nvmv4.cpp:127
        return UPDI::recv_words_block(_dwAddr, _wLength) ? _wLength + 1 : 0;
     ee8:	80 58       	subi	r24, 0x80	; 128
     eea:	9f 4f       	sbci	r25, 0xFF	; 255
     eec:	ae 01       	movw	r20, r28
/Users/askn/Documents/Zinnia-tools/Products/software/UPDI4AVR-USB/src/nvmv4.cpp:133
      }
      if (m_type == 0xB4) {
        /* MTYPE_SIGN_JTAG */
        _dwAddr = PROD_SIG + ((uint8_t)_dwAddr & 0x7F);
      }
      if (UPDI::recv_bytes_block(_dwAddr, _wLength))
     eee:	86 df       	rcall	.-244    	; 0xdfc <UPDI::recv_words_block(unsigned long, unsigned int)>
     ef0:	88 23       	and	r24, r24
/Users/askn/Documents/Zinnia-tools/Products/software/UPDI4AVR-USB/src/nvmv4.cpp:134
        return _wLength + 1;
     ef2:	29 f3       	breq	.-54     	; 0xebe <NVM::V4::read_memory()+0x8>
     ef4:	ce 01       	movw	r24, r28
     ef6:	01 96       	adiw	r24, 0x01	; 1
/Users/askn/Documents/Zinnia-tools/Products/software/UPDI4AVR-USB/src/nvmv4.cpp:129
      if (m_type == 0xB0) {
        /* MTYPE_FLASH_PAGE (PROGMEM) */
        _dwAddr += PROG_START;
        return UPDI::recv_words_block(_dwAddr, _wLength) ? _wLength + 1 : 0;
      }
      if (m_type == 0xB4) {
     ef8:	e4 cf       	rjmp	.-56     	; 0xec2 <NVM::V4::read_memory()+0xc>
     efa:	24 3b       	cpi	r18, 0xB4	; 180
/Users/askn/Documents/Zinnia-tools/Products/software/UPDI4AVR-USB/src/nvmv4.cpp:131
        /* MTYPE_SIGN_JTAG */
        _dwAddr = PROD_SIG + ((uint8_t)_dwAddr & 0x7F);
     efc:	41 f4       	brne	.+16     	; 0xf0e <NVM::V4::read_memory()+0x58>
     efe:	6f 77       	andi	r22, 0x7F	; 127
     f00:	70 e0       	ldi	r23, 0x00	; 0
     f02:	60 58       	subi	r22, 0x80	; 128
     f04:	7f 4e       	sbci	r23, 0xEF	; 239
     f06:	07 2e       	mov	r0, r23
     f08:	00 0c       	add	r0, r0
/Users/askn/Documents/Zinnia-tools/Products/software/UPDI4AVR-USB/src/nvmv4.cpp:133
      }
      if (UPDI::recv_bytes_block(_dwAddr, _wLength))
     f0a:	88 0b       	sbc	r24, r24
     f0c:	99 0b       	sbc	r25, r25
     f0e:	ae 01       	movw	r20, r28
     f10:	a5 df       	rcall	.-182    	; 0xe5c <UPDI::recv_bytes_block(unsigned long, unsigned int)>
     f12:	ee cf       	rjmp	.-36     	; 0xef0 <NVM::V4::read_memory()+0x3a>

00000f14 <NVM::V5::read_memory()>:
_ZN3NVM2V511read_memoryEv():
     f14:	d0 cf       	rjmp	.-96     	; 0xeb6 <NVM::V4::read_memory()>

00000f16 <NVM::V2::read_memory()>:
read_memory():
/Users/askn/Documents/Zinnia-tools/Products/software/UPDI4AVR-USB/src/nvmv2.cpp:116

  size_t prog_init (void) {
    return nvm_ctrl_change(0x00);
  }

  size_t read_memory (void) {
     f16:	cf 93       	push	r28
     f18:	df 93       	push	r29
/Users/askn/Documents/Zinnia-tools/Products/software/UPDI4AVR-USB/src/nvmv2.cpp:120
    uint8_t   m_type = packet.out.bMType;
    uint32_t _dwAddr = packet.out.dwAddr;
    size_t  _wLength = packet.out.dwLength;
    if (bit_is_set(PGCONF, PGCONF_PROG_bp)) {
     f1a:	e9 99       	sbic	0x1d, 1	; 29
/Users/askn/Documents/Zinnia-tools/Products/software/UPDI4AVR-USB/src/nvmv2.cpp:133
        _dwAddr = PROD_SIG + ((uint8_t)_dwAddr & 0x7F);
      }
      if (UPDI::recv_bytes_block(_dwAddr, _wLength))
        return _wLength + 1;
    }
    return 0;
     f1c:	05 c0       	rjmp	.+10     	; 0xf28 <NVM::V2::read_memory()+0x12>
/Users/askn/Documents/Zinnia-tools/Products/software/UPDI4AVR-USB/src/nvmv2.cpp:134
  }
     f1e:	90 e0       	ldi	r25, 0x00	; 0
     f20:	80 e0       	ldi	r24, 0x00	; 0
     f22:	df 91       	pop	r29
/Users/askn/Documents/Zinnia-tools/Products/software/UPDI4AVR-USB/src/nvmv2.cpp:117
  size_t prog_init (void) {
    return nvm_ctrl_change(0x00);
  }

  size_t read_memory (void) {
    uint8_t   m_type = packet.out.bMType;
     f24:	cf 91       	pop	r28
     f26:	08 95       	ret
/Users/askn/Documents/Zinnia-tools/Products/software/UPDI4AVR-USB/src/nvmv2.cpp:118
    uint32_t _dwAddr = packet.out.dwAddr;
     f28:	20 91 d5 60 	lds	r18, 0x60D5	; 0x8060d5 <packet+0x7>
     f2c:	60 91 d6 60 	lds	r22, 0x60D6	; 0x8060d6 <packet+0x8>
     f30:	70 91 d7 60 	lds	r23, 0x60D7	; 0x8060d7 <packet+0x9>
     f34:	80 91 d8 60 	lds	r24, 0x60D8	; 0x8060d8 <packet+0xa>
/Users/askn/Documents/Zinnia-tools/Products/software/UPDI4AVR-USB/src/nvmv2.cpp:119
    size_t  _wLength = packet.out.dwLength;
     f38:	90 91 d9 60 	lds	r25, 0x60D9	; 0x8060d9 <packet+0xb>
     f3c:	c0 91 da 60 	lds	r28, 0x60DA	; 0x8060da <packet+0xc>
/Users/askn/Documents/Zinnia-tools/Products/software/UPDI4AVR-USB/src/nvmv2.cpp:121
    if (bit_is_set(PGCONF, PGCONF_PROG_bp)) {
      if (m_type == 0xB0) {
     f40:	d0 91 db 60 	lds	r29, 0x60DB	; 0x8060db <packet+0xd>
/Users/askn/Documents/Zinnia-tools/Products/software/UPDI4AVR-USB/src/nvmv2.cpp:123
        /* MTYPE_FLASH_PAGE (PROGMEM) */
        _dwAddr += PROG_START;
     f44:	20 3b       	cpi	r18, 0xB0	; 176
     f46:	49 f4       	brne	.+18     	; 0xf5a <NVM::V2::read_memory()+0x44>
/Users/askn/Documents/Zinnia-tools/Products/software/UPDI4AVR-USB/src/nvmv2.cpp:124
        return UPDI::recv_words_block(_dwAddr, _wLength) ? _wLength + 1 : 0;
     f48:	80 58       	subi	r24, 0x80	; 128
     f4a:	9f 4f       	sbci	r25, 0xFF	; 255
     f4c:	ae 01       	movw	r20, r28
/Users/askn/Documents/Zinnia-tools/Products/software/UPDI4AVR-USB/src/nvmv2.cpp:130
      }
      if (m_type == 0xB4) {
        /* MTYPE_SIGN_JTAG */
        _dwAddr = PROD_SIG + ((uint8_t)_dwAddr & 0x7F);
      }
      if (UPDI::recv_bytes_block(_dwAddr, _wLength))
     f4e:	56 df       	rcall	.-340    	; 0xdfc <UPDI::recv_words_block(unsigned long, unsigned int)>
     f50:	88 23       	and	r24, r24
/Users/askn/Documents/Zinnia-tools/Products/software/UPDI4AVR-USB/src/nvmv2.cpp:131
        return _wLength + 1;
     f52:	29 f3       	breq	.-54     	; 0xf1e <NVM::V2::read_memory()+0x8>
     f54:	ce 01       	movw	r24, r28
     f56:	01 96       	adiw	r24, 0x01	; 1
/Users/askn/Documents/Zinnia-tools/Products/software/UPDI4AVR-USB/src/nvmv2.cpp:126
      if (m_type == 0xB0) {
        /* MTYPE_FLASH_PAGE (PROGMEM) */
        _dwAddr += PROG_START;
        return UPDI::recv_words_block(_dwAddr, _wLength) ? _wLength + 1 : 0;
      }
      if (m_type == 0xB4) {
     f58:	e4 cf       	rjmp	.-56     	; 0xf22 <NVM::V2::read_memory()+0xc>
     f5a:	24 3b       	cpi	r18, 0xB4	; 180
/Users/askn/Documents/Zinnia-tools/Products/software/UPDI4AVR-USB/src/nvmv2.cpp:128
        /* MTYPE_SIGN_JTAG */
        _dwAddr = PROD_SIG + ((uint8_t)_dwAddr & 0x7F);
     f5c:	39 f4       	brne	.+14     	; 0xf6c <NVM::V2::read_memory()+0x56>
     f5e:	6f 77       	andi	r22, 0x7F	; 127
     f60:	70 e0       	ldi	r23, 0x00	; 0
     f62:	7f 5e       	subi	r23, 0xEF	; 239
     f64:	07 2e       	mov	r0, r23
     f66:	00 0c       	add	r0, r0
/Users/askn/Documents/Zinnia-tools/Products/software/UPDI4AVR-USB/src/nvmv2.cpp:130
      }
      if (UPDI::recv_bytes_block(_dwAddr, _wLength))
     f68:	88 0b       	sbc	r24, r24
     f6a:	99 0b       	sbc	r25, r25
     f6c:	ae 01       	movw	r20, r28
     f6e:	76 df       	rcall	.-276    	; 0xe5c <UPDI::recv_bytes_block(unsigned long, unsigned int)>
     f70:	ef cf       	rjmp	.-34     	; 0xf50 <NVM::V2::read_memory()+0x3a>

00000f72 <NVM::V3::read_memory()>:
_ZN3NVM2V311read_memoryEv():
     f72:	d1 cf       	rjmp	.-94     	; 0xf16 <NVM::V2::read_memory()>

00000f74 <NVM::V0::read_memory()>:
read_memory():
/Users/askn/Documents/Zinnia-tools/Products/software/UPDI4AVR-USB/src/nvmv0.cpp:114
    UPDI::nvm_ctrl(0x04);         /* NVM_CMD_PBC */
    nvm_wait();
    return UPDI::nvm_ctrl(0x00);
  }

  size_t read_memory (void) {
     f74:	cf 93       	push	r28
     f76:	df 93       	push	r29
/Users/askn/Documents/Zinnia-tools/Products/software/UPDI4AVR-USB/src/nvmv0.cpp:115
    uint8_t  m_type = packet.out.bMType;
     f78:	80 91 d5 60 	lds	r24, 0x60D5	; 0x8060d5 <packet+0x7>
/Users/askn/Documents/Zinnia-tools/Products/software/UPDI4AVR-USB/src/nvmv0.cpp:116
    uint16_t _wAddr = packet.out.dwAddr;
     f7c:	60 91 d6 60 	lds	r22, 0x60D6	; 0x8060d6 <packet+0x8>
     f80:	30 91 d7 60 	lds	r19, 0x60D7	; 0x8060d7 <packet+0x9>
/Users/askn/Documents/Zinnia-tools/Products/software/UPDI4AVR-USB/src/nvmv0.cpp:118
    size_t _wLength = packet.out.dwLength;
    if (m_type == 0xB4) {
     f84:	84 3b       	cpi	r24, 0xB4	; 180
     f86:	51 f4       	brne	.+20     	; 0xf9c <NVM::V0::read_memory()+0x28>
/Users/askn/Documents/Zinnia-tools/Products/software/UPDI4AVR-USB/src/nvmv0.cpp:120
      /* MTYPE_SIGN_JTAG */
      _wAddr = PROD_SIG + ((uint8_t)_wAddr & 0x7F);
     f88:	6f 77       	andi	r22, 0x7F	; 127
     f8a:	70 e0       	ldi	r23, 0x00	; 0
     f8c:	7f 5e       	subi	r23, 0xEF	; 239
/Users/askn/Documents/Zinnia-tools/Products/software/UPDI4AVR-USB/src/nvmv0.cpp:127
    else if (m_type == 0xB0) {
      /* MTYPE_FLASH_PAGE (PROGMEM) */
      _wAddr += Device_Descriptor.UPDI.prog_base;
    }
    if (bit_is_set(PGCONF, PGCONF_PROG_bp)
     && UPDI::recv_bytes_block(_wAddr, _wLength))
     f8e:	e9 99       	sbic	0x1d, 1	; 29
     f90:	0f c0       	rjmp	.+30     	; 0xfb0 <NVM::V0::read_memory()+0x3c>
/Users/askn/Documents/Zinnia-tools/Products/software/UPDI4AVR-USB/src/nvmv0.cpp:129
      return _wLength + 1;
    return 0;
     f92:	90 e0       	ldi	r25, 0x00	; 0
     f94:	80 e0       	ldi	r24, 0x00	; 0
/Users/askn/Documents/Zinnia-tools/Products/software/UPDI4AVR-USB/src/nvmv0.cpp:130
  }
     f96:	df 91       	pop	r29
     f98:	cf 91       	pop	r28
     f9a:	08 95       	ret
/Users/askn/Documents/Zinnia-tools/Products/software/UPDI4AVR-USB/src/nvmv0.cpp:116
    return UPDI::nvm_ctrl(0x00);
  }

  size_t read_memory (void) {
    uint8_t  m_type = packet.out.bMType;
    uint16_t _wAddr = packet.out.dwAddr;
     f9c:	73 2f       	mov	r23, r19
/Users/askn/Documents/Zinnia-tools/Products/software/UPDI4AVR-USB/src/nvmv0.cpp:122
    size_t _wLength = packet.out.dwLength;
    if (m_type == 0xB4) {
      /* MTYPE_SIGN_JTAG */
      _wAddr = PROD_SIG + ((uint8_t)_wAddr & 0x7F);
    }
    else if (m_type == 0xB0) {
     f9e:	80 3b       	cpi	r24, 0xB0	; 176
/Users/askn/Documents/Zinnia-tools/Products/software/UPDI4AVR-USB/src/nvmv0.cpp:124
      /* MTYPE_FLASH_PAGE (PROGMEM) */
      _wAddr += Device_Descriptor.UPDI.prog_base;
     fa0:	b1 f7       	brne	.-20     	; 0xf8e <NVM::V0::read_memory()+0x1a>
     fa2:	80 91 9e 60 	lds	r24, 0x609E	; 0x80609e <Device_Descriptor>
     fa6:	90 91 9f 60 	lds	r25, 0x609F	; 0x80609f <Device_Descriptor+0x1>
     faa:	68 0f       	add	r22, r24
     fac:	79 1f       	adc	r23, r25
/Users/askn/Documents/Zinnia-tools/Products/software/UPDI4AVR-USB/src/nvmv0.cpp:117
  }

  size_t read_memory (void) {
    uint8_t  m_type = packet.out.bMType;
    uint16_t _wAddr = packet.out.dwAddr;
    size_t _wLength = packet.out.dwLength;
     fae:	ef cf       	rjmp	.-34     	; 0xf8e <NVM::V0::read_memory()+0x1a>
     fb0:	c0 91 da 60 	lds	r28, 0x60DA	; 0x8060da <packet+0xc>
     fb4:	d0 91 db 60 	lds	r29, 0x60DB	; 0x8060db <packet+0xd>
/Users/askn/Documents/Zinnia-tools/Products/software/UPDI4AVR-USB/src/nvmv0.cpp:127
    else if (m_type == 0xB0) {
      /* MTYPE_FLASH_PAGE (PROGMEM) */
      _wAddr += Device_Descriptor.UPDI.prog_base;
    }
    if (bit_is_set(PGCONF, PGCONF_PROG_bp)
     && UPDI::recv_bytes_block(_wAddr, _wLength))
     fb8:	90 e0       	ldi	r25, 0x00	; 0
     fba:	80 e0       	ldi	r24, 0x00	; 0
     fbc:	ae 01       	movw	r20, r28
     fbe:	4e df       	rcall	.-356    	; 0xe5c <UPDI::recv_bytes_block(unsigned long, unsigned int)>
/Users/askn/Documents/Zinnia-tools/Products/software/UPDI4AVR-USB/src/nvmv0.cpp:128
      return _wLength + 1;
     fc0:	88 23       	and	r24, r24
     fc2:	39 f3       	breq	.-50     	; 0xf92 <NVM::V0::read_memory()+0x1e>
     fc4:	ce 01       	movw	r24, r28
/Users/askn/Documents/Zinnia-tools/Products/software/UPDI4AVR-USB/src/tpi.cpp:50
      loop_until_bit_is_clear(TCLK_IN, TCLK_bp);
    }
  }

  bool recv (void) {
    loop_until_bit_is_set(USART0_STATUS, USART_RXCIF_bp);
     fc6:	01 96       	adiw	r24, 0x01	; 1
     fc8:	e6 cf       	rjmp	.-52     	; 0xf96 <NVM::V0::read_memory()+0x22>

00000fca <TPI::recv()>:
recv():
     fca:	80 91 04 08 	lds	r24, 0x0804	; 0x800804 <__TEXT_REGION_LENGTH__+0x7f0804>
/Users/askn/Documents/Zinnia-tools/Products/software/UPDI4AVR-USB/src/tpi.cpp:51
    RXSTAT = USART0_RXDATAH ^ 0x80;
     fce:	87 ff       	sbrs	r24, 7
     fd0:	fc cf       	rjmp	.-8      	; 0xfca <TPI::recv()>
     fd2:	80 91 01 08 	lds	r24, 0x0801	; 0x800801 <__TEXT_REGION_LENGTH__+0x7f0801>
/Users/askn/Documents/Zinnia-tools/Products/software/UPDI4AVR-USB/src/tpi.cpp:52
    RXDATA = USART0_RXDATAL;
     fd6:	80 58       	subi	r24, 0x80	; 128
     fd8:	8e bb       	out	0x1e, r24	; 30
/Users/askn/Documents/Zinnia-tools/Products/software/UPDI4AVR-USB/src/tpi.cpp:53
    return RXSTAT == 0;
     fda:	80 91 00 08 	lds	r24, 0x0800	; 0x800800 <__TEXT_REGION_LENGTH__+0x7f0800>
     fde:	8f bb       	out	0x1f, r24	; 31
/Users/askn/Documents/Zinnia-tools/Products/software/UPDI4AVR-USB/src/tpi.cpp:54
  }
     fe0:	9e b3       	in	r25, 0x1e	; 30
/Users/askn/Documents/Zinnia-tools/Products/software/UPDI4AVR-USB/src/tpi.cpp:56

  bool send (const uint8_t _data) {
     fe2:	81 e0       	ldi	r24, 0x01	; 1
     fe4:	91 11       	cpse	r25, r1
/Users/askn/Documents/Zinnia-tools/Products/software/UPDI4AVR-USB/src/tpi.cpp:57
    loop_until_bit_is_set(USART0_STATUS, USART_DREIF_bp);
     fe6:	80 e0       	ldi	r24, 0x00	; 0
     fe8:	08 95       	ret

00000fea <TPI::send(unsigned char)>:
send():
     fea:	cf 93       	push	r28
/Users/askn/Documents/Zinnia-tools/Products/software/UPDI4AVR-USB/src/tpi.cpp:58
    USART0_TXDATAL = _data;
     fec:	c8 2f       	mov	r28, r24
     fee:	80 91 04 08 	lds	r24, 0x0804	; 0x800804 <__TEXT_REGION_LENGTH__+0x7f0804>
/Users/askn/Documents/Zinnia-tools/Products/software/UPDI4AVR-USB/src/tpi.cpp:59
    return (recv() && _data == RXDATA);
     ff2:	85 ff       	sbrs	r24, 5
     ff4:	fc cf       	rjmp	.-8      	; 0xfee <TPI::send(unsigned char)+0x4>
     ff6:	c0 93 02 08 	sts	0x0802, r28	; 0x800802 <__TEXT_REGION_LENGTH__+0x7f0802>
     ffa:	e7 df       	rcall	.-50     	; 0xfca <TPI::recv()>
/Users/askn/Documents/Zinnia-tools/Products/software/UPDI4AVR-USB/src/tpi.cpp:60
  }
     ffc:	88 23       	and	r24, r24
     ffe:	21 f0       	breq	.+8      	; 0x1008 <TPI::send(unsigned char)+0x1e>
/Users/askn/Documents/Zinnia-tools/Products/software/UPDI4AVR-USB/src/tpi.cpp:99
  bool nvm_wait (void) {
    while (get_sin(0x62) && RXDATA);  /* NVMCSR_REG: IO=0x32 */
    return true;
  }

  bool nvm_ctrl (const uint8_t _nvmcmd) {
    1000:	9f b3       	in	r25, 0x1f	; 31
/Users/askn/Documents/Zinnia-tools/Products/software/UPDI4AVR-USB/src/tpi.cpp:73
  bool set_sstcs (const uint8_t _addr, const uint8_t _data) {
    return (send(0xC0 | _addr) && send(_data));
  }

  bool set_sout (const uint8_t _addr, const uint8_t _data) {
    return (send(0x90 | _addr) && send(_data));
    1002:	81 e0       	ldi	r24, 0x01	; 1
    1004:	9c 13       	cpse	r25, r28
    1006:	80 e0       	ldi	r24, 0x00	; 0
    1008:	cf 91       	pop	r28
/Users/askn/Documents/Zinnia-tools/Products/software/UPDI4AVR-USB/src/tpi.cpp:69
  bool get_sldcs (const uint8_t _addr) {
    return (send(0x80 | _addr) && recv());
  }

  bool set_sstcs (const uint8_t _addr, const uint8_t _data) {
    return (send(0xC0 | _addr) && send(_data));
    100a:	08 95       	ret

0000100c <TPI::nvm_ctrl(unsigned char)>:
nvm_ctrl():
    100c:	cf 93       	push	r28
    100e:	c8 2f       	mov	r28, r24
set_sout():
/Users/askn/Documents/Zinnia-tools/Products/software/UPDI4AVR-USB/src/tpi.cpp:101
    return true;
  }

  bool nvm_ctrl (const uint8_t _nvmcmd) {
    return set_sout(0x63, _nvmcmd);   /* NVMCMD_REG: IO=0x33 */
  }
    1010:	83 ef       	ldi	r24, 0xF3	; 243
    1012:	eb df       	rcall	.-42     	; 0xfea <TPI::send(unsigned char)>
    1014:	88 23       	and	r24, r24
/Users/askn/Documents/Zinnia-tools/Products/software/UPDI4AVR-USB/src/tpi.cpp:77
  bool set_sout (const uint8_t _addr, const uint8_t _data) {
    return (send(0x90 | _addr) && send(_data));
  }

  bool get_sin (const uint8_t _addr) {
    return (send(0x10 | _addr) && recv());
    1016:	19 f0       	breq	.+6      	; 0x101e <TPI::nvm_ctrl(unsigned char)+0x12>
    1018:	8c 2f       	mov	r24, r28
nvm_ctrl():
    101a:	cf 91       	pop	r28
set_sout():
    101c:	e6 cf       	rjmp	.-52     	; 0xfea <TPI::send(unsigned char)>
nvm_ctrl():
/Users/askn/Documents/Zinnia-tools/Products/software/UPDI4AVR-USB/src/tpi.cpp:65
  }

  /*** TPI control and CSS area command ***/

  bool get_sldcs (const uint8_t _addr) {
    return (send(0x80 | _addr) && recv());
    101e:	80 e0       	ldi	r24, 0x00	; 0
    1020:	cf 91       	pop	r28
    1022:	08 95       	ret

00001024 <TPI::nvm_wait()>:
get_sin():
    1024:	82 e7       	ldi	r24, 0x72	; 114
/Users/askn/Documents/Zinnia-tools/Products/software/UPDI4AVR-USB/src/tpi.cpp:95
  }

  /*** NVM control ****/

  bool nvm_wait (void) {
    while (get_sin(0x62) && RXDATA);  /* NVMCSR_REG: IO=0x32 */
    1026:	e1 df       	rcall	.-62     	; 0xfea <TPI::send(unsigned char)>
    1028:	88 23       	and	r24, r24
    102a:	31 f0       	breq	.+12     	; 0x1038 <TPI::nvm_wait()+0x14>
/Users/askn/Documents/Zinnia-tools/Products/software/UPDI4AVR-USB/src/tpi.cpp:97
    return true;
  }
    102c:	ce df       	rcall	.-100    	; 0xfca <TPI::recv()>
    102e:	88 23       	and	r24, r24
/Users/askn/Documents/Zinnia-tools/Products/software/UPDI4AVR-USB/src/tpi.cpp:88

  bool get_sld (void) {
    return (send(0x24) && recv());
  }

  bool set_sst (const uint8_t _data) {
    1030:	19 f0       	breq	.+6      	; 0x1038 <TPI::nvm_wait()+0x14>
nvm_wait():
    1032:	8f b3       	in	r24, 0x1f	; 31
/Users/askn/Documents/Zinnia-tools/Products/software/UPDI4AVR-USB/src/tpi.cpp:89
    return (send(0x64) && send(_data));
    1034:	81 11       	cpse	r24, r1
    1036:	f6 cf       	rjmp	.-20     	; 0x1024 <TPI::nvm_wait()>
    1038:	81 e0       	ldi	r24, 0x01	; 1
    103a:	08 95       	ret

0000103c <TPI::set_sst(unsigned char)>:
set_sst():
    103c:	cf 93       	push	r28
/Users/askn/Documents/Zinnia-tools/Products/software/UPDI4AVR-USB/src/tpi.cpp:69
  bool get_sldcs (const uint8_t _addr) {
    return (send(0x80 | _addr) && recv());
  }

  bool set_sstcs (const uint8_t _addr, const uint8_t _data) {
    return (send(0xC0 | _addr) && send(_data));
    103e:	c8 2f       	mov	r28, r24
/Users/askn/Documents/Zinnia-tools/Products/software/UPDI4AVR-USB/src/tpi.cpp:90
    return (send(0x24) && recv());
  }

  bool set_sst (const uint8_t _data) {
    return (send(0x64) && send(_data));
  }
    1040:	84 e6       	ldi	r24, 0x64	; 100
/Users/askn/Documents/Zinnia-tools/Products/software/UPDI4AVR-USB/src/tpi.cpp:69
  bool get_sldcs (const uint8_t _addr) {
    return (send(0x80 | _addr) && recv());
  }

  bool set_sstcs (const uint8_t _addr, const uint8_t _data) {
    return (send(0xC0 | _addr) && send(_data));
    1042:	d3 df       	rcall	.-90     	; 0xfea <TPI::send(unsigned char)>
    1044:	88 23       	and	r24, r24
/Users/askn/Documents/Zinnia-tools/Products/software/UPDI4AVR-USB/src/tpi.cpp:90
    return (send(0x24) && recv());
  }

  bool set_sst (const uint8_t _data) {
    return (send(0x64) && send(_data));
  }
    1046:	19 f0       	breq	.+6      	; 0x104e <TPI::set_sst(unsigned char)+0x12>
    1048:	8c 2f       	mov	r24, r28
    104a:	cf 91       	pop	r28
/Users/askn/Documents/Zinnia-tools/Products/software/UPDI4AVR-USB/src/tpi.cpp:85
  bool set_sstpr (const uint16_t _addr) {
    return (send(0x68) && send(_addr & 0xFF) && send(0x69) && send(_addr >> 8));
  }

  bool get_sld (void) {
    return (send(0x24) && recv());
    104c:	ce cf       	rjmp	.-100    	; 0xfea <TPI::send(unsigned char)>
    104e:	80 e0       	ldi	r24, 0x00	; 0
    1050:	cf 91       	pop	r28
    1052:	08 95       	ret

00001054 <TPI::get_sld()>:
get_sld():
/Users/askn/Documents/Zinnia-tools/Products/software/UPDI4AVR-USB/src/tpi.cpp:65
  }

  /*** TPI control and CSS area command ***/

  bool get_sldcs (const uint8_t _addr) {
    return (send(0x80 | _addr) && recv());
    1054:	84 e2       	ldi	r24, 0x24	; 36
    1056:	c9 df       	rcall	.-110    	; 0xfea <TPI::send(unsigned char)>
/Users/askn/Documents/Zinnia-tools/Products/software/UPDI4AVR-USB/src/tpi.cpp:86
    return (send(0x68) && send(_addr & 0xFF) && send(0x69) && send(_addr >> 8));
  }

  bool get_sld (void) {
    return (send(0x24) && recv());
  }
    1058:	81 11       	cpse	r24, r1
    105a:	b7 cf       	rjmp	.-146    	; 0xfca <TPI::recv()>
/Users/askn/Documents/Zinnia-tools/Products/software/UPDI4AVR-USB/src/tpi.cpp:80

  bool get_sin (const uint8_t _addr) {
    return (send(0x10 | _addr) && recv());
  }

  bool set_sstpr (const uint16_t _addr) {
    105c:	80 e0       	ldi	r24, 0x00	; 0
    105e:	08 95       	ret

00001060 <TPI::set_sstpr(unsigned int)>:
set_sstpr():
    1060:	cf 93       	push	r28
    1062:	df 93       	push	r29
/Users/askn/Documents/Zinnia-tools/Products/software/UPDI4AVR-USB/src/tpi.cpp:81
    return (send(0x68) && send(_addr & 0xFF) && send(0x69) && send(_addr >> 8));
    1064:	d8 2f       	mov	r29, r24
    1066:	c9 2f       	mov	r28, r25
    1068:	88 e6       	ldi	r24, 0x68	; 104
    106a:	bf df       	rcall	.-130    	; 0xfea <TPI::send(unsigned char)>
    106c:	88 23       	and	r24, r24
    106e:	61 f0       	breq	.+24     	; 0x1088 <TPI::set_sstpr(unsigned int)+0x28>
    1070:	8d 2f       	mov	r24, r29
    1072:	bb df       	rcall	.-138    	; 0xfea <TPI::send(unsigned char)>
    1074:	88 23       	and	r24, r24
    1076:	41 f0       	breq	.+16     	; 0x1088 <TPI::set_sstpr(unsigned int)+0x28>
    1078:	89 e6       	ldi	r24, 0x69	; 105
    107a:	b7 df       	rcall	.-146    	; 0xfea <TPI::send(unsigned char)>
    107c:	88 23       	and	r24, r24
    107e:	21 f0       	breq	.+8      	; 0x1088 <TPI::set_sstpr(unsigned int)+0x28>
    1080:	8c 2f       	mov	r24, r28
    1082:	df 91       	pop	r29
/Users/askn/Documents/Zinnia-tools/Products/software/UPDI4AVR-USB/src/tpi.cpp:82
  }
    1084:	cf 91       	pop	r28
    1086:	b1 cf       	rjmp	.-158    	; 0xfea <TPI::send(unsigned char)>
/Users/askn/Documents/Zinnia-tools/Products/software/UPDI4AVR-USB/src/tpi.cpp:81
  bool get_sin (const uint8_t _addr) {
    return (send(0x10 | _addr) && recv());
  }

  bool set_sstpr (const uint16_t _addr) {
    return (send(0x68) && send(_addr & 0xFF) && send(0x69) && send(_addr >> 8));
    1088:	80 e0       	ldi	r24, 0x00	; 0
    108a:	df 91       	pop	r29
/Users/askn/Documents/Zinnia-tools/Products/software/UPDI4AVR-USB/src/tpi.cpp:82
  }
    108c:	cf 91       	pop	r28
    108e:	08 95       	ret

00001090 <TPI::idle_clock(unsigned int)>:
idle_clock():
    1090:	30 e0       	ldi	r19, 0x00	; 0
    1092:	20 e0       	ldi	r18, 0x00	; 0
/Users/askn/Documents/Zinnia-tools/Products/software/UPDI4AVR-USB/src/tpi.cpp:43
  const static uint8_t nvmprog_key[] = {
    0xE0, 0xFF, 0x88, 0xD8, 0xCD, 0x45, 0xAB, 0x89, 0x12
  };

  void idle_clock (const size_t clock) {
    for (size_t i = 0; i < clock; i++) {
    1094:	40 91 08 04 	lds	r20, 0x0408	; 0x800408 <__TEXT_REGION_LENGTH__+0x7f0408>
/Users/askn/Documents/Zinnia-tools/Products/software/UPDI4AVR-USB/src/tpi.cpp:44
      loop_until_bit_is_set(TCLK_IN, TCLK_bp);
    1098:	42 ff       	sbrs	r20, 2
    109a:	fc cf       	rjmp	.-8      	; 0x1094 <TPI::idle_clock(unsigned int)+0x4>
    109c:	40 91 08 04 	lds	r20, 0x0408	; 0x800408 <__TEXT_REGION_LENGTH__+0x7f0408>
/Users/askn/Documents/Zinnia-tools/Products/software/UPDI4AVR-USB/src/tpi.cpp:45
      loop_until_bit_is_clear(TCLK_IN, TCLK_bp);
    10a0:	42 fd       	sbrc	r20, 2
    10a2:	fc cf       	rjmp	.-8      	; 0x109c <TPI::idle_clock(unsigned int)+0xc>
    10a4:	2f 5f       	subi	r18, 0xFF	; 255
    10a6:	3f 4f       	sbci	r19, 0xFF	; 255
/Users/askn/Documents/Zinnia-tools/Products/software/UPDI4AVR-USB/src/tpi.cpp:43
  const static uint8_t nvmprog_key[] = {
    0xE0, 0xFF, 0x88, 0xD8, 0xCD, 0x45, 0xAB, 0x89, 0x12
  };

  void idle_clock (const size_t clock) {
    for (size_t i = 0; i < clock; i++) {
    10a8:	82 17       	cp	r24, r18
    10aa:	93 07       	cpc	r25, r19
    10ac:	99 f7       	brne	.-26     	; 0x1094 <TPI::idle_clock(unsigned int)+0x4>
    10ae:	08 95       	ret

000010b0 <SYS::is_boundary_flash_page(unsigned long)>:
is_boundary_flash_page():
    10b0:	cf 92       	push	r12
/Users/askn/Documents/Zinnia-tools/Products/software/UPDI4AVR-USB/src/tpi.cpp:47
      loop_until_bit_is_set(TCLK_IN, TCLK_bp);
      loop_until_bit_is_clear(TCLK_IN, TCLK_bp);
    }
  }
    10b2:	df 92       	push	r13
/Users/askn/Documents/Zinnia-tools/Products/software/UPDI4AVR-USB/src/sys.cpp:315
   * Flash memory boundary check
   *
   * True when a page area address different from the previous time is detected.
   * Indicates the need to erase a page in FLASH/USERROW/BOOTROW of the AVR-Dx series.
   */
  bool is_boundary_flash_page (uint32_t _dwAddr) {
    10b4:	ef 92       	push	r14
    10b6:	ff 92       	push	r15
    10b8:	ab 01       	movw	r20, r22
    10ba:	bc 01       	movw	r22, r24
    10bc:	80 91 cb 60 	lds	r24, 0x60CB	; 0x8060cb <Device_Descriptor+0x2d>
/Users/askn/Documents/Zinnia-tools/Products/software/UPDI4AVR-USB/src/sys.cpp:316
    uint32_t _mask = ~(((uint16_t)Device_Descriptor.UPDI.flash_page_size_msb << 8)
    10c0:	28 2f       	mov	r18, r24
    10c2:	30 e0       	ldi	r19, 0x00	; 0
    10c4:	32 2f       	mov	r19, r18
    10c6:	22 27       	eor	r18, r18
    10c8:	80 91 a0 60 	lds	r24, 0x60A0	; 0x8060a0 <Device_Descriptor+0x2>
/Users/askn/Documents/Zinnia-tools/Products/software/UPDI4AVR-USB/src/sys.cpp:317
                                + Device_Descriptor.UPDI.flash_page_size - 1);
    10cc:	82 0f       	add	r24, r18
    10ce:	93 2f       	mov	r25, r19
    10d0:	91 1d       	adc	r25, r1
    10d2:	91 95       	neg	r25
    10d4:	81 95       	neg	r24
/Users/askn/Documents/Zinnia-tools/Products/software/UPDI4AVR-USB/src/sys.cpp:316
   *
   * True when a page area address different from the previous time is detected.
   * Indicates the need to erase a page in FLASH/USERROW/BOOTROW of the AVR-Dx series.
   */
  bool is_boundary_flash_page (uint32_t _dwAddr) {
    uint32_t _mask = ~(((uint16_t)Device_Descriptor.UPDI.flash_page_size_msb << 8)
    10d6:	91 09       	sbc	r25, r1
    10d8:	b0 e0       	ldi	r27, 0x00	; 0
    10da:	a0 e0       	ldi	r26, 0x00	; 0
    10dc:	84 23       	and	r24, r20
    10de:	95 23       	and	r25, r21
/Users/askn/Documents/Zinnia-tools/Products/software/UPDI4AVR-USB/src/sys.cpp:318
                                + Device_Descriptor.UPDI.flash_page_size - 1);
    uint32_t _after_page = _dwAddr & _mask;
    10e0:	a6 23       	and	r26, r22
    10e2:	b7 23       	and	r27, r23
    10e4:	21 e0       	ldi	r18, 0x01	; 1
    10e6:	c0 90 ea 62 	lds	r12, 0x62EA	; 0x8062ea <_before_page>
/Users/askn/Documents/Zinnia-tools/Products/software/UPDI4AVR-USB/src/sys.cpp:319
    bool _result = _before_page != _after_page;
    10ea:	d0 90 eb 62 	lds	r13, 0x62EB	; 0x8062eb <_before_page+0x1>
    10ee:	e0 90 ec 62 	lds	r14, 0x62EC	; 0x8062ec <_before_page+0x2>
    10f2:	f0 90 ed 62 	lds	r15, 0x62ED	; 0x8062ed <_before_page+0x3>
    10f6:	c8 16       	cp	r12, r24
    10f8:	d9 06       	cpc	r13, r25
    10fa:	ea 06       	cpc	r14, r26
    10fc:	fb 06       	cpc	r15, r27
    10fe:	09 f4       	brne	.+2      	; 0x1102 <SYS::is_boundary_flash_page(unsigned long)+0x52>
    1100:	20 e0       	ldi	r18, 0x00	; 0
    1102:	80 93 ea 62 	sts	0x62EA, r24	; 0x8062ea <_before_page>
/Users/askn/Documents/Zinnia-tools/Products/software/UPDI4AVR-USB/src/sys.cpp:320
    _before_page = _after_page;
    1106:	90 93 eb 62 	sts	0x62EB, r25	; 0x8062eb <_before_page+0x1>
    110a:	a0 93 ec 62 	sts	0x62EC, r26	; 0x8062ec <_before_page+0x2>
    110e:	b0 93 ed 62 	sts	0x62ED, r27	; 0x8062ed <_before_page+0x3>
    1112:	82 2f       	mov	r24, r18
/Users/askn/Documents/Zinnia-tools/Products/software/UPDI4AVR-USB/src/sys.cpp:322
    return _result;
  }
    1114:	ff 90       	pop	r15
    1116:	ef 90       	pop	r14
    1118:	df 90       	pop	r13
    111a:	cf 90       	pop	r12
    111c:	08 95       	ret

0000111e <SYS::LED_Flash()>:
LED_TCB1():
/Users/askn/Documents/Zinnia-tools/Products/software/UPDI4AVR-USB/src/sys.cpp:198
      _led_mode = 1;
    }
  }

  void LED_TCB1 (uint8_t _mode, uint16_t _ccmp) {
    if (_led_mode != _mode) {
    111e:	80 91 85 60 	lds	r24, 0x6085	; 0x806085 <_led_mode>
    1122:	82 30       	cpi	r24, 0x02	; 2
/Users/askn/Documents/Zinnia-tools/Products/software/UPDI4AVR-USB/src/sys.cpp:199
      TCA0_SPLIT_CTRLA = 0;
    1124:	81 f0       	breq	.+32     	; 0x1146 <SYS::LED_Flash()+0x28>
    1126:	10 92 00 0a 	sts	0x0A00, r1	; 0x800a00 <__TEXT_REGION_LENGTH__+0x7f0a00>
/Users/askn/Documents/Zinnia-tools/Products/software/UPDI4AVR-USB/src/sys.cpp:200
      TCB1_CNTL = 0;
    112a:	10 92 1a 0b 	sts	0x0B1A, r1	; 0x800b1a <__TEXT_REGION_LENGTH__+0x7f0b1a>
/Users/askn/Documents/Zinnia-tools/Products/software/UPDI4AVR-USB/src/sys.cpp:201
      TCB1_CCMP = _ccmp;
    112e:	89 ea       	ldi	r24, 0xA9	; 169
    1130:	95 e0       	ldi	r25, 0x05	; 5
    1132:	80 93 1c 0b 	sts	0x0B1C, r24	; 0x800b1c <__TEXT_REGION_LENGTH__+0x7f0b1c>
/Users/askn/Documents/Zinnia-tools/Products/software/UPDI4AVR-USB/src/sys.cpp:202
      TCB1_CTRLA = TCB_RUNSTDBY_bm | TCB_ENABLE_bm | TCB_CLKSEL_EVENT_gc;
    1136:	90 93 1d 0b 	sts	0x0B1D, r25	; 0x800b1d <__TEXT_REGION_LENGTH__+0x7f0b1d>
    113a:	8f e4       	ldi	r24, 0x4F	; 79
/Users/askn/Documents/Zinnia-tools/Products/software/UPDI4AVR-USB/src/sys.cpp:203
      _led_mode = _mode;
    113c:	80 93 10 0b 	sts	0x0B10, r24	; 0x800b10 <__TEXT_REGION_LENGTH__+0x7f0b10>
/Users/askn/Documents/Zinnia-tools/Products/software/UPDI4AVR-USB/src/sys.cpp:216
     * Restarting TCBn in PWM8 mode may cause the duty
     * cycle of TCBn_WO to invert. Solution unknown.
     * This function is affected.
     */
    LED_TCB1(2, TCB1_FLASH);
  }
    1140:	82 e0       	ldi	r24, 0x02	; 2
/Users/askn/Documents/Zinnia-tools/Products/software/UPDI4AVR-USB/src/sys.cpp:188
  * LED operation switching
  */

  /* Heartbeat (waiting) */
  void LED_HeartBeat (void) {
    if (_led_mode != 1) {
    1142:	80 93 85 60 	sts	0x6085, r24	; 0x806085 <_led_mode>
LED_Flash():
    1146:	08 95       	ret

00001148 <SYS::LED_HeartBeat()>:
LED_HeartBeat():
    1148:	80 91 85 60 	lds	r24, 0x6085	; 0x806085 <_led_mode>
/Users/askn/Documents/Zinnia-tools/Products/software/UPDI4AVR-USB/src/sys.cpp:189
      TCA0_SPLIT_CTRLA = TCA_SPLIT_ENABLE_bm | TCA_SPLIT_CLKSEL_DIV1024_gc;
    114c:	81 30       	cpi	r24, 0x01	; 1
/Users/askn/Documents/Zinnia-tools/Products/software/UPDI4AVR-USB/src/sys.cpp:190
      TCB1_CNTL = 0;
    114e:	89 f0       	breq	.+34     	; 0x1172 <SYS::LED_HeartBeat()+0x2a>
    1150:	8f e0       	ldi	r24, 0x0F	; 15
/Users/askn/Documents/Zinnia-tools/Products/software/UPDI4AVR-USB/src/sys.cpp:191
      TCB1_CCMP = TCB1_HBEAT;
    1152:	80 93 00 0a 	sts	0x0A00, r24	; 0x800a00 <__TEXT_REGION_LENGTH__+0x7f0a00>
    1156:	10 92 1a 0b 	sts	0x0B1A, r1	; 0x800b1a <__TEXT_REGION_LENGTH__+0x7f0b1a>
/Users/askn/Documents/Zinnia-tools/Products/software/UPDI4AVR-USB/src/sys.cpp:192
      TCB1_CTRLA = TCB_RUNSTDBY_bm | TCB_ENABLE_bm | TCB_CLKSEL_TCA0_gc;
    115a:	84 ec       	ldi	r24, 0xC4	; 196
    115c:	92 e6       	ldi	r25, 0x62	; 98
/Users/askn/Documents/Zinnia-tools/Products/software/UPDI4AVR-USB/src/sys.cpp:193
      _led_mode = 1;
    115e:	80 93 1c 0b 	sts	0x0B1C, r24	; 0x800b1c <__TEXT_REGION_LENGTH__+0x7f0b1c>
/Users/askn/Documents/Zinnia-tools/Products/software/UPDI4AVR-USB/src/sys.cpp:195
    }
  }
    1162:	90 93 1d 0b 	sts	0x0B1D, r25	; 0x800b1d <__TEXT_REGION_LENGTH__+0x7f0b1d>
/Users/askn/Documents/Zinnia-tools/Products/software/UPDI4AVR-USB/src/nvmv3.cpp:55
  constexpr auto NVM_STATUS = 0x1006;
  constexpr auto PROD_SIG   = 0x1100;
  constexpr auto PROG_START = 0x800000;

  uint8_t nvm_wait (void) {
    do { UPDI::recv_byte(NVM_STATUS); } while (RXDATA & 3);
    1166:	85 e4       	ldi	r24, 0x45	; 69
    1168:	80 93 10 0b 	sts	0x0B10, r24	; 0x800b10 <__TEXT_REGION_LENGTH__+0x7f0b10>
    116c:	81 e0       	ldi	r24, 0x01	; 1
    116e:	80 93 85 60 	sts	0x6085, r24	; 0x806085 <_led_mode>
    1172:	08 95       	ret

00001174 <NVM::V3::nvm_wait()>:
nvm_wait():
/Users/askn/Documents/Zinnia-tools/Products/software/UPDI4AVR-USB/src/nvmv3.cpp:56
    return RXDATA;
    1174:	66 e0       	ldi	r22, 0x06	; 6
/Users/askn/Documents/Zinnia-tools/Products/software/UPDI4AVR-USB/src/nvmv3.cpp:57
  }
    1176:	70 e1       	ldi	r23, 0x10	; 16
/Users/askn/Documents/Zinnia-tools/Products/software/UPDI4AVR-USB/src/nvmv3.cpp:73
    D2PRINTF(" NVM_V3_FLPERW=%06lX\r\n", _dwAddr);
    return (
      nvm_ctrl_change(0x00)
      && UPDI::send_words_block(_dwAddr, _wLength)
      && nvm_ctrl_change(0x05)  /* NVM_V3_CMD_FLPERW */
      && (nvm_wait() & 0x73) == 0
    1178:	80 e0       	ldi	r24, 0x00	; 0
    117a:	90 e0       	ldi	r25, 0x00	; 0
    117c:	4b dd       	rcall	.-1386   	; 0xc14 <UPDI::recv_byte(unsigned long)>
    117e:	8f b3       	in	r24, 0x1f	; 31
    1180:	83 70       	andi	r24, 0x03	; 3
    1182:	c1 f7       	brne	.-16     	; 0x1174 <NVM::V3::nvm_wait()>
/Users/askn/Documents/Zinnia-tools/Products/software/UPDI4AVR-USB/src/nvmv3.cpp:59
  uint8_t nvm_wait (void) {
    do { UPDI::recv_byte(NVM_STATUS); } while (RXDATA & 3);
    return RXDATA;
  }

  bool nvm_ctrl_change (uint8_t _nvmcmd) {
    1184:	8f b3       	in	r24, 0x1f	; 31
    1186:	08 95       	ret

00001188 <NVM::V3::write_eeprom(unsigned long, unsigned int) [clone .part.3]>:
_ZN3NVM2V317write_words_flashEmj.part.1():
/Users/askn/Documents/Zinnia-tools/Products/software/UPDI4AVR-USB/src/nvmv3.cpp:60
    nvm_wait();
    1188:	f5 df       	rcall	.-22     	; 0x1174 <NVM::V3::nvm_wait()>
    118a:	98 2f       	mov	r25, r24
/Users/askn/Documents/Zinnia-tools/Products/software/UPDI4AVR-USB/src/nvmv3.cpp:61
    if (UPDI::recv_byte(NVM_CTRL) && RXDATA == _nvmcmd) return true;
    118c:	93 77       	andi	r25, 0x73	; 115
    118e:	81 e0       	ldi	r24, 0x01	; 1
    1190:	09 f0       	breq	.+2      	; 0x1194 <NVM::V3::write_eeprom(unsigned long, unsigned int) [clone .part.3]+0xc>
    1192:	80 e0       	ldi	r24, 0x00	; 0
    1194:	08 95       	ret

00001196 <NVM::V3::nvm_ctrl_change(unsigned char)>:
nvm_ctrl_change():
    1196:	cf 93       	push	r28
    1198:	c8 2f       	mov	r28, r24
    119a:	ec df       	rcall	.-40     	; 0x1174 <NVM::V3::nvm_wait()>
    119c:	60 e0       	ldi	r22, 0x00	; 0
    119e:	70 e1       	ldi	r23, 0x10	; 16
    11a0:	80 e0       	ldi	r24, 0x00	; 0
/Users/askn/Documents/Zinnia-tools/Products/software/UPDI4AVR-USB/src/nvmv3.cpp:65
    if (!UPDI::nvm_ctrl(0x00)) return false;
    if (0 != _nvmcmd) return UPDI::nvm_ctrl(_nvmcmd);
    return true;
  }
    11a2:	90 e0       	ldi	r25, 0x00	; 0
    11a4:	37 dd       	rcall	.-1426   	; 0xc14 <UPDI::recv_byte(unsigned long)>
/Users/askn/Documents/Zinnia-tools/Products/software/UPDI4AVR-USB/src/nvmv3.cpp:62
  }

  bool nvm_ctrl_change (uint8_t _nvmcmd) {
    nvm_wait();
    if (UPDI::recv_byte(NVM_CTRL) && RXDATA == _nvmcmd) return true;
    if (!UPDI::nvm_ctrl(0x00)) return false;
    11a6:	88 23       	and	r24, r24
    11a8:	31 f0       	breq	.+12     	; 0x11b6 <NVM::V3::nvm_ctrl_change(unsigned char)+0x20>
    11aa:	8f b3       	in	r24, 0x1f	; 31
    11ac:	8c 13       	cpse	r24, r28
    11ae:	03 c0       	rjmp	.+6      	; 0x11b6 <NVM::V3::nvm_ctrl_change(unsigned char)+0x20>
/Users/askn/Documents/Zinnia-tools/Products/software/UPDI4AVR-USB/src/nvmv2.cpp:65

  bool nvm_ctrl_change (uint8_t _nvmcmd) {
    nvm_wait();
    if (UPDI::recv_byte(NVM_CTRL) && RXDATA == _nvmcmd) return true;
    if (!UPDI::nvm_ctrl(0x00)) return false;
    if (0 != _nvmcmd) return UPDI::nvm_ctrl(_nvmcmd);
    11b0:	81 e0       	ldi	r24, 0x01	; 1
    11b2:	cf 91       	pop	r28
    11b4:	08 95       	ret
    if (0 != _nvmcmd) return UPDI::nvm_ctrl(_nvmcmd);
    return true;
  }
    11b6:	80 e0       	ldi	r24, 0x00	; 0
    11b8:	dd dd       	rcall	.-1094   	; 0xd74 <UPDI::nvm_ctrl(unsigned char)>
/Users/askn/Documents/Zinnia-tools/Products/software/UPDI4AVR-USB/src/nvmv4.cpp:116
      && nvm_ctrl_change(0x00)
    );
  }

  size_t prog_init (void) {
    return nvm_ctrl_change(0x00);
    11ba:	88 23       	and	r24, r24
    11bc:	d1 f3       	breq	.-12     	; 0x11b2 <NVM::V3::nvm_ctrl_change(unsigned char)+0x1c>
    11be:	cc 23       	and	r28, r28
/Users/askn/Documents/Zinnia-tools/Products/software/UPDI4AVR-USB/src/nvmv4.cpp:117
  }
    11c0:	b9 f3       	breq	.-18     	; 0x11b0 <NVM::V3::nvm_ctrl_change(unsigned char)+0x1a>
/Users/askn/Documents/Zinnia-tools/Products/software/UPDI4AVR-USB/src/nvmv4.cpp:78
    D2PRINTF(" NVM_V4_FLPER=%06lX\r\n", _dwAddr);
    return (
      nvm_ctrl_change(0x08)   /* NVM_V4_CMD_FLPER */
      && UPDI::send_byte(_dwAddr, 0xFF)
      && (nvm_wait() & 0x73) == 0
      && nvm_ctrl_change(0x00)
    11c2:	8c 2f       	mov	r24, r28
    11c4:	cf 91       	pop	r28
    11c6:	d6 cd       	rjmp	.-1108   	; 0xd74 <UPDI::nvm_ctrl(unsigned char)>

000011c8 <NVM::V4::prog_init()>:
prog_init():
/Users/askn/Documents/Zinnia-tools/Products/software/UPDI4AVR-USB/src/nvmv3.cpp:98
      && (nvm_wait() & 0x73) == 0
    );
  }

  size_t prog_init (void) {
    nvm_ctrl_change(0x0F);      /* NVM_V3_CMD_FLPBCLR */
    11c8:	80 e0       	ldi	r24, 0x00	; 0
    11ca:	e5 df       	rcall	.-54     	; 0x1196 <NVM::V3::nvm_ctrl_change(unsigned char)>
/Users/askn/Documents/Zinnia-tools/Products/software/UPDI4AVR-USB/src/nvmv3.cpp:99
    nvm_ctrl_change(0x1F);      /* NVM_V3_CMD_EEPBCLR */
    11cc:	90 e0       	ldi	r25, 0x00	; 0
    11ce:	08 95       	ret

000011d0 <NVM::V4::write_eeprom(unsigned long, unsigned int) [clone .part.5]>:
_ZN3NVM2V416erase_flash_pageEm.part.1():
    11d0:	80 e0       	ldi	r24, 0x00	; 0
/Users/askn/Documents/Zinnia-tools/Products/software/UPDI4AVR-USB/src/nvmv3.cpp:100
    return nvm_ctrl_change(0x00);
    11d2:	e1 cf       	rjmp	.-62     	; 0x1196 <NVM::V3::nvm_ctrl_change(unsigned char)>

000011d4 <NVM::V3::prog_init()>:
prog_init():
    11d4:	8f e0       	ldi	r24, 0x0F	; 15
    11d6:	df df       	rcall	.-66     	; 0x1196 <NVM::V3::nvm_ctrl_change(unsigned char)>
/Users/askn/Documents/Zinnia-tools/Products/software/UPDI4AVR-USB/src/nvmv3.cpp:101
  }
    11d8:	8f e1       	ldi	r24, 0x1F	; 31
    11da:	dd df       	rcall	.-70     	; 0x1196 <NVM::V3::nvm_ctrl_change(unsigned char)>
    11dc:	80 e0       	ldi	r24, 0x00	; 0
/Users/askn/Documents/Zinnia-tools/Products/software/UPDI4AVR-USB/src/nvmv3.cpp:77
      && nvm_ctrl_change(0x05)  /* NVM_V3_CMD_FLPERW */
      && (nvm_wait() & 0x73) == 0
    );
  }

  bool write_bytes_flash (uint32_t _dwAddr, size_t _wLength) {
    11de:	db df       	rcall	.-74     	; 0x1196 <NVM::V3::nvm_ctrl_change(unsigned char)>
    11e0:	90 e0       	ldi	r25, 0x00	; 0
    11e2:	08 95       	ret

000011e4 <NVM::V5::prog_init()>:
_ZN3NVM2V59prog_initEv():
    11e4:	f7 cf       	rjmp	.-18     	; 0x11d4 <NVM::V3::prog_init()>

000011e6 <NVM::V3::write_bytes_flash(unsigned long, unsigned int)>:
write_bytes_flash():
    11e6:	cf 92       	push	r12
    11e8:	df 92       	push	r13
    11ea:	ef 92       	push	r14
    11ec:	ff 92       	push	r15
    11ee:	cf 93       	push	r28
/Users/askn/Documents/Zinnia-tools/Products/software/UPDI4AVR-USB/src/nvmv3.cpp:80
    D2PRINTF(" NVM_V3_FLPERW=%06lX\r\n", _dwAddr);
    return (
      nvm_ctrl_change(0x00)
    11f0:	df 93       	push	r29
    11f2:	6b 01       	movw	r12, r22
    11f4:	7c 01       	movw	r14, r24
/Users/askn/Documents/Zinnia-tools/Products/software/UPDI4AVR-USB/src/nvmv3.cpp:83
      && UPDI::send_bytes_block(_dwAddr, _wLength)
      && nvm_ctrl_change(0x05)  /* NVM_V3_CMD_FLPERW */
      && (nvm_wait() & 0x73) == 0
    11f6:	ea 01       	movw	r28, r20
/Users/askn/Documents/Zinnia-tools/Products/software/UPDI4AVR-USB/src/nvmv3.cpp:81

  bool write_bytes_flash (uint32_t _dwAddr, size_t _wLength) {
    D2PRINTF(" NVM_V3_FLPERW=%06lX\r\n", _dwAddr);
    return (
      nvm_ctrl_change(0x00)
      && UPDI::send_bytes_block(_dwAddr, _wLength)
    11f8:	80 e0       	ldi	r24, 0x00	; 0
    11fa:	cd df       	rcall	.-102    	; 0x1196 <NVM::V3::nvm_ctrl_change(unsigned char)>
    11fc:	88 23       	and	r24, r24
    11fe:	89 f0       	breq	.+34     	; 0x1222 <NVM::V3::write_bytes_flash(unsigned long, unsigned int)+0x3c>
    1200:	ae 01       	movw	r20, r28
    1202:	c7 01       	movw	r24, r14
/Users/askn/Documents/Zinnia-tools/Products/software/UPDI4AVR-USB/src/nvmv3.cpp:82
      && nvm_ctrl_change(0x05)  /* NVM_V3_CMD_FLPERW */
    1204:	b6 01       	movw	r22, r12
    1206:	5e dd       	rcall	.-1348   	; 0xcc4 <UPDI::send_bytes_block(unsigned long, unsigned int)>
    1208:	88 23       	and	r24, r24
    120a:	59 f0       	breq	.+22     	; 0x1222 <NVM::V3::write_bytes_flash(unsigned long, unsigned int)+0x3c>
/Users/askn/Documents/Zinnia-tools/Products/software/UPDI4AVR-USB/src/nvmv3.cpp:85
      && (nvm_wait() & 0x73) == 0
    );
  }
    120c:	85 e0       	ldi	r24, 0x05	; 5
    120e:	c3 df       	rcall	.-122    	; 0x1196 <NVM::V3::nvm_ctrl_change(unsigned char)>
    1210:	88 23       	and	r24, r24
    1212:	39 f0       	breq	.+14     	; 0x1222 <NVM::V3::write_bytes_flash(unsigned long, unsigned int)+0x3c>
    1214:	df 91       	pop	r29
    1216:	cf 91       	pop	r28
    1218:	ff 90       	pop	r15
    121a:	ef 90       	pop	r14
    121c:	df 90       	pop	r13
    121e:	cf 90       	pop	r12
    1220:	b3 cf       	rjmp	.-154    	; 0x1188 <NVM::V3::write_eeprom(unsigned long, unsigned int) [clone .part.3]>
    1222:	80 e0       	ldi	r24, 0x00	; 0
    1224:	df 91       	pop	r29
    1226:	cf 91       	pop	r28
/Users/askn/Documents/Zinnia-tools/Products/software/UPDI4AVR-USB/src/nvmv3.cpp:67
    if (!UPDI::nvm_ctrl(0x00)) return false;
    if (0 != _nvmcmd) return UPDI::nvm_ctrl(_nvmcmd);
    return true;
  }

  bool write_words_flash (uint32_t _dwAddr, size_t _wLength) {
    1228:	ff 90       	pop	r15
    122a:	ef 90       	pop	r14
    122c:	df 90       	pop	r13
    122e:	cf 90       	pop	r12
    1230:	08 95       	ret

00001232 <NVM::V3::write_words_flash(unsigned long, unsigned int)>:
write_words_flash():
    1232:	cf 92       	push	r12
/Users/askn/Documents/Zinnia-tools/Products/software/UPDI4AVR-USB/src/nvmv3.cpp:70
    D2PRINTF(" NVM_V3_FLPERW=%06lX\r\n", _dwAddr);
    return (
      nvm_ctrl_change(0x00)
    1234:	df 92       	push	r13
    1236:	ef 92       	push	r14
    1238:	ff 92       	push	r15
/Users/askn/Documents/Zinnia-tools/Products/software/UPDI4AVR-USB/src/nvmv3.cpp:73
      && UPDI::send_words_block(_dwAddr, _wLength)
      && nvm_ctrl_change(0x05)  /* NVM_V3_CMD_FLPERW */
      && (nvm_wait() & 0x73) == 0
    123a:	cf 93       	push	r28
/Users/askn/Documents/Zinnia-tools/Products/software/UPDI4AVR-USB/src/nvmv3.cpp:71

  bool write_words_flash (uint32_t _dwAddr, size_t _wLength) {
    D2PRINTF(" NVM_V3_FLPERW=%06lX\r\n", _dwAddr);
    return (
      nvm_ctrl_change(0x00)
      && UPDI::send_words_block(_dwAddr, _wLength)
    123c:	df 93       	push	r29
    123e:	6b 01       	movw	r12, r22
    1240:	7c 01       	movw	r14, r24
    1242:	ea 01       	movw	r28, r20
    1244:	80 e0       	ldi	r24, 0x00	; 0
    1246:	a7 df       	rcall	.-178    	; 0x1196 <NVM::V3::nvm_ctrl_change(unsigned char)>
/Users/askn/Documents/Zinnia-tools/Products/software/UPDI4AVR-USB/src/nvmv3.cpp:72
      && nvm_ctrl_change(0x05)  /* NVM_V3_CMD_FLPERW */
    1248:	88 23       	and	r24, r24
    124a:	89 f0       	breq	.+34     	; 0x126e <NVM::V3::write_words_flash(unsigned long, unsigned int)+0x3c>
    124c:	ae 01       	movw	r20, r28
    124e:	c7 01       	movw	r24, r14
    1250:	b6 01       	movw	r22, r12
/Users/askn/Documents/Zinnia-tools/Products/software/UPDI4AVR-USB/src/nvmv3.cpp:75
      && (nvm_wait() & 0x73) == 0
    );
  }
    1252:	fa dc       	rcall	.-1548   	; 0xc48 <UPDI::send_words_block(unsigned long, unsigned int)>
    1254:	88 23       	and	r24, r24
    1256:	59 f0       	breq	.+22     	; 0x126e <NVM::V3::write_words_flash(unsigned long, unsigned int)+0x3c>
    1258:	85 e0       	ldi	r24, 0x05	; 5
    125a:	9d df       	rcall	.-198    	; 0x1196 <NVM::V3::nvm_ctrl_change(unsigned char)>
    125c:	88 23       	and	r24, r24
    125e:	39 f0       	breq	.+14     	; 0x126e <NVM::V3::write_words_flash(unsigned long, unsigned int)+0x3c>
    1260:	df 91       	pop	r29
    1262:	cf 91       	pop	r28
    1264:	ff 90       	pop	r15
    1266:	ef 90       	pop	r14
    1268:	df 90       	pop	r13
    126a:	cf 90       	pop	r12
/Users/askn/Documents/Zinnia-tools/Products/software/UPDI4AVR-USB/src/nvmv4.cpp:72
    if (!UPDI::nvm_ctrl(0x00)) return false;
    if (0 != _nvmcmd) return UPDI::nvm_ctrl(_nvmcmd);
    return true;
  }

  bool erase_flash_page (uint32_t _dwAddr) {
    126c:	8d cf       	rjmp	.-230    	; 0x1188 <NVM::V3::write_eeprom(unsigned long, unsigned int) [clone .part.3]>
    126e:	80 e0       	ldi	r24, 0x00	; 0
    1270:	df 91       	pop	r29
    1272:	cf 91       	pop	r28
    1274:	ff 90       	pop	r15
    1276:	ef 90       	pop	r14
/Users/askn/Documents/Zinnia-tools/Products/software/UPDI4AVR-USB/src/nvmv4.cpp:75
    D2PRINTF(" NVM_V4_FLPER=%06lX\r\n", _dwAddr);
    return (
      nvm_ctrl_change(0x08)   /* NVM_V4_CMD_FLPER */
    1278:	df 90       	pop	r13
    127a:	cf 90       	pop	r12
/Users/askn/Documents/Zinnia-tools/Products/software/UPDI4AVR-USB/src/nvmv4.cpp:78
      && UPDI::send_byte(_dwAddr, 0xFF)
      && (nvm_wait() & 0x73) == 0
      && nvm_ctrl_change(0x00)
    127c:	08 95       	ret

0000127e <NVM::V4::erase_flash_page(unsigned long)>:
erase_flash_page():
    127e:	cf 92       	push	r12
/Users/askn/Documents/Zinnia-tools/Products/software/UPDI4AVR-USB/src/nvmv4.cpp:76

  bool erase_flash_page (uint32_t _dwAddr) {
    D2PRINTF(" NVM_V4_FLPER=%06lX\r\n", _dwAddr);
    return (
      nvm_ctrl_change(0x08)   /* NVM_V4_CMD_FLPER */
      && UPDI::send_byte(_dwAddr, 0xFF)
    1280:	df 92       	push	r13
    1282:	ef 92       	push	r14
    1284:	ff 92       	push	r15
    1286:	6b 01       	movw	r12, r22
    1288:	7c 01       	movw	r14, r24
/Users/askn/Documents/Zinnia-tools/Products/software/UPDI4AVR-USB/src/nvmv4.cpp:77
      && (nvm_wait() & 0x73) == 0
    128a:	88 e0       	ldi	r24, 0x08	; 8
    128c:	84 df       	rcall	.-248    	; 0x1196 <NVM::V3::nvm_ctrl_change(unsigned char)>
    128e:	88 23       	and	r24, r24
    1290:	71 f0       	breq	.+28     	; 0x12ae <NVM::V4::erase_flash_page(unsigned long)+0x30>
/Users/askn/Documents/Zinnia-tools/Products/software/UPDI4AVR-USB/src/nvmv4.cpp:80
      && nvm_ctrl_change(0x00)
    );
  }
    1292:	4f ef       	ldi	r20, 0xFF	; 255
    1294:	c7 01       	movw	r24, r14
    1296:	b6 01       	movw	r22, r12
    1298:	50 dd       	rcall	.-1376   	; 0xd3a <UPDI::send_byte(unsigned long, unsigned char)>
    129a:	88 23       	and	r24, r24
    129c:	41 f0       	breq	.+16     	; 0x12ae <NVM::V4::erase_flash_page(unsigned long)+0x30>
    129e:	6a df       	rcall	.-300    	; 0x1174 <NVM::V3::nvm_wait()>
    12a0:	83 77       	andi	r24, 0x73	; 115
    12a2:	29 f4       	brne	.+10     	; 0x12ae <NVM::V4::erase_flash_page(unsigned long)+0x30>
    12a4:	ff 90       	pop	r15
    12a6:	ef 90       	pop	r14
/Users/askn/Documents/Zinnia-tools/Products/software/UPDI4AVR-USB/src/nvmv0.cpp:62
  constexpr auto NVM_STATUS = 0x1002;
  constexpr auto NVM_DATA   = 0x1006;
  constexpr auto PROD_SIG   = 0x1100;

  uint8_t nvm_wait (void) {
    do { UPDI::recv_byte(NVM_STATUS); } while (RXDATA & 3);
    12a8:	df 90       	pop	r13
    12aa:	cf 90       	pop	r12
    12ac:	91 cf       	rjmp	.-222    	; 0x11d0 <NVM::V4::write_eeprom(unsigned long, unsigned int) [clone .part.5]>
    12ae:	80 e0       	ldi	r24, 0x00	; 0
    12b0:	ff 90       	pop	r15
    12b2:	ef 90       	pop	r14
    12b4:	df 90       	pop	r13
    12b6:	cf 90       	pop	r12
    12b8:	08 95       	ret

000012ba <NVM::V0::nvm_wait()>:
nvm_wait():
/Users/askn/Documents/Zinnia-tools/Products/software/UPDI4AVR-USB/src/nvmv0.cpp:63
    return RXDATA;
    12ba:	62 e0       	ldi	r22, 0x02	; 2
/Users/askn/Documents/Zinnia-tools/Products/software/UPDI4AVR-USB/src/nvmv0.cpp:64
  }
    12bc:	70 e1       	ldi	r23, 0x10	; 16
/Users/askn/Documents/Zinnia-tools/Products/software/UPDI4AVR-USB/src/nvmv0.cpp:108
      && (nvm_wait() & 7) == 0
    );
  }

  size_t prog_init (void) {
    nvm_wait();
    12be:	80 e0       	ldi	r24, 0x00	; 0
    12c0:	90 e0       	ldi	r25, 0x00	; 0
/Users/askn/Documents/Zinnia-tools/Products/software/UPDI4AVR-USB/src/nvmv0.cpp:109
    UPDI::nvm_ctrl(0x04);         /* NVM_CMD_PBC */
    12c2:	a8 dc       	rcall	.-1712   	; 0xc14 <UPDI::recv_byte(unsigned long)>
    12c4:	8f b3       	in	r24, 0x1f	; 31
    12c6:	83 70       	andi	r24, 0x03	; 3
/Users/askn/Documents/Zinnia-tools/Products/software/UPDI4AVR-USB/src/nvmv0.cpp:110
    nvm_wait();
    12c8:	c1 f7       	brne	.-16     	; 0x12ba <NVM::V0::nvm_wait()>
    12ca:	8f b3       	in	r24, 0x1f	; 31
/Users/askn/Documents/Zinnia-tools/Products/software/UPDI4AVR-USB/src/nvmv0.cpp:111
    return UPDI::nvm_ctrl(0x00);
    12cc:	08 95       	ret

000012ce <NVM::V0::prog_init()>:
prog_init():
    12ce:	f5 df       	rcall	.-22     	; 0x12ba <NVM::V0::nvm_wait()>
    12d0:	84 e0       	ldi	r24, 0x04	; 4
/Users/askn/Documents/Zinnia-tools/Products/software/UPDI4AVR-USB/src/nvmv0.cpp:112
  }
    12d2:	50 dd       	rcall	.-1376   	; 0xd74 <UPDI::nvm_ctrl(unsigned char)>
    12d4:	f2 df       	rcall	.-28     	; 0x12ba <NVM::V0::nvm_wait()>
/Users/askn/Documents/Zinnia-tools/Products/software/UPDI4AVR-USB/src/nvmv2.cpp:61
  uint8_t nvm_wait (void) {
    do { UPDI::recv_byte(NVM_STATUS); } while (RXDATA & 3);
    return RXDATA;
  }

  bool nvm_ctrl_change (uint8_t _nvmcmd) {
    12d6:	80 e0       	ldi	r24, 0x00	; 0
    12d8:	4d dd       	rcall	.-1382   	; 0xd74 <UPDI::nvm_ctrl(unsigned char)>
/Users/askn/Documents/Zinnia-tools/Products/software/UPDI4AVR-USB/src/nvmv2.cpp:62
    nvm_wait();
    12da:	90 e0       	ldi	r25, 0x00	; 0
    12dc:	08 95       	ret

000012de <NVM::V2::nvm_ctrl_change(unsigned char)>:
nvm_ctrl_change():
/Users/askn/Documents/Zinnia-tools/Products/software/UPDI4AVR-USB/src/nvmv2.cpp:63
    if (UPDI::recv_byte(NVM_CTRL) && RXDATA == _nvmcmd) return true;
    12de:	cf 93       	push	r28
    12e0:	c8 2f       	mov	r28, r24
    12e2:	eb df       	rcall	.-42     	; 0x12ba <NVM::V0::nvm_wait()>
    12e4:	60 e0       	ldi	r22, 0x00	; 0
    12e6:	70 e1       	ldi	r23, 0x10	; 16
    12e8:	80 e0       	ldi	r24, 0x00	; 0
    12ea:	90 e0       	ldi	r25, 0x00	; 0
    12ec:	93 dc       	rcall	.-1754   	; 0xc14 <UPDI::recv_byte(unsigned long)>
    12ee:	88 23       	and	r24, r24
    12f0:	31 f0       	breq	.+12     	; 0x12fe <NVM::V2::nvm_ctrl_change(unsigned char)+0x20>
    12f2:	8f b3       	in	r24, 0x1f	; 31
/Users/askn/Documents/Zinnia-tools/Products/software/UPDI4AVR-USB/src/nvmv2.cpp:67
    if (!UPDI::nvm_ctrl(0x00)) return false;
    if (0 != _nvmcmd) return UPDI::nvm_ctrl(_nvmcmd);
    return true;
  }
    12f4:	8c 13       	cpse	r24, r28
/Users/askn/Documents/Zinnia-tools/Products/software/UPDI4AVR-USB/src/nvmv2.cpp:64
  }

  bool nvm_ctrl_change (uint8_t _nvmcmd) {
    nvm_wait();
    if (UPDI::recv_byte(NVM_CTRL) && RXDATA == _nvmcmd) return true;
    if (!UPDI::nvm_ctrl(0x00)) return false;
    12f6:	03 c0       	rjmp	.+6      	; 0x12fe <NVM::V2::nvm_ctrl_change(unsigned char)+0x20>
    12f8:	81 e0       	ldi	r24, 0x01	; 1
    12fa:	cf 91       	pop	r28
    12fc:	08 95       	ret
/Users/askn/Documents/Zinnia-tools/Products/software/UPDI4AVR-USB/src/nvmv2.cpp:65
    if (0 != _nvmcmd) return UPDI::nvm_ctrl(_nvmcmd);
    12fe:	80 e0       	ldi	r24, 0x00	; 0
    1300:	39 dd       	rcall	.-1422   	; 0xd74 <UPDI::nvm_ctrl(unsigned char)>
    1302:	88 23       	and	r24, r24
/Users/askn/Documents/Zinnia-tools/Products/software/UPDI4AVR-USB/src/nvmv2.cpp:67
    return true;
  }
    1304:	d1 f3       	breq	.-12     	; 0x12fa <NVM::V2::nvm_ctrl_change(unsigned char)+0x1c>
/Users/askn/Documents/Zinnia-tools/Products/software/UPDI4AVR-USB/src/nvmv2.cpp:65

  bool nvm_ctrl_change (uint8_t _nvmcmd) {
    nvm_wait();
    if (UPDI::recv_byte(NVM_CTRL) && RXDATA == _nvmcmd) return true;
    if (!UPDI::nvm_ctrl(0x00)) return false;
    if (0 != _nvmcmd) return UPDI::nvm_ctrl(_nvmcmd);
    1306:	cc 23       	and	r28, r28
    1308:	b9 f3       	breq	.-18     	; 0x12f8 <NVM::V2::nvm_ctrl_change(unsigned char)+0x1a>
/Users/askn/Documents/Zinnia-tools/Products/software/UPDI4AVR-USB/src/nvmv2.cpp:113
      && nvm_ctrl_change(0x00)
    );
  }

  size_t prog_init (void) {
    return nvm_ctrl_change(0x00);
    130a:	8c 2f       	mov	r24, r28
    130c:	cf 91       	pop	r28
    130e:	32 cd       	rjmp	.-1436   	; 0xd74 <UPDI::nvm_ctrl(unsigned char)>

00001310 <NVM::V2::prog_init()>:
prog_init():
/Users/askn/Documents/Zinnia-tools/Products/software/UPDI4AVR-USB/src/nvmv2.cpp:114
  }
    1310:	80 e0       	ldi	r24, 0x00	; 0
    1312:	e5 df       	rcall	.-54     	; 0x12de <NVM::V2::nvm_ctrl_change(unsigned char)>
/Users/askn/Documents/Zinnia-tools/Products/software/UPDI4AVR-USB/src/nvmv2.cpp:75
    D2PRINTF(" NVM_V2_FLPER=%06lX\r\n", _dwAddr);
    return (
      nvm_ctrl_change(0x08)   /* NVM_V2_CMD_FLPER */
      && UPDI::send_byte(_dwAddr, 0xFF)
      && (nvm_wait() & 0x73) == 0
      && nvm_ctrl_change(0x00)
    1314:	90 e0       	ldi	r25, 0x00	; 0
    1316:	08 95       	ret

00001318 <NVM::V2::write_eeprom(unsigned long, unsigned int) [clone .part.5]>:
_ZN3NVM2V216erase_flash_pageEm.part.1():
    1318:	80 e0       	ldi	r24, 0x00	; 0
/Users/askn/Documents/Zinnia-tools/Products/software/UPDI4AVR-USB/src/nvmv2.cpp:69
    if (!UPDI::nvm_ctrl(0x00)) return false;
    if (0 != _nvmcmd) return UPDI::nvm_ctrl(_nvmcmd);
    return true;
  }

  bool erase_flash_page (uint32_t _dwAddr) {
    131a:	e1 cf       	rjmp	.-62     	; 0x12de <NVM::V2::nvm_ctrl_change(unsigned char)>

0000131c <NVM::V2::erase_flash_page(unsigned long)>:
erase_flash_page():
    131c:	cf 92       	push	r12
    131e:	df 92       	push	r13
    1320:	ef 92       	push	r14
    1322:	ff 92       	push	r15
/Users/askn/Documents/Zinnia-tools/Products/software/UPDI4AVR-USB/src/nvmv2.cpp:72
    D2PRINTF(" NVM_V2_FLPER=%06lX\r\n", _dwAddr);
    return (
      nvm_ctrl_change(0x08)   /* NVM_V2_CMD_FLPER */
    1324:	6b 01       	movw	r12, r22
    1326:	7c 01       	movw	r14, r24
    1328:	88 e0       	ldi	r24, 0x08	; 8
/Users/askn/Documents/Zinnia-tools/Products/software/UPDI4AVR-USB/src/nvmv2.cpp:75
      && UPDI::send_byte(_dwAddr, 0xFF)
      && (nvm_wait() & 0x73) == 0
      && nvm_ctrl_change(0x00)
    132a:	d9 df       	rcall	.-78     	; 0x12de <NVM::V2::nvm_ctrl_change(unsigned char)>
    132c:	88 23       	and	r24, r24
/Users/askn/Documents/Zinnia-tools/Products/software/UPDI4AVR-USB/src/nvmv2.cpp:73

  bool erase_flash_page (uint32_t _dwAddr) {
    D2PRINTF(" NVM_V2_FLPER=%06lX\r\n", _dwAddr);
    return (
      nvm_ctrl_change(0x08)   /* NVM_V2_CMD_FLPER */
      && UPDI::send_byte(_dwAddr, 0xFF)
    132e:	71 f0       	breq	.+28     	; 0x134c <NVM::V2::erase_flash_page(unsigned long)+0x30>
    1330:	4f ef       	ldi	r20, 0xFF	; 255
    1332:	c7 01       	movw	r24, r14
    1334:	b6 01       	movw	r22, r12
    1336:	01 dd       	rcall	.-1534   	; 0xd3a <UPDI::send_byte(unsigned long, unsigned char)>
    1338:	88 23       	and	r24, r24
/Users/askn/Documents/Zinnia-tools/Products/software/UPDI4AVR-USB/src/nvmv2.cpp:74
      && (nvm_wait() & 0x73) == 0
    133a:	41 f0       	breq	.+16     	; 0x134c <NVM::V2::erase_flash_page(unsigned long)+0x30>
    133c:	be df       	rcall	.-132    	; 0x12ba <NVM::V0::nvm_wait()>
    133e:	83 77       	andi	r24, 0x73	; 115
    1340:	29 f4       	brne	.+10     	; 0x134c <NVM::V2::erase_flash_page(unsigned long)+0x30>
/Users/askn/Documents/Zinnia-tools/Products/software/UPDI4AVR-USB/src/nvmv2.cpp:77
      && nvm_ctrl_change(0x00)
    );
  }
    1342:	ff 90       	pop	r15
    1344:	ef 90       	pop	r14
    1346:	df 90       	pop	r13
    1348:	cf 90       	pop	r12
    134a:	e6 cf       	rjmp	.-52     	; 0x1318 <NVM::V2::write_eeprom(unsigned long, unsigned int) [clone .part.5]>
    134c:	80 e0       	ldi	r24, 0x00	; 0
    134e:	ff 90       	pop	r15
    1350:	ef 90       	pop	r14
    1352:	df 90       	pop	r13
    1354:	cf 90       	pop	r12
    1356:	08 95       	ret

00001358 <NVM::V1::write_memory()>:
_ZN3NVM2V112write_memoryEv():
    1358:	90 e0       	ldi	r25, 0x00	; 0
    135a:	80 e0       	ldi	r24, 0x00	; 0
    135c:	08 95       	ret

0000135e <NVM::V1::read_memory()>:
_ZN3NVM2V111read_memoryEv():
    135e:	90 e0       	ldi	r25, 0x00	; 0
    1360:	80 e0       	ldi	r24, 0x00	; 0
    1362:	08 95       	ret

00001364 <NVM::V1::erase_memory()>:
_ZN3NVM2V112erase_memoryEv():
    1364:	90 e0       	ldi	r25, 0x00	; 0
    1366:	80 e0       	ldi	r24, 0x00	; 0
    1368:	08 95       	ret

0000136a <Print::write(char)>:
write():
/Users/askn/Library/Arduino15/packages/MultiX-Zinnia/hardware/modernAVR/0.2.14/cores/modernAVR/api/Print.h:58

  virtual size_t write (uint8_t) = 0;

  /* Value and Strings */

  inline size_t write (const char _c) { return write((uint8_t) _c); }
    136a:	dc 01       	movw	r26, r24
    136c:	ed 91       	ld	r30, X+
    136e:	fc 91       	ld	r31, X
    1370:	01 90       	ld	r0, Z+
    1372:	f0 81       	ld	r31, Z
    1374:	e0 2d       	mov	r30, r0
    1376:	09 94       	ijmp

00001378 <Print::printHex(void const*, unsigned int, char, unsigned int, char const*) [clone .constprop.18]>:
printHex():
/Users/askn/Library/Arduino15/packages/MultiX-Zinnia/hardware/modernAVR/0.2.14/cores/modernAVR/api/cpp/Print_puts.cpp:85
    }
  }
  return *this;
}

Print& Print::printHex (const void* _source, size_t _length, char _separator, size_t _wrap, const char* _split) {
    1378:	cf 92       	push	r12
    137a:	df 92       	push	r13
    137c:	ef 92       	push	r14
    137e:	ff 92       	push	r15
    1380:	0f 93       	push	r16
    1382:	1f 93       	push	r17
    1384:	cf 93       	push	r28
    1386:	df 93       	push	r29
/Users/askn/Library/Arduino15/packages/MultiX-Zinnia/hardware/modernAVR/0.2.14/cores/modernAVR/api/cpp/Print_puts.cpp:72
uint8_t _read (uint32_t _addr, bool _prog) {
  return _prog ? pgm_read_byte(_addr) : *((uint8_t*)_addr);
}

Print& Print::_print_hex (Print_OPT_HEX_t p) {
  size_t _count = 0;
    1388:	8c 01       	movw	r16, r24
    138a:	d0 e0       	ldi	r29, 0x00	; 0
/Users/askn/Library/Arduino15/packages/MultiX-Zinnia/hardware/modernAVR/0.2.14/cores/modernAVR/api/cpp/Print_puts.cpp:73
  while (p.length--) {
    138c:	c0 e0       	ldi	r28, 0x00	; 0
_print_hex():
    138e:	7b 01       	movw	r14, r22
    1390:	81 e0       	ldi	r24, 0x01	; 1
    1392:	e8 1a       	sub	r14, r24
    1394:	f1 08       	sbc	r15, r1
/Users/askn/Library/Arduino15/packages/MultiX-Zinnia/hardware/modernAVR/0.2.14/cores/modernAVR/api/cpp/Print_puts.cpp:68
/*
 * Hex Dump
 */

uint8_t _read (uint32_t _addr, bool _prog) {
  return _prog ? pgm_read_byte(_addr) : *((uint8_t*)_addr);
    1396:	67 2b       	or	r22, r23
    1398:	61 f1       	breq	.+88     	; 0x13f2 <Print::printHex(void const*, unsigned int, char, unsigned int, char const*) [clone .constprop.18]+0x7a>
_read():
    139a:	f8 01       	movw	r30, r16
/Users/askn/Library/Arduino15/packages/MultiX-Zinnia/hardware/modernAVR/0.2.14/cores/modernAVR/api/cpp/Print_puts.cpp:75

Print& Print::_print_hex (Print_OPT_HEX_t p) {
  size_t _count = 0;
  while (p.length--) {
    uint8_t _c = _read(p.addr++, p.prog);
    write(btoh(__builtin_avr_swap(_c)));
    139c:	d1 90       	ld	r13, Z+
    139e:	8f 01       	movw	r16, r30
_print_hex():
    13a0:	8d 2d       	mov	r24, r13
    13a2:	82 95       	swap	r24
    13a4:	12 db       	rcall	.-2524   	; 0x9ca <btoh>
    13a6:	68 2f       	mov	r22, r24
    13a8:	8d e8       	ldi	r24, 0x8D	; 141
    13aa:	90 e6       	ldi	r25, 0x60	; 96
    13ac:	de df       	rcall	.-68     	; 0x136a <Print::write(char)>
/Users/askn/Library/Arduino15/packages/MultiX-Zinnia/hardware/modernAVR/0.2.14/cores/modernAVR/api/cpp/Print_puts.cpp:76
    write(btoh(_c));
    13ae:	8d 2d       	mov	r24, r13
    13b0:	0c db       	rcall	.-2536   	; 0x9ca <btoh>
    13b2:	68 2f       	mov	r22, r24
    13b4:	8d e8       	ldi	r24, 0x8D	; 141
    13b6:	90 e6       	ldi	r25, 0x60	; 96
    13b8:	d8 df       	rcall	.-80     	; 0x136a <Print::write(char)>
    13ba:	e1 14       	cp	r14, r1
    13bc:	f1 04       	cpc	r15, r1
/Users/askn/Library/Arduino15/packages/MultiX-Zinnia/hardware/modernAVR/0.2.14/cores/modernAVR/api/cpp/Print_puts.cpp:77
    if (p.length) {
    13be:	91 f0       	breq	.+36     	; 0x13e4 <Print::printHex(void const*, unsigned int, char, unsigned int, char const*) [clone .constprop.18]+0x6c>
    13c0:	21 96       	adiw	r28, 0x01	; 1
    13c2:	91 f4       	brne	.+36     	; 0x13e8 <Print::printHex(void const*, unsigned int, char, unsigned int, char const*) [clone .constprop.18]+0x70>
/Users/askn/Library/Arduino15/packages/MultiX-Zinnia/hardware/modernAVR/0.2.14/cores/modernAVR/api/cpp/Print_puts.cpp:78
      if (++_count == p.wrap) { puts(p.split); _count -= p.wrap; }
    13c4:	81 e8       	ldi	r24, 0x81	; 129
    13c6:	c8 2e       	mov	r12, r24
    13c8:	80 e6       	ldi	r24, 0x60	; 96
    13ca:	d8 2e       	mov	r13, r24
puts():
    13cc:	f6 01       	movw	r30, r12
    13ce:	61 91       	ld	r22, Z+
/Users/askn/Library/Arduino15/packages/MultiX-Zinnia/hardware/modernAVR/0.2.14/cores/modernAVR/api/cpp/Print_puts.cpp:35

size_t Print::puts (const char _str[]) {
  char _c;
  size_t _n = 0;
  char* _p = (char *) _str;
  while ((_c = *_p++)) {
    13d0:	6f 01       	movw	r12, r30
    13d2:	66 23       	and	r22, r22
    13d4:	39 f0       	breq	.+14     	; 0x13e4 <Print::printHex(void const*, unsigned int, char, unsigned int, char const*) [clone .constprop.18]+0x6c>
    13d6:	8d e8       	ldi	r24, 0x8D	; 141
    13d8:	90 e6       	ldi	r25, 0x60	; 96
/Users/askn/Library/Arduino15/packages/MultiX-Zinnia/hardware/modernAVR/0.2.14/cores/modernAVR/api/cpp/Print_puts.cpp:36
    if (write(_c)) _n++;
    13da:	c7 df       	rcall	.-114    	; 0x136a <Print::write(char)>
    13dc:	89 2b       	or	r24, r25
    13de:	b1 f7       	brne	.-20     	; 0x13cc <Print::printHex(void const*, unsigned int, char, unsigned int, char const*) [clone .constprop.18]+0x54>
printHex():
    13e0:	d0 e0       	ldi	r29, 0x00	; 0
    13e2:	c0 e0       	ldi	r28, 0x00	; 0
    13e4:	b7 01       	movw	r22, r14
/Users/askn/Library/Arduino15/packages/MultiX-Zinnia/hardware/modernAVR/0.2.14/cores/modernAVR/api/cpp/Print_puts.cpp:78
  while (p.length--) {
    uint8_t _c = _read(p.addr++, p.prog);
    write(btoh(__builtin_avr_swap(_c)));
    write(btoh(_c));
    if (p.length) {
      if (++_count == p.wrap) { puts(p.split); _count -= p.wrap; }
    13e6:	d3 cf       	rjmp	.-90     	; 0x138e <Print::printHex(void const*, unsigned int, char, unsigned int, char const*) [clone .constprop.18]+0x16>
_print_hex():
    13e8:	6a e3       	ldi	r22, 0x3A	; 58
    13ea:	8d e8       	ldi	r24, 0x8D	; 141
    13ec:	90 e6       	ldi	r25, 0x60	; 96
/Users/askn/Library/Arduino15/packages/MultiX-Zinnia/hardware/modernAVR/0.2.14/cores/modernAVR/api/cpp/Print_puts.cpp:79
      else if (p.sep) write(p.sep);
    13ee:	bd df       	rcall	.-134    	; 0x136a <Print::write(char)>
    13f0:	f9 cf       	rjmp	.-14     	; 0x13e4 <Print::printHex(void const*, unsigned int, char, unsigned int, char const*) [clone .constprop.18]+0x6c>
printHex():
    13f2:	8d e8       	ldi	r24, 0x8D	; 141
    13f4:	90 e6       	ldi	r25, 0x60	; 96
    13f6:	df 91       	pop	r29
    13f8:	cf 91       	pop	r28
/Users/askn/Library/Arduino15/packages/MultiX-Zinnia/hardware/modernAVR/0.2.14/cores/modernAVR/api/cpp/Print_puts.cpp:95
  , _wrap
  , _separator
  , false
  };
  return _print_hex(p);
}
    13fa:	1f 91       	pop	r17
    13fc:	0f 91       	pop	r16
    13fe:	ff 90       	pop	r15
    1400:	ef 90       	pop	r14
    1402:	df 90       	pop	r13
    1404:	cf 90       	pop	r12
    1406:	08 95       	ret

00001408 <Print::puts(PGM_t const*)>:
puts():
    1408:	ef 92       	push	r14
    140a:	ff 92       	push	r15
    140c:	0f 93       	push	r16
    140e:	1f 93       	push	r17
/Users/askn/Library/Arduino15/packages/MultiX-Zinnia/hardware/modernAVR/0.2.14/cores/modernAVR/api/cpp/Print_puts.cpp:52
    else break;
  }
  return _n;
}

size_t Print::puts (const PGM_t _str[]) {
    1410:	cf 93       	push	r28
    1412:	df 93       	push	r29
    1414:	8c 01       	movw	r16, r24
    1416:	7b 01       	movw	r14, r22
    1418:	d0 e0       	ldi	r29, 0x00	; 0
    141a:	c0 e0       	ldi	r28, 0x00	; 0
    141c:	f7 01       	movw	r30, r14
    141e:	ec 0f       	add	r30, r28
/Users/askn/Library/Arduino15/packages/MultiX-Zinnia/hardware/modernAVR/0.2.14/cores/modernAVR/api/cpp/Print_puts.cpp:54
  char _c;
  size_t _n = 0;
    1420:	fd 1f       	adc	r31, r29
    1422:	64 91       	lpm	r22, Z
/Users/askn/Library/Arduino15/packages/MultiX-Zinnia/hardware/modernAVR/0.2.14/cores/modernAVR/api/cpp/Print_puts.cpp:56
  PGM_P _p = reinterpret_cast<PGM_P>(_str);
  while ((_c = pgm_read_byte(_p++))) {
    1424:	66 23       	and	r22, r22
    1426:	31 f0       	breq	.+12     	; 0x1434 <Print::puts(PGM_t const*)+0x2c>
    1428:	c8 01       	movw	r24, r16
    142a:	9f df       	rcall	.-194    	; 0x136a <Print::write(char)>
    142c:	89 2b       	or	r24, r25
    142e:	11 f0       	breq	.+4      	; 0x1434 <Print::puts(PGM_t const*)+0x2c>
/Users/askn/Library/Arduino15/packages/MultiX-Zinnia/hardware/modernAVR/0.2.14/cores/modernAVR/api/cpp/Print_puts.cpp:57
    if (write(_c)) _n++;
    1430:	21 96       	adiw	r28, 0x01	; 1
    1432:	f4 cf       	rjmp	.-24     	; 0x141c <Print::puts(PGM_t const*)+0x14>
    1434:	ce 01       	movw	r24, r28
    1436:	df 91       	pop	r29
    1438:	cf 91       	pop	r28
    143a:	1f 91       	pop	r17
    143c:	0f 91       	pop	r16
/Users/askn/Library/Arduino15/packages/MultiX-Zinnia/hardware/modernAVR/0.2.14/cores/modernAVR/api/cpp/Print_puts.cpp:61
    else break;
  }
  return _n;
}
    143e:	ff 90       	pop	r15
    1440:	ef 90       	pop	r14
    1442:	08 95       	ret

00001444 <Print::ln()>:
ln():
    1444:	cf 93       	push	r28
    1446:	df 93       	push	r29
    1448:	ec 01       	movw	r28, r24
    144a:	6d e0       	ldi	r22, 0x0D	; 13
    144c:	8e df       	rcall	.-228    	; 0x136a <Print::write(char)>
/Users/askn/Library/Arduino15/packages/MultiX-Zinnia/hardware/modernAVR/0.2.14/cores/modernAVR/api/Print.h:73
  size_t puts (const char _str[]);
  size_t puts (const PGM_t _str[]);

  /* Support */

  inline Print& ln (void) { write('\r'); write('\n'); return *this; }
    144e:	6a e0       	ldi	r22, 0x0A	; 10
    1450:	ce 01       	movw	r24, r28
    1452:	8b df       	rcall	.-234    	; 0x136a <Print::write(char)>
    1454:	ce 01       	movw	r24, r28
    1456:	df 91       	pop	r29
    1458:	cf 91       	pop	r28
    145a:	08 95       	ret

0000145c <Print::printf(PGM_t const*, ...) [clone .constprop.21]>:
printf():
    145c:	cf 93       	push	r28
    145e:	df 93       	push	r29
    1460:	cd b7       	in	r28, 0x3d	; 61
    1462:	de b7       	in	r29, 0x3e	; 62
    1464:	2e 97       	sbiw	r28, 0x0e	; 14
    1466:	cd bf       	out	0x3d, r28	; 61
    1468:	de bf       	out	0x3e, r29	; 62
/Users/askn/Library/Arduino15/packages/MultiX-Zinnia/hardware/modernAVR/0.2.14/cores/modernAVR/api/cpp/Print_format.cpp:35
  va_start(_ap, _format);
  vfprintf(&_fp, _format, _ap);
  return *this;
}

Print& Print::printf (const PGM_t *_format, ...) {
    146a:	8b ea       	ldi	r24, 0xAB	; 171
    146c:	94 e0       	ldi	r25, 0x04	; 4
    146e:	89 87       	std	Y+9, r24	; 0x09
    1470:	9a 87       	std	Y+10, r25	; 0x0a
    1472:	1b 86       	std	Y+11, r1	; 0x0b
    1474:	1c 86       	std	Y+12, r1	; 0x0c
/Users/askn/Library/Arduino15/packages/MultiX-Zinnia/hardware/modernAVR/0.2.14/cores/modernAVR/api/cpp/Print_format.cpp:38
  FILE _fp;
  va_list _ap;
  fdev_setup_stream(&_fp, printf_putchar, NULL, _FDEV_SETUP_WRITE);
    1476:	82 e0       	ldi	r24, 0x02	; 2
    1478:	8c 83       	std	Y+4, r24	; 0x04
    147a:	8d e8       	ldi	r24, 0x8D	; 141
    147c:	90 e6       	ldi	r25, 0x60	; 96
    147e:	8d 87       	std	Y+13, r24	; 0x0d
    1480:	9e 87       	std	Y+14, r25	; 0x0e
    1482:	ae 01       	movw	r20, r28
    1484:	49 5e       	subi	r20, 0xE9	; 233
/Users/askn/Library/Arduino15/packages/MultiX-Zinnia/hardware/modernAVR/0.2.14/cores/modernAVR/api/cpp/Print_format.cpp:39
  fdev_set_udata(&_fp, this);
    1486:	5f 4f       	sbci	r21, 0xFF	; 255
    1488:	6d 89       	ldd	r22, Y+21	; 0x15
    148a:	7e 89       	ldd	r23, Y+22	; 0x16
    148c:	ce 01       	movw	r24, r28
/Users/askn/Library/Arduino15/packages/MultiX-Zinnia/hardware/modernAVR/0.2.14/cores/modernAVR/api/cpp/Print_format.cpp:41
  va_start(_ap, _format);
  vfprintf_P(&_fp, (const char *) _format, _ap);
    148e:	01 96       	adiw	r24, 0x01	; 1
    1490:	0e 94 c0 21 	call	0x4380	; 0x4380 <vfprintf_P>
    1494:	8d e8       	ldi	r24, 0x8D	; 141
    1496:	90 e6       	ldi	r25, 0x60	; 96
    1498:	2e 96       	adiw	r28, 0x0e	; 14
    149a:	cd bf       	out	0x3d, r28	; 61
    149c:	de bf       	out	0x3e, r29	; 62
    149e:	df 91       	pop	r29
/Users/askn/Library/Arduino15/packages/MultiX-Zinnia/hardware/modernAVR/0.2.14/cores/modernAVR/api/cpp/Print_format.cpp:43
  return *this;
}
    14a0:	cf 91       	pop	r28
    14a2:	08 95       	ret

000014a4 <USART::change_vcp()>:
change_vcp():
    14a4:	bf 92       	push	r11
    14a6:	cf 92       	push	r12
    14a8:	df 92       	push	r13
    14aa:	ef 92       	push	r14
    14ac:	ff 92       	push	r15
    14ae:	0f 93       	push	r16
/Users/askn/Documents/Zinnia-tools/Products/software/UPDI4AVR-USB/src/usart.cpp:115
    }
  }

  /*** Activates VCP operation. ***/
  /* Detailed parameters are specified in SET_LINE_ENCODING. */
  void change_vcp (void) {
    14b0:	1f 93       	push	r17
    14b2:	cf 93       	push	r28
    14b4:	df 93       	push	r29
    14b6:	00 d0       	rcall	.+0      	; 0x14b8 <USART::change_vcp()+0x14>
    14b8:	00 d0       	rcall	.+0      	; 0x14ba <USART::change_vcp()+0x16>
    14ba:	cd b7       	in	r28, 0x3d	; 61
    14bc:	de b7       	in	r29, 0x3e	; 62
    14be:	c0 90 86 60 	lds	r12, 0x6086	; 0x806086 <_set_line_encoding>
    14c2:	d0 90 87 60 	lds	r13, 0x6087	; 0x806087 <_set_line_encoding+0x1>
    14c6:	e0 90 88 60 	lds	r14, 0x6088	; 0x806088 <_set_line_encoding+0x2>
/Users/askn/Documents/Zinnia-tools/Products/software/UPDI4AVR-USB/src/usart.cpp:121
  #ifdef CONFIG_VCP_TXD_ODM
    uint8_t _ctrlb = USART_RXEN_bm | USART_TXEN_bm | USART_ODME_bm;
  #else
    uint8_t _ctrlb = USART_RXEN_bm | USART_TXEN_bm;
  #endif
    uint32_t _baud = _set_line_encoding.dwDTERate;
    14ca:	f0 90 89 60 	lds	r15, 0x6089	; 0x806089 <_set_line_encoding+0x3>
    14ce:	c1 14       	cp	r12, r1
    14d0:	d1 04       	cpc	r13, r1
    14d2:	e1 04       	cpc	r14, r1
    14d4:	f1 04       	cpc	r15, r1
    14d6:	d9 f0       	breq	.+54     	; 0x150e <USART::change_vcp()+0x6a>
    14d8:	60 e0       	ldi	r22, 0x00	; 0
/Users/askn/Documents/Zinnia-tools/Products/software/UPDI4AVR-USB/src/usart.cpp:123
    /* If the BAUD value is small, select double speed mode. */
    if (_baud) _baud = (((F_CPU * 8L) / _baud) + 1) >> 1;
    14da:	78 e6       	ldi	r23, 0x68	; 104
    14dc:	89 e8       	ldi	r24, 0x89	; 137
    14de:	99 e0       	ldi	r25, 0x09	; 9
    14e0:	a7 01       	movw	r20, r14
    14e2:	96 01       	movw	r18, r12
    14e4:	0e 94 82 24 	call	0x4904	; 0x4904 <__udivmodsi4>
    14e8:	69 01       	movw	r12, r18
    14ea:	7a 01       	movw	r14, r20
    14ec:	8f ef       	ldi	r24, 0xFF	; 255
    14ee:	c8 1a       	sub	r12, r24
    14f0:	d8 0a       	sbc	r13, r24
    14f2:	e8 0a       	sbc	r14, r24
    14f4:	f8 0a       	sbc	r15, r24
    14f6:	f6 94       	lsr	r15
    14f8:	e7 94       	ror	r14
    14fa:	d7 94       	ror	r13
    14fc:	c7 94       	ror	r12
    14fe:	88 ec       	ldi	r24, 0xC8	; 200
    1500:	b8 2e       	mov	r11, r24
    1502:	90 e6       	ldi	r25, 0x60	; 96
    1504:	c9 16       	cp	r12, r25
    1506:	d1 04       	cpc	r13, r1
/Users/askn/Documents/Zinnia-tools/Products/software/UPDI4AVR-USB/src/usart.cpp:117

  /*** Activates VCP operation. ***/
  /* Detailed parameters are specified in SET_LINE_ENCODING. */
  void change_vcp (void) {
  #ifdef CONFIG_VCP_TXD_ODM
    uint8_t _ctrlb = USART_RXEN_bm | USART_TXEN_bm | USART_ODME_bm;
    1508:	e1 04       	cpc	r14, r1
    150a:	f1 04       	cpc	r15, r1
/Users/askn/Documents/Zinnia-tools/Products/software/UPDI4AVR-USB/src/usart.cpp:124
    uint8_t _ctrlb = USART_RXEN_bm | USART_TXEN_bm;
  #endif
    uint32_t _baud = _set_line_encoding.dwDTERate;
    /* If the BAUD value is small, select double speed mode. */
    if (_baud) _baud = (((F_CPU * 8L) / _baud) + 1) >> 1;
    if (_baud < 96) {
    150c:	30 f4       	brcc	.+12     	; 0x151a <USART::change_vcp()+0x76>
    150e:	cc 0c       	add	r12, r12
    1510:	dd 1c       	adc	r13, r13
    1512:	ee 1c       	adc	r14, r14
    1514:	ff 1c       	adc	r15, r15
/Users/askn/Documents/Zinnia-tools/Products/software/UPDI4AVR-USB/src/usart.cpp:125
      _baud <<= 1;
    1516:	2a ec       	ldi	r18, 0xCA	; 202
    1518:	b2 2e       	mov	r11, r18
    151a:	1f 92       	push	r1
    151c:	bf 92       	push	r11
/Users/askn/Documents/Zinnia-tools/Products/software/UPDI4AVR-USB/src/usart.cpp:126
      _ctrlb |= USART_RXMODE_CLK2X_gc;
    151e:	ff 92       	push	r15
    1520:	ef 92       	push	r14
/Users/askn/Documents/Zinnia-tools/Products/software/UPDI4AVR-USB/src/usart.cpp:128
    }
    D1PRINTF(" BAUD=%08lX:%02X\r\n", _baud, _ctrlb);
    1522:	df 92       	push	r13
    1524:	cf 92       	push	r12
    1526:	89 e5       	ldi	r24, 0x59	; 89
    1528:	98 e0       	ldi	r25, 0x08	; 8
    152a:	9f 93       	push	r25
    152c:	8f 93       	push	r24
    152e:	0d e8       	ldi	r16, 0x8D	; 141
    1530:	10 e6       	ldi	r17, 0x60	; 96
    1532:	1f 93       	push	r17
    1534:	0f 93       	push	r16
    1536:	92 df       	rcall	.-220    	; 0x145c <Print::printf(PGM_t const*, ...) [clone .constprop.21]>
    1538:	cd bf       	out	0x3d, r28	; 61
    153a:	de bf       	out	0x3e, r29	; 62
    153c:	d7 01       	movw	r26, r14
    153e:	c6 01       	movw	r24, r12
/Users/askn/Documents/Zinnia-tools/Products/software/UPDI4AVR-USB/src/usart.cpp:129
    if (_baud < 0x10000UL && _baud >= 64) {
    1540:	80 54       	subi	r24, 0x40	; 64
    1542:	91 09       	sbc	r25, r1
    1544:	a1 09       	sbc	r26, r1
    1546:	b1 09       	sbc	r27, r1
    1548:	80 3c       	cpi	r24, 0xC0	; 192
    154a:	9f 4f       	sbci	r25, 0xFF	; 255
    154c:	a1 05       	cpc	r26, r1
    154e:	b1 05       	cpc	r27, r1
    1550:	08 f0       	brcs	.+2      	; 0x1554 <USART::change_vcp()+0xb0>
    1552:	58 c0       	rjmp	.+176    	; 0x1604 <USART::change_vcp()+0x160>
    1554:	90 91 8c 60 	lds	r25, 0x608C	; 0x80608c <_set_line_encoding+0x6>
    1558:	95 50       	subi	r25, 0x05	; 5
/Users/askn/Documents/Zinnia-tools/Products/software/UPDI4AVR-USB/src/usart.cpp:130
      uint8_t _bits = _set_line_encoding.bDataBits - 5;
    155a:	40 91 2c 60 	lds	r20, 0x602C	; 0x80602c <SYS::_updi_bitmap+0x12>
/Users/askn/Documents/Zinnia-tools/Products/software/UPDI4AVR-USB/src/usart.cpp:131
      uint8_t _ctrlc = (uint8_t[]){
    155e:	50 91 2d 60 	lds	r21, 0x602D	; 0x80602d <SYS::_updi_bitmap+0x13>
    1562:	60 91 2e 60 	lds	r22, 0x602E	; 0x80602e <SYS::_updi_bitmap+0x14>
    1566:	70 91 2f 60 	lds	r23, 0x602F	; 0x80602f <SYS::_updi_bitmap+0x15>
    156a:	49 83       	std	Y+1, r20	; 0x01
    156c:	5a 83       	std	Y+2, r21	; 0x02
    156e:	6b 83       	std	Y+3, r22	; 0x03
    1570:	7c 83       	std	Y+4, r23	; 0x04
    1572:	e0 91 8b 60 	lds	r30, 0x608B	; 0x80608b <_set_line_encoding+0x5>
/Users/askn/Documents/Zinnia-tools/Products/software/UPDI4AVR-USB/src/usart.cpp:133
        USART_PMODE_DISABLED_gc, USART_PMODE_ODD_gc, USART_PMODE_EVEN_gc, USART_PMODE_DISABLED_gc
      }[_set_line_encoding.bParityType & 3]
    1576:	e3 70       	andi	r30, 0x03	; 3
    1578:	ec 0f       	add	r30, r28
    157a:	fd 2f       	mov	r31, r29
    157c:	f1 1d       	adc	r31, r1
    157e:	21 81       	ldd	r18, Z+1	; 0x01
/Users/askn/Documents/Zinnia-tools/Products/software/UPDI4AVR-USB/src/usart.cpp:134
      + _set_line_encoding.bCharFormat ? USART_SBMODE_2BIT_gc : USART_SBMODE_1BIT_gc;
    1580:	80 91 8a 60 	lds	r24, 0x608A	; 0x80608a <_set_line_encoding+0x4>
    1584:	28 0f       	add	r18, r24
    1586:	33 27       	eor	r19, r19
    1588:	33 1f       	adc	r19, r19
    158a:	80 e0       	ldi	r24, 0x00	; 0
    158c:	23 2b       	or	r18, r19
    158e:	09 f0       	breq	.+2      	; 0x1592 <USART::change_vcp()+0xee>
/Users/askn/Documents/Zinnia-tools/Products/software/UPDI4AVR-USB/src/usart.cpp:135
      if (_bits < 4) {
    1590:	88 e0       	ldi	r24, 0x08	; 8
    1592:	94 30       	cpi	r25, 0x04	; 4
/Users/askn/Documents/Zinnia-tools/Products/software/UPDI4AVR-USB/src/usart.cpp:151
      }
      else {
        _ctrlc += USART_CHSIZE_8BIT_gc;
        #endif
      }
      ATOMIC_BLOCK(ATOMIC_RESTORESTATE) {
    1594:	a8 f5       	brcc	.+106    	; 0x1600 <USART::change_vcp()+0x15c>
/Users/askn/Library/Arduino15/packages/MultiX-Zinnia/tools/avr-gcc/7.3.0-avr8-gnu-toolchain/avr/include/util/atomic.h:50
    return 1;
}

static __inline__ uint8_t __iCliRetVal(void)
{
    cli();
    1596:	89 0f       	add	r24, r25
/Users/askn/Documents/Zinnia-tools/Products/software/UPDI4AVR-USB/src/usart.cpp:152
        PORTMUX_USARTROUTEA = PORTMUX_USART_VCP;
    1598:	9f b7       	in	r25, 0x3f	; 63
__iCliRetVal():
    159a:	f8 94       	cli
change_vcp():
    159c:	22 e1       	ldi	r18, 0x12	; 18
/Users/askn/Documents/Zinnia-tools/Products/software/UPDI4AVR-USB/src/usart.cpp:153
        USART0_STATUS = USART_DREIF_bm;
    159e:	20 93 e2 05 	sts	0x05E2, r18	; 0x8005e2 <__TEXT_REGION_LENGTH__+0x7f05e2>
    15a2:	20 e2       	ldi	r18, 0x20	; 32
/Users/askn/Documents/Zinnia-tools/Products/software/UPDI4AVR-USB/src/usart.cpp:154
        USART0_BAUD = (uint16_t)_baud;
    15a4:	20 93 04 08 	sts	0x0804, r18	; 0x800804 <__TEXT_REGION_LENGTH__+0x7f0804>
    15a8:	c0 92 08 08 	sts	0x0808, r12	; 0x800808 <__TEXT_REGION_LENGTH__+0x7f0808>
/Users/askn/Documents/Zinnia-tools/Products/software/UPDI4AVR-USB/src/usart.cpp:155
        USART0_CTRLC = _ctrlc;
    15ac:	d0 92 09 08 	sts	0x0809, r13	; 0x800809 <__TEXT_REGION_LENGTH__+0x7f0809>
/Users/askn/Documents/Zinnia-tools/Products/software/UPDI4AVR-USB/src/usart.cpp:156
        USART0_CTRLA = USART_RXCIF_bm;
    15b0:	80 93 07 08 	sts	0x0807, r24	; 0x800807 <__TEXT_REGION_LENGTH__+0x7f0807>
/Users/askn/Documents/Zinnia-tools/Products/software/UPDI4AVR-USB/src/usart.cpp:157
        USART0_CTRLB = _ctrlb;
    15b4:	80 e8       	ldi	r24, 0x80	; 128
    15b6:	80 93 05 08 	sts	0x0805, r24	; 0x800805 <__TEXT_REGION_LENGTH__+0x7f0805>
/Users/askn/Library/Arduino15/packages/MultiX-Zinnia/tools/avr-gcc/7.3.0-avr8-gnu-toolchain/avr/include/util/atomic.h:70
    (void)__s;
}

static __inline__ void __iRestore(const  uint8_t *__s)
{
    SREG = *__s;
    15ba:	b0 92 06 08 	sts	0x0806, r11	; 0x800806 <__TEXT_REGION_LENGTH__+0x7f0806>
/Users/askn/Documents/Zinnia-tools/Products/software/UPDI4AVR-USB/src/usart.cpp:160
        bit_set(GPCONF, GPCONF_VCP_bp);
      }
      D1PRINTF(" UART=VCP\r\n");
    15be:	e1 9a       	sbi	0x1c, 1	; 28
__iRestore():
    15c0:	9f bf       	out	0x3f, r25	; 63
change_vcp():
    15c2:	8d e4       	ldi	r24, 0x4D	; 77
    15c4:	98 e0       	ldi	r25, 0x08	; 8
    15c6:	9f 93       	push	r25
    15c8:	8f 93       	push	r24
    15ca:	8d e8       	ldi	r24, 0x8D	; 141
    15cc:	90 e6       	ldi	r25, 0x60	; 96
/Users/askn/Documents/Zinnia-tools/Products/software/UPDI4AVR-USB/src/usart.cpp:161
      drain(32768);
    15ce:	9f 93       	push	r25
    15d0:	8f 93       	push	r24
    15d2:	44 df       	rcall	.-376    	; 0x145c <Print::printf(PGM_t const*, ...) [clone .constprop.21]>
    15d4:	80 e0       	ldi	r24, 0x00	; 0
/Users/askn/Documents/Zinnia-tools/Products/software/UPDI4AVR-USB/src/usart.cpp:165
    }
    else {
      /* If outside the supported range, the USART will remain in the BREAK state. */
      D1PRINTF(" UART=FAIL\r\n");
    15d6:	90 e8       	ldi	r25, 0x80	; 128
    15d8:	81 da       	rcall	.-2814   	; 0xadc <USART::drain(unsigned int)>
    15da:	0f 90       	pop	r0
    15dc:	0f 90       	pop	r0
/Users/askn/Documents/Zinnia-tools/Products/software/UPDI4AVR-USB/src/usart.cpp:167
    }
    if (bit_is_set(GPCONF, GPCONF_USB_bp))
    15de:	0f 90       	pop	r0
    15e0:	0f 90       	pop	r0
/Users/askn/Documents/Zinnia-tools/Products/software/UPDI4AVR-USB/src/usart.cpp:171
      SYS::LED_HeartBeat();
    else
      SYS::LED_Flash();
  }
    15e2:	e0 9b       	sbis	0x1c, 0	; 28
    15e4:	17 c0       	rjmp	.+46     	; 0x1614 <USART::change_vcp()+0x170>
    15e6:	24 96       	adiw	r28, 0x04	; 4
    15e8:	cd bf       	out	0x3d, r28	; 61
    15ea:	de bf       	out	0x3e, r29	; 62
    15ec:	df 91       	pop	r29
    15ee:	cf 91       	pop	r28
    15f0:	1f 91       	pop	r17
    15f2:	0f 91       	pop	r16
    15f4:	ff 90       	pop	r15
    15f6:	ef 90       	pop	r14
    15f8:	df 90       	pop	r13
/Users/askn/Documents/Zinnia-tools/Products/software/UPDI4AVR-USB/src/usart.cpp:168
    else {
      /* If outside the supported range, the USART will remain in the BREAK state. */
      D1PRINTF(" UART=FAIL\r\n");
    }
    if (bit_is_set(GPCONF, GPCONF_USB_bp))
      SYS::LED_HeartBeat();
    15fa:	cf 90       	pop	r12
    15fc:	bf 90       	pop	r11
/Users/askn/Documents/Zinnia-tools/Products/software/UPDI4AVR-USB/src/usart.cpp:148
        usart_receiver    = &USB::vcp_receiver_9bit;
        usart_transmitter = &USB::vcp_transceiver_9bit;
        #else
      }
      else {
        _ctrlc += USART_CHSIZE_8BIT_gc;
    15fe:	a4 cd       	rjmp	.-1208   	; 0x1148 <SYS::LED_HeartBeat()>
    1600:	8d 5f       	subi	r24, 0xFD	; 253
/Users/askn/Documents/Zinnia-tools/Products/software/UPDI4AVR-USB/src/usart.cpp:165
      D1PRINTF(" UART=VCP\r\n");
      drain(32768);
    }
    else {
      /* If outside the supported range, the USART will remain in the BREAK state. */
      D1PRINTF(" UART=FAIL\r\n");
    1602:	ca cf       	rjmp	.-108    	; 0x1598 <USART::change_vcp()+0xf4>
    1604:	80 e4       	ldi	r24, 0x40	; 64
    1606:	98 e0       	ldi	r25, 0x08	; 8
    1608:	9f 93       	push	r25
    160a:	8f 93       	push	r24
    160c:	1f 93       	push	r17
    160e:	0f 93       	push	r16
    1610:	25 df       	rcall	.-438    	; 0x145c <Print::printf(PGM_t const*, ...) [clone .constprop.21]>
    1612:	e3 cf       	rjmp	.-58     	; 0x15da <USART::change_vcp()+0x136>
/Users/askn/Documents/Zinnia-tools/Products/software/UPDI4AVR-USB/src/usart.cpp:171
    }
    if (bit_is_set(GPCONF, GPCONF_USB_bp))
      SYS::LED_HeartBeat();
    else
      SYS::LED_Flash();
  }
    1614:	24 96       	adiw	r28, 0x04	; 4
    1616:	cd bf       	out	0x3d, r28	; 61
    1618:	de bf       	out	0x3e, r29	; 62
    161a:	df 91       	pop	r29
    161c:	cf 91       	pop	r28
    161e:	1f 91       	pop	r17
    1620:	0f 91       	pop	r16
    1622:	ff 90       	pop	r15
    1624:	ef 90       	pop	r14
    1626:	df 90       	pop	r13
    1628:	cf 90       	pop	r12
    162a:	bf 90       	pop	r11
/Users/askn/Documents/Zinnia-tools/Products/software/UPDI4AVR-USB/src/usart.cpp:170
      D1PRINTF(" UART=FAIL\r\n");
    }
    if (bit_is_set(GPCONF, GPCONF_USB_bp))
      SYS::LED_HeartBeat();
    else
      SYS::LED_Flash();
    162c:	78 cd       	rjmp	.-1296   	; 0x111e <SYS::LED_Flash()>

0000162e <USB::break_off()>:
break_off():
    162e:	e1 9b       	sbis	0x1c, 1	; 28
/Users/askn/Documents/Zinnia-tools/Products/software/UPDI4AVR-USB/src/usb.cpp:388
    bit_set(GPCONF, GPCONF_BRK_bp);
  }

  void break_off (void) {
    if (bit_is_set(GPCONF, GPCONF_VCP_bp)
     && bit_is_set(GPCONF, GPCONF_BRK_bp)) {
    1630:	04 c0       	rjmp	.+8      	; 0x163a <USB::break_off()+0xc>
    1632:	e3 9b       	sbis	0x1c, 3	; 28
    1634:	02 c0       	rjmp	.+4      	; 0x163a <USB::break_off()+0xc>
    1636:	36 df       	rcall	.-404    	; 0x14a4 <USART::change_vcp()>
/Users/askn/Documents/Zinnia-tools/Products/software/UPDI4AVR-USB/src/usb.cpp:389
      USART::change_vcp();
    1638:	e4 9a       	sbi	0x1c, 4	; 28
    163a:	e3 98       	cbi	0x1c, 3	; 28
/Users/askn/Documents/Zinnia-tools/Products/software/UPDI4AVR-USB/src/usb.cpp:392
      bit_set(GPCONF, GPCONF_OPN_bp);
    }
    bit_clear(GPCONF, GPCONF_BRK_bp);
    163c:	08 95       	ret

0000163e <UPDI::set_nvmprog_key(bool)>:
set_nvmprog_key():
/Users/askn/Documents/Zinnia-tools/Products/software/UPDI4AVR-USB/src/usb.cpp:393
  }
    163e:	cf 93       	push	r28
/Users/askn/Documents/Zinnia-tools/Products/software/UPDI4AVR-USB/src/updi.cpp:226
  bool sys_status (void) {
    const static uint8_t _sys_stat[] = {0x55, 0x8B};
    return send_bytes(_sys_stat, 2) && recv();
  }

  bool set_nvmprog_key (bool _reset = true) {
    1640:	df 93       	push	r29
    1642:	d8 2f       	mov	r29, r24
    1644:	8d e5       	ldi	r24, 0x5D	; 93
/Users/askn/Documents/Zinnia-tools/Products/software/UPDI4AVR-USB/src/updi.cpp:227
    D1PRINTF(" PROG_KEY\r\n");
    1646:	97 e0       	ldi	r25, 0x07	; 7
    1648:	9f 93       	push	r25
    164a:	8f 93       	push	r24
    164c:	8d e8       	ldi	r24, 0x8D	; 141
    164e:	90 e6       	ldi	r25, 0x60	; 96
    1650:	9f 93       	push	r25
    1652:	8f 93       	push	r24
    1654:	03 df       	rcall	.-506    	; 0x145c <Print::printf(PGM_t const*, ...) [clone .constprop.21]>
    1656:	6a e0       	ldi	r22, 0x0A	; 10
/Users/askn/Documents/Zinnia-tools/Products/software/UPDI4AVR-USB/src/updi.cpp:228
    if (!send_bytes(nvmprog_key, sizeof(nvmprog_key))) return false;
    1658:	70 e0       	ldi	r23, 0x00	; 0
    165a:	83 e4       	ldi	r24, 0x43	; 67
    165c:	90 e6       	ldi	r25, 0x60	; 96
    165e:	b5 da       	rcall	.-2710   	; 0xbca <UPDI::send_bytes(unsigned char const*, unsigned int)>
    1660:	c8 2f       	mov	r28, r24
    1662:	0f 90       	pop	r0
    1664:	0f 90       	pop	r0
    1666:	0f 90       	pop	r0
    1668:	0f 90       	pop	r0
    166a:	88 23       	and	r24, r24
    166c:	f1 f0       	breq	.+60     	; 0x16aa <UPDI::set_nvmprog_key(bool)+0x6c>
/Users/askn/Documents/Zinnia-tools/Products/software/UPDI4AVR-USB/src/updi.cpp:229
    do { key_status(); } while(bit_is_clear(RXDATA, 4));  /* wait set NVMPROG */
    166e:	c9 da       	rcall	.-2670   	; 0xc02 <UPDI::key_status()>
    1670:	fc 9b       	sbis	0x1f, 4	; 31
    1672:	fd cf       	rjmp	.-6      	; 0x166e <UPDI::set_nvmprog_key(bool)+0x30>
    1674:	8f b3       	in	r24, 0x1f	; 31
/Users/askn/Documents/Zinnia-tools/Products/software/UPDI4AVR-USB/src/updi.cpp:230
    D1PRINTF(" KEY=%02X\r\n", RXDATA);
    1676:	1f 92       	push	r1
    1678:	8f 93       	push	r24
    167a:	81 e5       	ldi	r24, 0x51	; 81
    167c:	97 e0       	ldi	r25, 0x07	; 7
    167e:	9f 93       	push	r25
    1680:	8f 93       	push	r24
    1682:	8d e8       	ldi	r24, 0x8D	; 141
    1684:	90 e6       	ldi	r25, 0x60	; 96
    1686:	9f 93       	push	r25
    1688:	8f 93       	push	r24
    168a:	e8 de       	rcall	.-560    	; 0x145c <Print::printf(PGM_t const*, ...) [clone .constprop.21]>
    168c:	0f 90       	pop	r0
/Users/askn/Documents/Zinnia-tools/Products/software/UPDI4AVR-USB/src/updi.cpp:231
    return _reset ? sys_reset(false) : true;
    168e:	0f 90       	pop	r0
    1690:	0f 90       	pop	r0
    1692:	0f 90       	pop	r0
    1694:	0f 90       	pop	r0
    1696:	0f 90       	pop	r0
    1698:	dd 23       	and	r29, r29
    169a:	39 f0       	breq	.+14     	; 0x16aa <UPDI::set_nvmprog_key(bool)+0x6c>
sys_reset():
/Users/askn/Documents/Zinnia-tools/Products/software/UPDI4AVR-USB/src/updi.cpp:130
    const static uint8_t _reset[] = {
      0x55, 0xC8, 0x59, /* SYSRST */
      0x55, 0xC8, 0x00, /* SYSRUN */
      0x55, 0xC3, 0x04  /* UPDIDIS */
    };
    return send_bytes(_reset, _leave ? 9 : 6);
    169c:	66 e0       	ldi	r22, 0x06	; 6
    169e:	70 e0       	ldi	r23, 0x00	; 0
    16a0:	82 e7       	ldi	r24, 0x72	; 114
/Users/askn/Documents/Zinnia-tools/Products/software/UPDI4AVR-USB/src/updi.cpp:232
    D1PRINTF(" PROG_KEY\r\n");
    if (!send_bytes(nvmprog_key, sizeof(nvmprog_key))) return false;
    do { key_status(); } while(bit_is_clear(RXDATA, 4));  /* wait set NVMPROG */
    D1PRINTF(" KEY=%02X\r\n", RXDATA);
    return _reset ? sys_reset(false) : true;
  }
    16a2:	90 e6       	ldi	r25, 0x60	; 96
set_nvmprog_key():
    16a4:	df 91       	pop	r29
/Users/askn/Documents/Zinnia-tools/Products/software/UPDI4AVR-USB/src/updi.cpp:130
    const static uint8_t _reset[] = {
      0x55, 0xC8, 0x59, /* SYSRST */
      0x55, 0xC8, 0x00, /* SYSRUN */
      0x55, 0xC3, 0x04  /* UPDIDIS */
    };
    return send_bytes(_reset, _leave ? 9 : 6);
    16a6:	cf 91       	pop	r28
sys_reset():
    16a8:	90 ca       	rjmp	.-2784   	; 0xbca <UPDI::send_bytes(unsigned char const*, unsigned int)>
set_nvmprog_key():
/Users/askn/Documents/Zinnia-tools/Products/software/UPDI4AVR-USB/src/updi.cpp:232
    D1PRINTF(" PROG_KEY\r\n");
    if (!send_bytes(nvmprog_key, sizeof(nvmprog_key))) return false;
    do { key_status(); } while(bit_is_clear(RXDATA, 4));  /* wait set NVMPROG */
    D1PRINTF(" KEY=%02X\r\n", RXDATA);
    return _reset ? sys_reset(false) : true;
  }
    16aa:	8c 2f       	mov	r24, r28
    16ac:	df 91       	pop	r29
    16ae:	cf 91       	pop	r28
    16b0:	08 95       	ret

000016b2 <UPDI::write_userrow()>:
write_userrow():
/Users/askn/Documents/Zinnia-tools/Products/software/UPDI4AVR-USB/src/updi.cpp:276
  /*
   * Use the UPDI ACC to write to the USERROW of the locked chip.
   * The write start address should match the USERROW address.
   * The write length should match the USERROW field.
   */
  bool write_userrow (void) {
    16b2:	cf 92       	push	r12
    16b4:	df 92       	push	r13
    16b6:	ef 92       	push	r14
    16b8:	ff 92       	push	r15
    16ba:	0f 93       	push	r16
    16bc:	1f 93       	push	r17
    16be:	cf 93       	push	r28
/Users/askn/Documents/Zinnia-tools/Products/software/UPDI4AVR-USB/src/updi.cpp:285
    uint32_t _dwAddr = packet.out.dwAddr;
    size_t  _wLength = packet.out.dwLength;
    if (bit_is_clear(PGCONF, PGCONF_UPDI_bp)
     || m_type != 0xC5 
     || _wLength != Device_Descriptor.UPDI.user_sig_bytes
     || (uint16_t)_dwAddr != Device_Descriptor.UPDI.user_sig_base) return false;
    16c0:	df 93       	push	r29
    16c2:	e8 99       	sbic	0x1d, 0	; 29
    16c4:	0b c0       	rjmp	.+22     	; 0x16dc <UPDI::write_userrow()+0x2a>
/Users/askn/Documents/Zinnia-tools/Products/software/UPDI4AVR-USB/src/updi.cpp:301
      do { sys_status(); } while(bit_is_clear(RXDATA, 3));  /* wait set PROGSTART */
      D1PRINTF(" RE_PROGSTART=%02X\r\n", RXDATA);
      return true;
    }
    else return sys_reset(false);
  }
    16c6:	10 e0       	ldi	r17, 0x00	; 0
    16c8:	81 2f       	mov	r24, r17
    16ca:	df 91       	pop	r29
    16cc:	cf 91       	pop	r28
    16ce:	1f 91       	pop	r17
    16d0:	0f 91       	pop	r16
    16d2:	ff 90       	pop	r15
    16d4:	ef 90       	pop	r14
/Users/askn/Documents/Zinnia-tools/Products/software/UPDI4AVR-USB/src/updi.cpp:283
    const static uint8_t _urowstop[] = { 0x55, 0xC7, 0x20 };  /* ASI_KEY_STATUS <= UROWWR */
    uint8_t   m_type = packet.out.bMType;
    uint32_t _dwAddr = packet.out.dwAddr;
    size_t  _wLength = packet.out.dwLength;
    if (bit_is_clear(PGCONF, PGCONF_UPDI_bp)
     || m_type != 0xC5 
    16d6:	df 90       	pop	r13
    16d8:	cf 90       	pop	r12
    16da:	08 95       	ret
/Users/askn/Documents/Zinnia-tools/Products/software/UPDI4AVR-USB/src/updi.cpp:284
     || _wLength != Device_Descriptor.UPDI.user_sig_bytes
    16dc:	80 91 d5 60 	lds	r24, 0x60D5	; 0x8060d5 <packet+0x7>
    16e0:	85 3c       	cpi	r24, 0xC5	; 197
    16e2:	89 f7       	brne	.-30     	; 0x16c6 <UPDI::write_userrow()+0x14>
    16e4:	c0 91 b6 60 	lds	r28, 0x60B6	; 0x8060b6 <Device_Descriptor+0x18>
    16e8:	d0 91 b7 60 	lds	r29, 0x60B7	; 0x8060b7 <Device_Descriptor+0x19>
    16ec:	80 91 da 60 	lds	r24, 0x60DA	; 0x8060da <packet+0xc>
/Users/askn/Documents/Zinnia-tools/Products/software/UPDI4AVR-USB/src/updi.cpp:280
   */
  bool write_userrow (void) {
    const static uint8_t _urowdone[] = { 0x55, 0xCA, 0x03 };  /* ASI_SYS_CTRLA <= UROWDONE|CLKREQ */
    const static uint8_t _urowstop[] = { 0x55, 0xC7, 0x20 };  /* ASI_KEY_STATUS <= UROWWR */
    uint8_t   m_type = packet.out.bMType;
    uint32_t _dwAddr = packet.out.dwAddr;
    16f0:	90 91 db 60 	lds	r25, 0x60DB	; 0x8060db <packet+0xd>
    16f4:	c8 17       	cp	r28, r24
    16f6:	d9 07       	cpc	r29, r25
    16f8:	31 f7       	brne	.-52     	; 0x16c6 <UPDI::write_userrow()+0x14>
    16fa:	c0 90 d6 60 	lds	r12, 0x60D6	; 0x8060d6 <packet+0x8>
/Users/askn/Documents/Zinnia-tools/Products/software/UPDI4AVR-USB/src/updi.cpp:285
    size_t  _wLength = packet.out.dwLength;
    if (bit_is_clear(PGCONF, PGCONF_UPDI_bp)
     || m_type != 0xC5 
     || _wLength != Device_Descriptor.UPDI.user_sig_bytes
     || (uint16_t)_dwAddr != Device_Descriptor.UPDI.user_sig_base) return false;
    16fe:	d0 90 d7 60 	lds	r13, 0x60D7	; 0x8060d7 <packet+0x9>
    1702:	e0 90 d8 60 	lds	r14, 0x60D8	; 0x8060d8 <packet+0xa>
    1706:	f0 90 d9 60 	lds	r15, 0x60D9	; 0x8060d9 <packet+0xb>
    170a:	80 91 c0 60 	lds	r24, 0x60C0	; 0x8060c0 <Device_Descriptor+0x22>
/Users/askn/Documents/Zinnia-tools/Products/software/UPDI4AVR-USB/src/updi.cpp:286
    USART::drain();
    170e:	90 91 c1 60 	lds	r25, 0x60C1	; 0x8060c1 <Device_Descriptor+0x23>
    1712:	8c 15       	cp	r24, r12
/Users/askn/Documents/Zinnia-tools/Products/software/UPDI4AVR-USB/src/updi.cpp:287
    D1PRINTF(" ENTER_UROW=%04lX:%04X\r\n", _dwAddr, _wLength);
    1714:	9d 05       	cpc	r25, r13
    1716:	b9 f6       	brne	.-82     	; 0x16c6 <UPDI::write_userrow()+0x14>
    1718:	90 e0       	ldi	r25, 0x00	; 0
    171a:	80 e0       	ldi	r24, 0x00	; 0
    171c:	df d9       	rcall	.-3138   	; 0xadc <USART::drain(unsigned int)>
    171e:	df 93       	push	r29
    1720:	cf 93       	push	r28
    1722:	ff 92       	push	r15
    1724:	ef 92       	push	r14
    1726:	df 92       	push	r13
    1728:	cf 92       	push	r12
    172a:	8f ec       	ldi	r24, 0xCF	; 207
    172c:	97 e0       	ldi	r25, 0x07	; 7
    172e:	9f 93       	push	r25
/Users/askn/Documents/Zinnia-tools/Products/software/UPDI4AVR-USB/src/updi.cpp:244
    D1PRINTF(" KEY=%02X\r\n", RXDATA);
    return sys_reset(false);
  }

  bool set_urowwrite_key (void) {
    D1PRINTF(" UROW_KEY\r\n");
    1730:	8f 93       	push	r24
    1732:	0d e8       	ldi	r16, 0x8D	; 141
    1734:	10 e6       	ldi	r17, 0x60	; 96
    1736:	1f 93       	push	r17
    1738:	0f 93       	push	r16
    173a:	90 de       	rcall	.-736    	; 0x145c <Print::printf(PGM_t const*, ...) [clone .constprop.21]>
set_urowwrite_key():
    173c:	8e ea       	ldi	r24, 0xAE	; 174
    173e:	97 e0       	ldi	r25, 0x07	; 7
/Users/askn/Documents/Zinnia-tools/Products/software/UPDI4AVR-USB/src/updi.cpp:245
    if (!send_bytes(urowwrite_key, sizeof(urowwrite_key))) return false;
    1740:	9f 93       	push	r25
    1742:	8f 93       	push	r24
    1744:	1f 93       	push	r17
    1746:	0f 93       	push	r16
    1748:	89 de       	rcall	.-750    	; 0x145c <Print::printf(PGM_t const*, ...) [clone .constprop.21]>
    174a:	6a e0       	ldi	r22, 0x0A	; 10
    174c:	70 e0       	ldi	r23, 0x00	; 0
    174e:	87 e5       	ldi	r24, 0x57	; 87
    1750:	90 e6       	ldi	r25, 0x60	; 96
    1752:	3b da       	rcall	.-2954   	; 0xbca <UPDI::send_bytes(unsigned char const*, unsigned int)>
    1754:	2d b7       	in	r18, 0x3d	; 61
    1756:	3e b7       	in	r19, 0x3e	; 62
    1758:	22 5f       	subi	r18, 0xF2	; 242
    175a:	3f 4f       	sbci	r19, 0xFF	; 255
    175c:	2d bf       	out	0x3d, r18	; 61
/Users/askn/Documents/Zinnia-tools/Products/software/UPDI4AVR-USB/src/updi.cpp:246
    do { key_status(); } while(bit_is_clear(RXDATA, 5));  /* wait set UROWWRITE */
    175e:	3e bf       	out	0x3e, r19	; 62
    1760:	88 23       	and	r24, r24
    1762:	09 f4       	brne	.+2      	; 0x1766 <UPDI::write_userrow()+0xb4>
    1764:	b0 cf       	rjmp	.-160    	; 0x16c6 <UPDI::write_userrow()+0x14>
/Users/askn/Documents/Zinnia-tools/Products/software/UPDI4AVR-USB/src/updi.cpp:247
    D1PRINTF(" KEY=%02X\r\n", RXDATA);
    1766:	4d da       	rcall	.-2918   	; 0xc02 <UPDI::key_status()>
    1768:	fd 9b       	sbis	0x1f, 5	; 31
    176a:	fd cf       	rjmp	.-6      	; 0x1766 <UPDI::write_userrow()+0xb4>
    176c:	8f b3       	in	r24, 0x1f	; 31
    176e:	1f 92       	push	r1
    1770:	8f 93       	push	r24
    1772:	82 ea       	ldi	r24, 0xA2	; 162
    1774:	97 e0       	ldi	r25, 0x07	; 7
    1776:	9f 93       	push	r25
    1778:	8f 93       	push	r24
    177a:	8d e8       	ldi	r24, 0x8D	; 141
/Users/askn/Documents/Zinnia-tools/Products/software/UPDI4AVR-USB/src/updi.cpp:130
    const static uint8_t _reset[] = {
      0x55, 0xC8, 0x59, /* SYSRST */
      0x55, 0xC8, 0x00, /* SYSRUN */
      0x55, 0xC3, 0x04  /* UPDIDIS */
    };
    return send_bytes(_reset, _leave ? 9 : 6);
    177c:	90 e6       	ldi	r25, 0x60	; 96
    177e:	9f 93       	push	r25
    1780:	8f 93       	push	r24
    1782:	6c de       	rcall	.-808    	; 0x145c <Print::printf(PGM_t const*, ...) [clone .constprop.21]>
sys_reset():
    1784:	66 e0       	ldi	r22, 0x06	; 6
/Users/askn/Documents/Zinnia-tools/Products/software/UPDI4AVR-USB/src/updi.cpp:288
     || m_type != 0xC5 
     || _wLength != Device_Descriptor.UPDI.user_sig_bytes
     || (uint16_t)_dwAddr != Device_Descriptor.UPDI.user_sig_base) return false;
    USART::drain();
    D1PRINTF(" ENTER_UROW=%04lX:%04X\r\n", _dwAddr, _wLength);
    if (!set_urowwrite_key()) return false;
    1786:	70 e0       	ldi	r23, 0x00	; 0
    1788:	82 e7       	ldi	r24, 0x72	; 114
    178a:	90 e6       	ldi	r25, 0x60	; 96
    178c:	1e da       	rcall	.-3012   	; 0xbca <UPDI::send_bytes(unsigned char const*, unsigned int)>
    178e:	18 2f       	mov	r17, r24
write_userrow():
    1790:	0f 90       	pop	r0
    1792:	0f 90       	pop	r0
    1794:	0f 90       	pop	r0
/Users/askn/Documents/Zinnia-tools/Products/software/UPDI4AVR-USB/src/updi.cpp:289
    do { sys_status(); } while(bit_is_clear(RXDATA, 2));    /* wait set UROWPROG */
    1796:	0f 90       	pop	r0
    1798:	0f 90       	pop	r0
    179a:	0f 90       	pop	r0
    179c:	88 23       	and	r24, r24
/Users/askn/Documents/Zinnia-tools/Products/software/UPDI4AVR-USB/src/updi.cpp:290
    send_words_block(_dwAddr, _wLength);
    179e:	09 f4       	brne	.+2      	; 0x17a2 <UPDI::write_userrow()+0xf0>
    17a0:	92 cf       	rjmp	.-220    	; 0x16c6 <UPDI::write_userrow()+0x14>
    17a2:	26 da       	rcall	.-2996   	; 0xbf0 <UPDI::sys_status()>
    17a4:	fa 9b       	sbis	0x1f, 2	; 31
/Users/askn/Documents/Zinnia-tools/Products/software/UPDI4AVR-USB/src/updi.cpp:291
    send_bytes(_urowdone, 3);
    17a6:	fd cf       	rjmp	.-6      	; 0x17a2 <UPDI::write_userrow()+0xf0>
    17a8:	ae 01       	movw	r20, r28
    17aa:	c7 01       	movw	r24, r14
    17ac:	b6 01       	movw	r22, r12
    17ae:	4c da       	rcall	.-2920   	; 0xc48 <UPDI::send_words_block(unsigned long, unsigned int)>
/Users/askn/Documents/Zinnia-tools/Products/software/UPDI4AVR-USB/src/updi.cpp:292
    do { sys_status(); } while(bit_is_set(RXDATA, 2));      /* wait clear UROWPROG */
    17b0:	63 e0       	ldi	r22, 0x03	; 3
    17b2:	70 e0       	ldi	r23, 0x00	; 0
    17b4:	84 e6       	ldi	r24, 0x64	; 100
    17b6:	90 e6       	ldi	r25, 0x60	; 96
/Users/askn/Documents/Zinnia-tools/Products/software/UPDI4AVR-USB/src/updi.cpp:293
    send_bytes(_urowstop, 3);
    17b8:	08 da       	rcall	.-3056   	; 0xbca <UPDI::send_bytes(unsigned char const*, unsigned int)>
    17ba:	1a da       	rcall	.-3020   	; 0xbf0 <UPDI::sys_status()>
    17bc:	fa 99       	sbic	0x1f, 2	; 31
    17be:	fd cf       	rjmp	.-6      	; 0x17ba <UPDI::write_userrow()+0x108>
    17c0:	63 e0       	ldi	r22, 0x03	; 3
/Users/askn/Documents/Zinnia-tools/Products/software/UPDI4AVR-USB/src/updi.cpp:294
    if (bit_is_set(PGCONF, PGCONF_PROG_bp)) {
    17c2:	70 e0       	ldi	r23, 0x00	; 0
    17c4:	81 e6       	ldi	r24, 0x61	; 97
/Users/askn/Documents/Zinnia-tools/Products/software/UPDI4AVR-USB/src/updi.cpp:295
      set_nvmprog_key();
    17c6:	90 e6       	ldi	r25, 0x60	; 96
    17c8:	00 da       	rcall	.-3072   	; 0xbca <UPDI::send_bytes(unsigned char const*, unsigned int)>
    17ca:	e9 9b       	sbis	0x1d, 1	; 29
/Users/askn/Documents/Zinnia-tools/Products/software/UPDI4AVR-USB/src/updi.cpp:296
      do { sys_status(); } while(bit_is_clear(RXDATA, 3));  /* wait set PROGSTART */
    17cc:	18 c0       	rjmp	.+48     	; 0x17fe <UPDI::write_userrow()+0x14c>
    17ce:	81 e0       	ldi	r24, 0x01	; 1
    17d0:	36 df       	rcall	.-404    	; 0x163e <UPDI::set_nvmprog_key(bool)>
    17d2:	0e da       	rcall	.-3044   	; 0xbf0 <UPDI::sys_status()>
/Users/askn/Documents/Zinnia-tools/Products/software/UPDI4AVR-USB/src/updi.cpp:297
      D1PRINTF(" RE_PROGSTART=%02X\r\n", RXDATA);
    17d4:	fb 9b       	sbis	0x1f, 3	; 31
    17d6:	fd cf       	rjmp	.-6      	; 0x17d2 <UPDI::write_userrow()+0x120>
    17d8:	8f b3       	in	r24, 0x1f	; 31
    17da:	1f 92       	push	r1
    17dc:	8f 93       	push	r24
    17de:	8a eb       	ldi	r24, 0xBA	; 186
    17e0:	97 e0       	ldi	r25, 0x07	; 7
    17e2:	9f 93       	push	r25
    17e4:	8f 93       	push	r24
    17e6:	8d e8       	ldi	r24, 0x8D	; 141
    17e8:	90 e6       	ldi	r25, 0x60	; 96
    17ea:	9f 93       	push	r25
    17ec:	8f 93       	push	r24
    17ee:	36 de       	rcall	.-916    	; 0x145c <Print::printf(PGM_t const*, ...) [clone .constprop.21]>
    17f0:	0f 90       	pop	r0
    17f2:	0f 90       	pop	r0
    17f4:	0f 90       	pop	r0
    17f6:	0f 90       	pop	r0
    17f8:	0f 90       	pop	r0
/Users/askn/Documents/Zinnia-tools/Products/software/UPDI4AVR-USB/src/updi.cpp:130
    const static uint8_t _reset[] = {
      0x55, 0xC8, 0x59, /* SYSRST */
      0x55, 0xC8, 0x00, /* SYSRUN */
      0x55, 0xC3, 0x04  /* UPDIDIS */
    };
    return send_bytes(_reset, _leave ? 9 : 6);
    17fa:	0f 90       	pop	r0
    17fc:	65 cf       	rjmp	.-310    	; 0x16c8 <UPDI::write_userrow()+0x16>
sys_reset():
    17fe:	66 e0       	ldi	r22, 0x06	; 6
    1800:	70 e0       	ldi	r23, 0x00	; 0
/Users/askn/Documents/Zinnia-tools/Products/software/UPDI4AVR-USB/src/updi.cpp:301
      do { sys_status(); } while(bit_is_clear(RXDATA, 3));  /* wait set PROGSTART */
      D1PRINTF(" RE_PROGSTART=%02X\r\n", RXDATA);
      return true;
    }
    else return sys_reset(false);
  }
    1802:	82 e7       	ldi	r24, 0x72	; 114
    1804:	90 e6       	ldi	r25, 0x60	; 96
write_userrow():
    1806:	df 91       	pop	r29
    1808:	cf 91       	pop	r28
    180a:	1f 91       	pop	r17
    180c:	0f 91       	pop	r16
/Users/askn/Documents/Zinnia-tools/Products/software/UPDI4AVR-USB/src/updi.cpp:130
    const static uint8_t _reset[] = {
      0x55, 0xC8, 0x59, /* SYSRST */
      0x55, 0xC8, 0x00, /* SYSRUN */
      0x55, 0xC3, 0x04  /* UPDIDIS */
    };
    return send_bytes(_reset, _leave ? 9 : 6);
    180e:	ff 90       	pop	r15
/Users/askn/Documents/Zinnia-tools/Products/software/UPDI4AVR-USB/src/nvmv5.cpp:136
    }
    /* Page erase will not be used if received. */
    return 1;
  }

  size_t write_memory (void) {
    1810:	ef 90       	pop	r14
    1812:	df 90       	pop	r13
    1814:	cf 90       	pop	r12
sys_reset():
    1816:	d9 c9       	rjmp	.-3150   	; 0xbca <UPDI::send_bytes(unsigned char const*, unsigned int)>

00001818 <NVM::V5::write_memory()>:
write_memory():
    1818:	cf 92       	push	r12
    181a:	df 92       	push	r13
/Users/askn/Documents/Zinnia-tools/Products/software/UPDI4AVR-USB/src/nvmv5.cpp:140
    uint8_t   m_type = packet.out.bMType;
    uint32_t _dwAddr = packet.out.dwAddr;
    size_t  _wLength = packet.out.dwLength;
    if (bit_is_clear(PGCONF, PGCONF_PROG_bp)) return UPDI::write_userrow();
    181c:	ef 92       	push	r14
    181e:	ff 92       	push	r15
    1820:	cf 93       	push	r28
/Users/askn/Documents/Zinnia-tools/Products/software/UPDI4AVR-USB/src/nvmv5.cpp:160
      _dwAddr += PROG_START;
      return write_words_flash(_dwAddr, _wLength);
    }
    else {
      /* MTYPE_SRAM */
      return UPDI::send_bytes_block(_dwAddr, _wLength);
    1822:	df 93       	push	r29
/Users/askn/Documents/Zinnia-tools/Products/software/UPDI4AVR-USB/src/nvmv5.cpp:162
    }
  }
    1824:	e9 99       	sbic	0x1d, 1	; 29
    1826:	09 c0       	rjmp	.+18     	; 0x183a <NVM::V5::write_memory()+0x22>
    1828:	44 df       	rcall	.-376    	; 0x16b2 <UPDI::write_userrow()>
    182a:	90 e0       	ldi	r25, 0x00	; 0
    182c:	df 91       	pop	r29
/Users/askn/Documents/Zinnia-tools/Products/software/UPDI4AVR-USB/src/nvmv5.cpp:137
    /* Page erase will not be used if received. */
    return 1;
  }

  size_t write_memory (void) {
    uint8_t   m_type = packet.out.bMType;
    182e:	cf 91       	pop	r28
    1830:	ff 90       	pop	r15
/Users/askn/Documents/Zinnia-tools/Products/software/UPDI4AVR-USB/src/nvmv5.cpp:138
    uint32_t _dwAddr = packet.out.dwAddr;
    1832:	ef 90       	pop	r14
    1834:	df 90       	pop	r13
    1836:	cf 90       	pop	r12
    1838:	08 95       	ret
    183a:	80 91 d5 60 	lds	r24, 0x60D5	; 0x8060d5 <packet+0x7>
/Users/askn/Documents/Zinnia-tools/Products/software/UPDI4AVR-USB/src/nvmv5.cpp:139
    size_t  _wLength = packet.out.dwLength;
    183e:	c0 90 d6 60 	lds	r12, 0x60D6	; 0x8060d6 <packet+0x8>
    1842:	d0 90 d7 60 	lds	r13, 0x60D7	; 0x8060d7 <packet+0x9>
/Users/askn/Documents/Zinnia-tools/Products/software/UPDI4AVR-USB/src/nvmv5.cpp:141
    if (bit_is_clear(PGCONF, PGCONF_PROG_bp)) return UPDI::write_userrow();
    if (m_type == 0x22 || m_type == 0xB2 || m_type == 0xB3 || m_type == 0xC4) {
    1846:	e0 90 d8 60 	lds	r14, 0x60D8	; 0x8060d8 <packet+0xa>
    184a:	f0 90 d9 60 	lds	r15, 0x60D9	; 0x8060d9 <packet+0xb>
    184e:	c0 91 da 60 	lds	r28, 0x60DA	; 0x8060da <packet+0xc>
    1852:	d0 91 db 60 	lds	r29, 0x60DB	; 0x8060db <packet+0xd>
/Users/askn/Documents/Zinnia-tools/Products/software/UPDI4AVR-USB/src/nvmv5.cpp:93
  }

  bool write_eeprom (uint32_t _dwAddr, size_t _wLength) {
    D2PRINTF(" NVM_V5_EEPERW=%06lX\r\n", _dwAddr);
    return (
      nvm_ctrl_change(0x00)
    1856:	82 32       	cpi	r24, 0x22	; 34
/Users/askn/Documents/Zinnia-tools/Products/software/UPDI4AVR-USB/src/nvmv5.cpp:96
      && UPDI::send_bytes_block(_dwAddr, _wLength)
      && nvm_ctrl_change(0x15)  /* NVM_V5_CMD_EEPERW */
      && (nvm_wait() & 0x73) == 0
    1858:	31 f0       	breq	.+12     	; 0x1866 <NVM::V5::write_memory()+0x4e>
    185a:	9e e4       	ldi	r25, 0x4E	; 78
    185c:	98 0f       	add	r25, r24
/Users/askn/Documents/Zinnia-tools/Products/software/UPDI4AVR-USB/src/nvmv5.cpp:94

  bool write_eeprom (uint32_t _dwAddr, size_t _wLength) {
    D2PRINTF(" NVM_V5_EEPERW=%06lX\r\n", _dwAddr);
    return (
      nvm_ctrl_change(0x00)
      && UPDI::send_bytes_block(_dwAddr, _wLength)
    185e:	92 30       	cpi	r25, 0x02	; 2
    1860:	10 f0       	brcs	.+4      	; 0x1866 <NVM::V5::write_memory()+0x4e>
    1862:	84 3c       	cpi	r24, 0xC4	; 196
    1864:	91 f4       	brne	.+36     	; 0x188a <NVM::V5::write_memory()+0x72>
write_eeprom():
    1866:	80 e0       	ldi	r24, 0x00	; 0
    1868:	96 dc       	rcall	.-1748   	; 0x1196 <NVM::V3::nvm_ctrl_change(unsigned char)>
/Users/askn/Documents/Zinnia-tools/Products/software/UPDI4AVR-USB/src/nvmv5.cpp:95
      && nvm_ctrl_change(0x15)  /* NVM_V5_CMD_EEPERW */
    186a:	81 11       	cpse	r24, r1
    186c:	02 c0       	rjmp	.+4      	; 0x1872 <NVM::V5::write_memory()+0x5a>
write_memory():
    186e:	80 e0       	ldi	r24, 0x00	; 0
    1870:	dc cf       	rjmp	.-72     	; 0x182a <NVM::V5::write_memory()+0x12>
write_eeprom():
    1872:	ae 01       	movw	r20, r28
    1874:	c7 01       	movw	r24, r14
/Users/askn/Documents/Zinnia-tools/Products/software/UPDI4AVR-USB/src/nvmv5.cpp:148
      /* MTYPE_LOCK_BITS */
      /* MTYPE_EEPROM */
      /* MTYPE_EEPROM_XMEGA */
      return write_eeprom(_dwAddr, _wLength);
    }
    else if (m_type == 0xC0 || m_type == 0xC5) {
    1876:	b6 01       	movw	r22, r12
    1878:	25 da       	rcall	.-2998   	; 0xcc4 <UPDI::send_bytes_block(unsigned long, unsigned int)>
    187a:	88 23       	and	r24, r24
/Users/askn/Documents/Zinnia-tools/Products/software/UPDI4AVR-USB/src/nvmv5.cpp:151
      /* MTYPE_FLASH (alias) */
      /* MTYPE_USERSIG (USERROW, BOOTROW) */
      return write_bytes_flash(_dwAddr, _wLength);
    187c:	c1 f3       	breq	.-16     	; 0x186e <NVM::V5::write_memory()+0x56>
    187e:	85 e1       	ldi	r24, 0x15	; 21
    1880:	8a dc       	rcall	.-1772   	; 0x1196 <NVM::V3::nvm_ctrl_change(unsigned char)>
    1882:	88 23       	and	r24, r24
    1884:	a1 f3       	breq	.-24     	; 0x186e <NVM::V5::write_memory()+0x56>
    1886:	80 dc       	rcall	.-1792   	; 0x1188 <NVM::V3::write_eeprom(unsigned long, unsigned int) [clone .part.3]>
/Users/askn/Documents/Zinnia-tools/Products/software/UPDI4AVR-USB/src/nvmv5.cpp:153
    }
    else if (m_type == 0xB0) {
    1888:	d0 cf       	rjmp	.-96     	; 0x182a <NVM::V5::write_memory()+0x12>
write_memory():
    188a:	80 3c       	cpi	r24, 0xC0	; 192
/Users/askn/Documents/Zinnia-tools/Products/software/UPDI4AVR-USB/src/nvmv5.cpp:155
      /* MTYPE_FLASH_PAGE (PROGMEM) */
      _dwAddr += PROG_START;
    188c:	11 f0       	breq	.+4      	; 0x1892 <NVM::V5::write_memory()+0x7a>
    188e:	85 3c       	cpi	r24, 0xC5	; 197
    1890:	29 f4       	brne	.+10     	; 0x189c <NVM::V5::write_memory()+0x84>
/Users/askn/Documents/Zinnia-tools/Products/software/UPDI4AVR-USB/src/nvmv5.cpp:156
      return write_words_flash(_dwAddr, _wLength);
    1892:	ae 01       	movw	r20, r28
    1894:	c7 01       	movw	r24, r14
    1896:	b6 01       	movw	r22, r12
    1898:	a6 dc       	rcall	.-1716   	; 0x11e6 <NVM::V3::write_bytes_flash(unsigned long, unsigned int)>
/Users/askn/Documents/Zinnia-tools/Products/software/UPDI4AVR-USB/src/nvmv5.cpp:160
    }
    else {
      /* MTYPE_SRAM */
      return UPDI::send_bytes_block(_dwAddr, _wLength);
    189a:	c7 cf       	rjmp	.-114    	; 0x182a <NVM::V5::write_memory()+0x12>
    189c:	80 3b       	cpi	r24, 0xB0	; 176
    189e:	39 f4       	brne	.+14     	; 0x18ae <NVM::V5::write_memory()+0x96>
    18a0:	c7 01       	movw	r24, r14
    18a2:	b6 01       	movw	r22, r12
    18a4:	80 58       	subi	r24, 0x80	; 128
/Users/askn/Documents/Zinnia-tools/Products/software/UPDI4AVR-USB/src/nvmv4.cpp:158
    /* Page erase will not be used if received. */
    /* Instead, page erase is determined by the is_boundary_flash_page function. */
    return 1;
  }

  size_t write_memory (void) {
    18a6:	9f 4f       	sbci	r25, 0xFF	; 255
    18a8:	ae 01       	movw	r20, r28
    18aa:	c3 dc       	rcall	.-1658   	; 0x1232 <NVM::V3::write_words_flash(unsigned long, unsigned int)>
    18ac:	be cf       	rjmp	.-132    	; 0x182a <NVM::V5::write_memory()+0x12>
    18ae:	ae 01       	movw	r20, r28
    18b0:	c7 01       	movw	r24, r14
/Users/askn/Documents/Zinnia-tools/Products/software/UPDI4AVR-USB/src/nvmv4.cpp:162
    uint8_t   m_type = packet.out.bMType;
    uint32_t _dwAddr = packet.out.dwAddr;
    size_t  _wLength = packet.out.dwLength;
    if (bit_is_clear(PGCONF, PGCONF_PROG_bp)) return UPDI::write_userrow();
    18b2:	b6 01       	movw	r22, r12
    18b4:	07 da       	rcall	.-3058   	; 0xcc4 <UPDI::send_bytes_block(unsigned long, unsigned int)>
    18b6:	b9 cf       	rjmp	.-142    	; 0x182a <NVM::V5::write_memory()+0x12>

000018b8 <NVM::V4::write_memory()>:
    18b8:	cf 92       	push	r12
/Users/askn/Documents/Zinnia-tools/Products/software/UPDI4AVR-USB/src/nvmv4.cpp:182
      _dwAddr += PROG_START;
      return write_words_flash(_dwAddr, _wLength);
    }
    else {
      /* MTYPE_SRAM */
      return UPDI::send_bytes_block(_dwAddr, _wLength);
    18ba:	df 92       	push	r13
/Users/askn/Documents/Zinnia-tools/Products/software/UPDI4AVR-USB/src/nvmv4.cpp:184
    }
  }
    18bc:	ef 92       	push	r14
    18be:	ff 92       	push	r15
    18c0:	cf 93       	push	r28
    18c2:	df 93       	push	r29
    18c4:	e9 99       	sbic	0x1d, 1	; 29
    18c6:	09 c0       	rjmp	.+18     	; 0x18da <NVM::V4::write_memory()+0x22>
    18c8:	f4 de       	rcall	.-536    	; 0x16b2 <UPDI::write_userrow()>
/Users/askn/Documents/Zinnia-tools/Products/software/UPDI4AVR-USB/src/nvmv4.cpp:159
    /* Instead, page erase is determined by the is_boundary_flash_page function. */
    return 1;
  }

  size_t write_memory (void) {
    uint8_t   m_type = packet.out.bMType;
    18ca:	90 e0       	ldi	r25, 0x00	; 0
/Users/askn/Documents/Zinnia-tools/Products/software/UPDI4AVR-USB/src/nvmv4.cpp:160
    uint32_t _dwAddr = packet.out.dwAddr;
    18cc:	df 91       	pop	r29
    18ce:	cf 91       	pop	r28
    18d0:	ff 90       	pop	r15
    18d2:	ef 90       	pop	r14
    18d4:	df 90       	pop	r13
    18d6:	cf 90       	pop	r12
    18d8:	08 95       	ret
/Users/askn/Documents/Zinnia-tools/Products/software/UPDI4AVR-USB/src/nvmv4.cpp:161
    size_t  _wLength = packet.out.dwLength;
    18da:	80 91 d5 60 	lds	r24, 0x60D5	; 0x8060d5 <packet+0x7>
    18de:	c0 90 d6 60 	lds	r12, 0x60D6	; 0x8060d6 <packet+0x8>
/Users/askn/Documents/Zinnia-tools/Products/software/UPDI4AVR-USB/src/nvmv4.cpp:163
    if (bit_is_clear(PGCONF, PGCONF_PROG_bp)) return UPDI::write_userrow();
    if (m_type == 0x22 || m_type == 0xB2 || m_type == 0xB3 || m_type == 0xC4) {
    18e2:	d0 90 d7 60 	lds	r13, 0x60D7	; 0x8060d7 <packet+0x9>
    18e6:	e0 90 d8 60 	lds	r14, 0x60D8	; 0x8060d8 <packet+0xa>
    18ea:	f0 90 d9 60 	lds	r15, 0x60D9	; 0x8060d9 <packet+0xb>
/Users/askn/Documents/Zinnia-tools/Products/software/UPDI4AVR-USB/src/nvmv4.cpp:108
  }

  bool write_eeprom (uint32_t _dwAddr, size_t _wLength) {
    D2PRINTF(" NVM_V4_EEERWR=%06lX\r\n", _dwAddr);
    return (
      nvm_ctrl_change(0x13)   /* NVM_V4_CMD_EEERWR */
    18ee:	c0 91 da 60 	lds	r28, 0x60DA	; 0x8060da <packet+0xc>
/Users/askn/Documents/Zinnia-tools/Products/software/UPDI4AVR-USB/src/nvmv4.cpp:111
      && UPDI::send_bytes_block_slow(_dwAddr, _wLength)
      && (nvm_wait() & 0x73) == 0
      && nvm_ctrl_change(0x00)
    18f2:	d0 91 db 60 	lds	r29, 0x60DB	; 0x8060db <packet+0xd>
/Users/askn/Documents/Zinnia-tools/Products/software/UPDI4AVR-USB/src/nvmv4.cpp:90
    D2PRINTF(" NVM_V4_FLWR=%06lX\r\n", _dwAddr);
    return (
      nvm_ctrl_change(0x02)   /* NVM_V4_CMD_FLWR */
      && UPDI::send_words_block(_dwAddr, _wLength)
      && (nvm_wait() & 0x73) == 0
      && nvm_ctrl_change(0x00)
    18f6:	82 32       	cpi	r24, 0x22	; 34
    18f8:	31 f0       	breq	.+12     	; 0x1906 <NVM::V4::write_memory()+0x4e>
/Users/askn/Documents/Zinnia-tools/Products/software/UPDI4AVR-USB/src/nvmv4.cpp:109

  bool write_eeprom (uint32_t _dwAddr, size_t _wLength) {
    D2PRINTF(" NVM_V4_EEERWR=%06lX\r\n", _dwAddr);
    return (
      nvm_ctrl_change(0x13)   /* NVM_V4_CMD_EEERWR */
      && UPDI::send_bytes_block_slow(_dwAddr, _wLength)
    18fa:	9e e4       	ldi	r25, 0x4E	; 78
    18fc:	98 0f       	add	r25, r24
    18fe:	92 30       	cpi	r25, 0x02	; 2
    1900:	10 f0       	brcs	.+4      	; 0x1906 <NVM::V4::write_memory()+0x4e>
    1902:	84 3c       	cpi	r24, 0xC4	; 196
    1904:	89 f4       	brne	.+34     	; 0x1928 <NVM::V4::write_memory()+0x70>
write_eeprom():
/Users/askn/Documents/Zinnia-tools/Products/software/UPDI4AVR-USB/src/nvmv4.cpp:110
      && (nvm_wait() & 0x73) == 0
    1906:	83 e1       	ldi	r24, 0x13	; 19
    1908:	46 dc       	rcall	.-1908   	; 0x1196 <NVM::V3::nvm_ctrl_change(unsigned char)>
    190a:	81 11       	cpse	r24, r1
    190c:	02 c0       	rjmp	.+4      	; 0x1912 <NVM::V4::write_memory()+0x5a>
write_memory():
    190e:	80 e0       	ldi	r24, 0x00	; 0
    1910:	dc cf       	rjmp	.-72     	; 0x18ca <NVM::V4::write_memory()+0x12>
write_eeprom():
/Users/askn/Documents/Zinnia-tools/Products/software/UPDI4AVR-USB/src/nvmv4.cpp:170
      /* MTYPE_LOCK_BITS */
      /* MTYPE_EEPROM */
      /* MTYPE_EEPROM_XMEGA */
      return write_eeprom(_dwAddr, _wLength);
    }
    else if (m_type == 0xC0 || m_type == 0xC5) {
    1912:	ae 01       	movw	r20, r28
    1914:	c7 01       	movw	r24, r14
    1916:	b6 01       	movw	r22, r12
    1918:	33 da       	rcall	.-2970   	; 0xd80 <UPDI::send_bytes_block_slow(unsigned long, unsigned int)>
/Users/askn/Documents/Zinnia-tools/Products/software/UPDI4AVR-USB/src/nvmv4.cpp:95
      && nvm_ctrl_change(0x00)
    );
  }

  bool write_bytes_flash (uint32_t _dwAddr, size_t _wLength) {
    if (SYS::is_boundary_flash_page(_dwAddr)) erase_flash_page(_dwAddr);
    191a:	88 23       	and	r24, r24
    191c:	c1 f3       	breq	.-16     	; 0x190e <NVM::V4::write_memory()+0x56>
    191e:	2a dc       	rcall	.-1964   	; 0x1174 <NVM::V3::nvm_wait()>
    1920:	83 77       	andi	r24, 0x73	; 115
    1922:	a9 f7       	brne	.-22     	; 0x190e <NVM::V4::write_memory()+0x56>
    1924:	55 dc       	rcall	.-1878   	; 0x11d0 <NVM::V4::write_eeprom(unsigned long, unsigned int) [clone .part.5]>
    1926:	d1 cf       	rjmp	.-94     	; 0x18ca <NVM::V4::write_memory()+0x12>
write_memory():
    1928:	80 3c       	cpi	r24, 0xC0	; 192
    192a:	11 f0       	breq	.+4      	; 0x1930 <NVM::V4::write_memory()+0x78>
/Users/askn/Documents/Zinnia-tools/Products/software/UPDI4AVR-USB/src/nvmv4.cpp:98
    D2PRINTF(" NVM_V4_FLWR=%06lX\r\n", _dwAddr);
    return (
      nvm_ctrl_change(0x02)   /* NVM_V4_CMD_FLWR */
    192c:	85 3c       	cpi	r24, 0xC5	; 197
    192e:	b9 f4       	brne	.+46     	; 0x195e <NVM::V4::write_memory()+0xa6>
write_bytes_flash():
    1930:	c7 01       	movw	r24, r14
/Users/askn/Documents/Zinnia-tools/Products/software/UPDI4AVR-USB/src/nvmv4.cpp:101
      && UPDI::send_bytes_block_slow(_dwAddr, _wLength)
      && (nvm_wait() & 0x73) == 0
      && nvm_ctrl_change(0x00)
    1932:	b6 01       	movw	r22, r12
    1934:	bd db       	rcall	.-2182   	; 0x10b0 <SYS::is_boundary_flash_page(unsigned long)>
/Users/askn/Documents/Zinnia-tools/Products/software/UPDI4AVR-USB/src/nvmv4.cpp:99
  bool write_bytes_flash (uint32_t _dwAddr, size_t _wLength) {
    if (SYS::is_boundary_flash_page(_dwAddr)) erase_flash_page(_dwAddr);
    D2PRINTF(" NVM_V4_FLWR=%06lX\r\n", _dwAddr);
    return (
      nvm_ctrl_change(0x02)   /* NVM_V4_CMD_FLWR */
      && UPDI::send_bytes_block_slow(_dwAddr, _wLength)
    1936:	88 23       	and	r24, r24
    1938:	19 f0       	breq	.+6      	; 0x1940 <NVM::V4::write_memory()+0x88>
    193a:	c7 01       	movw	r24, r14
    193c:	b6 01       	movw	r22, r12
    193e:	9f dc       	rcall	.-1730   	; 0x127e <NVM::V4::erase_flash_page(unsigned long)>
    1940:	82 e0       	ldi	r24, 0x02	; 2
    1942:	29 dc       	rcall	.-1966   	; 0x1196 <NVM::V3::nvm_ctrl_change(unsigned char)>
/Users/askn/Documents/Zinnia-tools/Products/software/UPDI4AVR-USB/src/nvmv4.cpp:100
      && (nvm_wait() & 0x73) == 0
    1944:	88 23       	and	r24, r24
    1946:	19 f3       	breq	.-58     	; 0x190e <NVM::V4::write_memory()+0x56>
    1948:	ae 01       	movw	r20, r28
    194a:	c7 01       	movw	r24, r14
    194c:	b6 01       	movw	r22, r12
    194e:	18 da       	rcall	.-3024   	; 0xd80 <UPDI::send_bytes_block_slow(unsigned long, unsigned int)>
    1950:	88 23       	and	r24, r24
/Users/askn/Documents/Zinnia-tools/Products/software/UPDI4AVR-USB/src/nvmv4.cpp:175
    else if (m_type == 0xC0 || m_type == 0xC5) {
      /* MTYPE_FLASH (alias) */
      /* MTYPE_USERSIG (USERROW, BOOTROW) */
      return write_bytes_flash(_dwAddr, _wLength);
    }
    else if (m_type == 0xB0) {
    1952:	e9 f2       	breq	.-70     	; 0x190e <NVM::V4::write_memory()+0x56>
    1954:	0f dc       	rcall	.-2018   	; 0x1174 <NVM::V3::nvm_wait()>
/Users/askn/Documents/Zinnia-tools/Products/software/UPDI4AVR-USB/src/nvmv4.cpp:177
      /* MTYPE_FLASH_PAGE (PROGMEM) */
      _dwAddr += PROG_START;
    1956:	83 77       	andi	r24, 0x73	; 115
    1958:	d1 f6       	brne	.-76     	; 0x190e <NVM::V4::write_memory()+0x56>
/Users/askn/Documents/Zinnia-tools/Products/software/UPDI4AVR-USB/src/nvmv4.cpp:84
    );
  }

  bool write_words_flash (uint32_t _dwAddr, size_t _wLength) {
    if (bit_is_clear(PGCONF, PGCONF_ERSE_bp)
      && SYS::is_boundary_flash_page(_dwAddr)) erase_flash_page(_dwAddr);
    195a:	3a dc       	rcall	.-1932   	; 0x11d0 <NVM::V4::write_eeprom(unsigned long, unsigned int) [clone .part.5]>
    195c:	b6 cf       	rjmp	.-148    	; 0x18ca <NVM::V4::write_memory()+0x12>
write_memory():
    195e:	80 3b       	cpi	r24, 0xB0	; 176
    1960:	f9 f4       	brne	.+62     	; 0x19a0 <NVM::V4::write_memory()+0xe8>
    1962:	80 e8       	ldi	r24, 0x80	; 128
    1964:	e8 0e       	add	r14, r24
    1966:	f1 1c       	adc	r15, r1
write_words_flash():
    1968:	ea 99       	sbic	0x1d, 2	; 29
    196a:	08 c0       	rjmp	.+16     	; 0x197c <NVM::V4::write_memory()+0xc4>
    196c:	c7 01       	movw	r24, r14
/Users/askn/Documents/Zinnia-tools/Products/software/UPDI4AVR-USB/src/nvmv4.cpp:87
    D2PRINTF(" NVM_V4_FLWR=%06lX\r\n", _dwAddr);
    return (
      nvm_ctrl_change(0x02)   /* NVM_V4_CMD_FLWR */
    196e:	b6 01       	movw	r22, r12
    1970:	9f db       	rcall	.-2242   	; 0x10b0 <SYS::is_boundary_flash_page(unsigned long)>
/Users/askn/Documents/Zinnia-tools/Products/software/UPDI4AVR-USB/src/nvmv4.cpp:90
      && UPDI::send_words_block(_dwAddr, _wLength)
      && (nvm_wait() & 0x73) == 0
      && nvm_ctrl_change(0x00)
    1972:	88 23       	and	r24, r24
    1974:	19 f0       	breq	.+6      	; 0x197c <NVM::V4::write_memory()+0xc4>
    1976:	c7 01       	movw	r24, r14
/Users/askn/Documents/Zinnia-tools/Products/software/UPDI4AVR-USB/src/nvmv4.cpp:88
    if (bit_is_clear(PGCONF, PGCONF_ERSE_bp)
      && SYS::is_boundary_flash_page(_dwAddr)) erase_flash_page(_dwAddr);
    D2PRINTF(" NVM_V4_FLWR=%06lX\r\n", _dwAddr);
    return (
      nvm_ctrl_change(0x02)   /* NVM_V4_CMD_FLWR */
      && UPDI::send_words_block(_dwAddr, _wLength)
    1978:	b6 01       	movw	r22, r12
    197a:	81 dc       	rcall	.-1790   	; 0x127e <NVM::V4::erase_flash_page(unsigned long)>
    197c:	82 e0       	ldi	r24, 0x02	; 2
    197e:	0b dc       	rcall	.-2026   	; 0x1196 <NVM::V3::nvm_ctrl_change(unsigned char)>
    1980:	88 23       	and	r24, r24
    1982:	09 f4       	brne	.+2      	; 0x1986 <NVM::V4::write_memory()+0xce>
    1984:	c4 cf       	rjmp	.-120    	; 0x190e <NVM::V4::write_memory()+0x56>
/Users/askn/Documents/Zinnia-tools/Products/software/UPDI4AVR-USB/src/nvmv4.cpp:89
      && (nvm_wait() & 0x73) == 0
    1986:	ae 01       	movw	r20, r28
    1988:	c7 01       	movw	r24, r14
    198a:	b6 01       	movw	r22, r12
    198c:	5d d9       	rcall	.-3398   	; 0xc48 <UPDI::send_words_block(unsigned long, unsigned int)>
    198e:	88 23       	and	r24, r24
    1990:	09 f4       	brne	.+2      	; 0x1994 <NVM::V4::write_memory()+0xdc>
/Users/askn/Documents/Zinnia-tools/Products/software/UPDI4AVR-USB/src/nvmv4.cpp:182
      _dwAddr += PROG_START;
      return write_words_flash(_dwAddr, _wLength);
    }
    else {
      /* MTYPE_SRAM */
      return UPDI::send_bytes_block(_dwAddr, _wLength);
    1992:	bd cf       	rjmp	.-134    	; 0x190e <NVM::V4::write_memory()+0x56>
    1994:	ef db       	rcall	.-2082   	; 0x1174 <NVM::V3::nvm_wait()>
    1996:	83 77       	andi	r24, 0x73	; 115
    1998:	09 f0       	breq	.+2      	; 0x199c <NVM::V4::write_memory()+0xe4>
/Users/askn/Documents/Zinnia-tools/Products/software/UPDI4AVR-USB/src/nvmv3.cpp:133
    }
    /* Page erase will not be used if received. */
    return 1;
  }

  size_t write_memory (void) {
    199a:	b9 cf       	rjmp	.-142    	; 0x190e <NVM::V4::write_memory()+0x56>
    199c:	19 dc       	rcall	.-1998   	; 0x11d0 <NVM::V4::write_eeprom(unsigned long, unsigned int) [clone .part.5]>
    199e:	95 cf       	rjmp	.-214    	; 0x18ca <NVM::V4::write_memory()+0x12>
write_memory():
    19a0:	ae 01       	movw	r20, r28
    19a2:	c7 01       	movw	r24, r14
/Users/askn/Documents/Zinnia-tools/Products/software/UPDI4AVR-USB/src/nvmv3.cpp:137
    uint8_t   m_type = packet.out.bMType;
    uint32_t _dwAddr = packet.out.dwAddr;
    size_t  _wLength = packet.out.dwLength;
    if (bit_is_clear(PGCONF, PGCONF_PROG_bp)) return UPDI::write_userrow();
    19a4:	b6 01       	movw	r22, r12
    19a6:	8e d9       	rcall	.-3300   	; 0xcc4 <UPDI::send_bytes_block(unsigned long, unsigned int)>
    19a8:	90 cf       	rjmp	.-224    	; 0x18ca <NVM::V4::write_memory()+0x12>

000019aa <NVM::V3::write_memory()>:
    19aa:	cf 92       	push	r12
/Users/askn/Documents/Zinnia-tools/Products/software/UPDI4AVR-USB/src/nvmv3.cpp:157
      _dwAddr += PROG_START;
      return write_words_flash(_dwAddr, _wLength);
    }
    else {
      /* MTYPE_SRAM */
      return UPDI::send_bytes_block(_dwAddr, _wLength);
    19ac:	df 92       	push	r13
/Users/askn/Documents/Zinnia-tools/Products/software/UPDI4AVR-USB/src/nvmv3.cpp:159
    }
  }
    19ae:	ef 92       	push	r14
    19b0:	ff 92       	push	r15
    19b2:	cf 93       	push	r28
    19b4:	df 93       	push	r29
    19b6:	e9 99       	sbic	0x1d, 1	; 29
/Users/askn/Documents/Zinnia-tools/Products/software/UPDI4AVR-USB/src/nvmv3.cpp:134
    /* Page erase will not be used if received. */
    return 1;
  }

  size_t write_memory (void) {
    uint8_t   m_type = packet.out.bMType;
    19b8:	09 c0       	rjmp	.+18     	; 0x19cc <NVM::V3::write_memory()+0x22>
/Users/askn/Documents/Zinnia-tools/Products/software/UPDI4AVR-USB/src/nvmv3.cpp:135
    uint32_t _dwAddr = packet.out.dwAddr;
    19ba:	7b de       	rcall	.-778    	; 0x16b2 <UPDI::write_userrow()>
    19bc:	90 e0       	ldi	r25, 0x00	; 0
    19be:	df 91       	pop	r29
    19c0:	cf 91       	pop	r28
    19c2:	ff 90       	pop	r15
    19c4:	ef 90       	pop	r14
    19c6:	df 90       	pop	r13
/Users/askn/Documents/Zinnia-tools/Products/software/UPDI4AVR-USB/src/nvmv3.cpp:136
    size_t  _wLength = packet.out.dwLength;
    19c8:	cf 90       	pop	r12
    19ca:	08 95       	ret
    19cc:	80 91 d5 60 	lds	r24, 0x60D5	; 0x8060d5 <packet+0x7>
/Users/askn/Documents/Zinnia-tools/Products/software/UPDI4AVR-USB/src/nvmv3.cpp:138
    if (bit_is_clear(PGCONF, PGCONF_PROG_bp)) return UPDI::write_userrow();
    if (m_type == 0x22 || m_type == 0xB2 || m_type == 0xB3 || m_type == 0xC4) {
    19d0:	c0 90 d6 60 	lds	r12, 0x60D6	; 0x8060d6 <packet+0x8>
    19d4:	d0 90 d7 60 	lds	r13, 0x60D7	; 0x8060d7 <packet+0x9>
    19d8:	e0 90 d8 60 	lds	r14, 0x60D8	; 0x8060d8 <packet+0xa>
/Users/askn/Documents/Zinnia-tools/Products/software/UPDI4AVR-USB/src/nvmv3.cpp:90
  }

  bool write_eeprom (uint32_t _dwAddr, size_t _wLength) {
    D2PRINTF(" NVM_V3_EEPERW=%06lX\r\n", _dwAddr);
    return (
      nvm_ctrl_change(0x10)
    19dc:	f0 90 d9 60 	lds	r15, 0x60D9	; 0x8060d9 <packet+0xb>
/Users/askn/Documents/Zinnia-tools/Products/software/UPDI4AVR-USB/src/nvmv3.cpp:93
      && UPDI::send_bytes_block(_dwAddr, _wLength)
      && nvm_ctrl_change(0x15)  /* NVM_V3_CMD_EEPERW */
      && (nvm_wait() & 0x73) == 0
    19e0:	c0 91 da 60 	lds	r28, 0x60DA	; 0x8060da <packet+0xc>
    19e4:	d0 91 db 60 	lds	r29, 0x60DB	; 0x8060db <packet+0xd>
/Users/askn/Documents/Zinnia-tools/Products/software/UPDI4AVR-USB/src/nvmv3.cpp:91

  bool write_eeprom (uint32_t _dwAddr, size_t _wLength) {
    D2PRINTF(" NVM_V3_EEPERW=%06lX\r\n", _dwAddr);
    return (
      nvm_ctrl_change(0x10)
      && UPDI::send_bytes_block(_dwAddr, _wLength)
    19e8:	82 32       	cpi	r24, 0x22	; 34
    19ea:	31 f0       	breq	.+12     	; 0x19f8 <NVM::V3::write_memory()+0x4e>
    19ec:	9e e4       	ldi	r25, 0x4E	; 78
    19ee:	98 0f       	add	r25, r24
    19f0:	92 30       	cpi	r25, 0x02	; 2
    19f2:	10 f0       	brcs	.+4      	; 0x19f8 <NVM::V3::write_memory()+0x4e>
    19f4:	84 3c       	cpi	r24, 0xC4	; 196
/Users/askn/Documents/Zinnia-tools/Products/software/UPDI4AVR-USB/src/nvmv3.cpp:92
      && nvm_ctrl_change(0x15)  /* NVM_V3_CMD_EEPERW */
    19f6:	91 f4       	brne	.+36     	; 0x1a1c <NVM::V3::write_memory()+0x72>
write_eeprom():
    19f8:	80 e1       	ldi	r24, 0x10	; 16
    19fa:	cd db       	rcall	.-2150   	; 0x1196 <NVM::V3::nvm_ctrl_change(unsigned char)>
    19fc:	81 11       	cpse	r24, r1
    19fe:	02 c0       	rjmp	.+4      	; 0x1a04 <NVM::V3::write_memory()+0x5a>
write_memory():
    1a00:	80 e0       	ldi	r24, 0x00	; 0
    1a02:	dc cf       	rjmp	.-72     	; 0x19bc <NVM::V3::write_memory()+0x12>
write_eeprom():
/Users/askn/Documents/Zinnia-tools/Products/software/UPDI4AVR-USB/src/nvmv3.cpp:145
      /* MTYPE_LOCK_BITS */
      /* MTYPE_EEPROM */
      /* MTYPE_EEPROM_XMEGA */
      return write_eeprom(_dwAddr, _wLength);
    }
    else if (m_type == 0xC0 || m_type == 0xC5) {
    1a04:	ae 01       	movw	r20, r28
    1a06:	c7 01       	movw	r24, r14
    1a08:	b6 01       	movw	r22, r12
    1a0a:	5c d9       	rcall	.-3400   	; 0xcc4 <UPDI::send_bytes_block(unsigned long, unsigned int)>
/Users/askn/Documents/Zinnia-tools/Products/software/UPDI4AVR-USB/src/nvmv3.cpp:148
      /* MTYPE_FLASH (alias) */
      /* MTYPE_USERSIG (USERROW) */
      return write_bytes_flash(_dwAddr, _wLength);
    1a0c:	88 23       	and	r24, r24
    1a0e:	c1 f3       	breq	.-16     	; 0x1a00 <NVM::V3::write_memory()+0x56>
    1a10:	85 e1       	ldi	r24, 0x15	; 21
    1a12:	c1 db       	rcall	.-2174   	; 0x1196 <NVM::V3::nvm_ctrl_change(unsigned char)>
    1a14:	88 23       	and	r24, r24
    1a16:	a1 f3       	breq	.-24     	; 0x1a00 <NVM::V3::write_memory()+0x56>
/Users/askn/Documents/Zinnia-tools/Products/software/UPDI4AVR-USB/src/nvmv3.cpp:150
    }
    else if (m_type == 0xB0) {
    1a18:	b7 db       	rcall	.-2194   	; 0x1188 <NVM::V3::write_eeprom(unsigned long, unsigned int) [clone .part.3]>
    1a1a:	d0 cf       	rjmp	.-96     	; 0x19bc <NVM::V3::write_memory()+0x12>
write_memory():
/Users/askn/Documents/Zinnia-tools/Products/software/UPDI4AVR-USB/src/nvmv3.cpp:152
      /* MTYPE_FLASH_PAGE (PROGMEM) */
      _dwAddr += PROG_START;
    1a1c:	80 3c       	cpi	r24, 0xC0	; 192
    1a1e:	11 f0       	breq	.+4      	; 0x1a24 <NVM::V3::write_memory()+0x7a>
    1a20:	85 3c       	cpi	r24, 0xC5	; 197
    1a22:	29 f4       	brne	.+10     	; 0x1a2e <NVM::V3::write_memory()+0x84>
/Users/askn/Documents/Zinnia-tools/Products/software/UPDI4AVR-USB/src/nvmv3.cpp:153
      return write_words_flash(_dwAddr, _wLength);
    1a24:	ae 01       	movw	r20, r28
    1a26:	c7 01       	movw	r24, r14
    1a28:	b6 01       	movw	r22, r12
    1a2a:	dd db       	rcall	.-2118   	; 0x11e6 <NVM::V3::write_bytes_flash(unsigned long, unsigned int)>
/Users/askn/Documents/Zinnia-tools/Products/software/UPDI4AVR-USB/src/nvmv3.cpp:157
    }
    else {
      /* MTYPE_SRAM */
      return UPDI::send_bytes_block(_dwAddr, _wLength);
    1a2c:	c7 cf       	rjmp	.-114    	; 0x19bc <NVM::V3::write_memory()+0x12>
    1a2e:	80 3b       	cpi	r24, 0xB0	; 176
    1a30:	39 f4       	brne	.+14     	; 0x1a40 <NVM::V3::write_memory()+0x96>
    1a32:	c7 01       	movw	r24, r14
    1a34:	b6 01       	movw	r22, r12
    1a36:	80 58       	subi	r24, 0x80	; 128
/Users/askn/Documents/Zinnia-tools/Products/software/UPDI4AVR-USB/src/nvmv2.cpp:155
    /* Page erase will not be used if received. */
    /* Instead, page erase is determined by the is_boundary_flash_page function. */
    return 1;
  }

  size_t write_memory (void) {
    1a38:	9f 4f       	sbci	r25, 0xFF	; 255
    1a3a:	ae 01       	movw	r20, r28
    1a3c:	fa db       	rcall	.-2060   	; 0x1232 <NVM::V3::write_words_flash(unsigned long, unsigned int)>
    1a3e:	be cf       	rjmp	.-132    	; 0x19bc <NVM::V3::write_memory()+0x12>
    1a40:	ae 01       	movw	r20, r28
    1a42:	c7 01       	movw	r24, r14
/Users/askn/Documents/Zinnia-tools/Products/software/UPDI4AVR-USB/src/nvmv2.cpp:159
    uint8_t   m_type = packet.out.bMType;
    uint32_t _dwAddr = packet.out.dwAddr;
    size_t  _wLength = packet.out.dwLength;
    if (bit_is_clear(PGCONF, PGCONF_PROG_bp)) return UPDI::write_userrow();
    1a44:	b6 01       	movw	r22, r12
    1a46:	3e d9       	rcall	.-3460   	; 0xcc4 <UPDI::send_bytes_block(unsigned long, unsigned int)>
    1a48:	b9 cf       	rjmp	.-142    	; 0x19bc <NVM::V3::write_memory()+0x12>

00001a4a <NVM::V2::write_memory()>:
    1a4a:	cf 92       	push	r12
/Users/askn/Documents/Zinnia-tools/Products/software/UPDI4AVR-USB/src/nvmv2.cpp:179
      _dwAddr += PROG_START;
      return write_words_flash(_dwAddr, _wLength);
    }
    else {
      /* MTYPE_SRAM */
      return UPDI::send_bytes_block(_dwAddr, _wLength);
    1a4c:	df 92       	push	r13
/Users/askn/Documents/Zinnia-tools/Products/software/UPDI4AVR-USB/src/nvmv2.cpp:181
    }
  }
    1a4e:	ef 92       	push	r14
    1a50:	ff 92       	push	r15
    1a52:	cf 93       	push	r28
    1a54:	df 93       	push	r29
    1a56:	e9 99       	sbic	0x1d, 1	; 29
    1a58:	09 c0       	rjmp	.+18     	; 0x1a6c <NVM::V2::write_memory()+0x22>
    1a5a:	2b de       	rcall	.-938    	; 0x16b2 <UPDI::write_userrow()>
/Users/askn/Documents/Zinnia-tools/Products/software/UPDI4AVR-USB/src/nvmv2.cpp:156
    /* Instead, page erase is determined by the is_boundary_flash_page function. */
    return 1;
  }

  size_t write_memory (void) {
    uint8_t   m_type = packet.out.bMType;
    1a5c:	90 e0       	ldi	r25, 0x00	; 0
    1a5e:	df 91       	pop	r29
/Users/askn/Documents/Zinnia-tools/Products/software/UPDI4AVR-USB/src/nvmv2.cpp:157
    uint32_t _dwAddr = packet.out.dwAddr;
    1a60:	cf 91       	pop	r28
    1a62:	ff 90       	pop	r15
    1a64:	ef 90       	pop	r14
    1a66:	df 90       	pop	r13
    1a68:	cf 90       	pop	r12
    1a6a:	08 95       	ret
    1a6c:	80 91 d5 60 	lds	r24, 0x60D5	; 0x8060d5 <packet+0x7>
/Users/askn/Documents/Zinnia-tools/Products/software/UPDI4AVR-USB/src/nvmv2.cpp:158
    size_t  _wLength = packet.out.dwLength;
    1a70:	c0 90 d6 60 	lds	r12, 0x60D6	; 0x8060d6 <packet+0x8>
    1a74:	d0 90 d7 60 	lds	r13, 0x60D7	; 0x8060d7 <packet+0x9>
/Users/askn/Documents/Zinnia-tools/Products/software/UPDI4AVR-USB/src/nvmv2.cpp:160
    if (bit_is_clear(PGCONF, PGCONF_PROG_bp)) return UPDI::write_userrow();
    if (m_type == 0x22 || m_type == 0xB2 || m_type == 0xB3 || m_type == 0xC4) {
    1a78:	e0 90 d8 60 	lds	r14, 0x60D8	; 0x8060d8 <packet+0xa>
    1a7c:	f0 90 d9 60 	lds	r15, 0x60D9	; 0x8060d9 <packet+0xb>
    1a80:	c0 91 da 60 	lds	r28, 0x60DA	; 0x8060da <packet+0xc>
    1a84:	d0 91 db 60 	lds	r29, 0x60DB	; 0x8060db <packet+0xd>
/Users/askn/Documents/Zinnia-tools/Products/software/UPDI4AVR-USB/src/nvmv2.cpp:105
  }

  bool write_eeprom (uint32_t _dwAddr, size_t _wLength) {
    D2PRINTF(" NVM_V2_EEERWR=%06lX\r\n", _dwAddr);
    return (
      nvm_ctrl_change(0x13)   /* NVM_V2_CMD_EEERWR */
    1a88:	82 32       	cpi	r24, 0x22	; 34
    1a8a:	31 f0       	breq	.+12     	; 0x1a98 <NVM::V2::write_memory()+0x4e>
/Users/askn/Documents/Zinnia-tools/Products/software/UPDI4AVR-USB/src/nvmv2.cpp:108
      && UPDI::send_bytes_block_slow(_dwAddr, _wLength)
      && (nvm_wait() & 0x73) == 0
      && nvm_ctrl_change(0x00)
    1a8c:	9e e4       	ldi	r25, 0x4E	; 78
    1a8e:	98 0f       	add	r25, r24
/Users/askn/Documents/Zinnia-tools/Products/software/UPDI4AVR-USB/src/nvmv2.cpp:87
    D2PRINTF(" NVM_V2_FLWR=%06lX\r\n", _dwAddr);
    return (
      nvm_ctrl_change(0x02)   /* NVM_V2_CMD_FLWR */
      && UPDI::send_words_block(_dwAddr, _wLength)
      && (nvm_wait() & 0x73) == 0
      && nvm_ctrl_change(0x00)
    1a90:	92 30       	cpi	r25, 0x02	; 2
    1a92:	10 f0       	brcs	.+4      	; 0x1a98 <NVM::V2::write_memory()+0x4e>
/Users/askn/Documents/Zinnia-tools/Products/software/UPDI4AVR-USB/src/nvmv2.cpp:106

  bool write_eeprom (uint32_t _dwAddr, size_t _wLength) {
    D2PRINTF(" NVM_V2_EEERWR=%06lX\r\n", _dwAddr);
    return (
      nvm_ctrl_change(0x13)   /* NVM_V2_CMD_EEERWR */
      && UPDI::send_bytes_block_slow(_dwAddr, _wLength)
    1a94:	84 3c       	cpi	r24, 0xC4	; 196
    1a96:	89 f4       	brne	.+34     	; 0x1aba <NVM::V2::write_memory()+0x70>
write_eeprom():
    1a98:	83 e1       	ldi	r24, 0x13	; 19
    1a9a:	21 dc       	rcall	.-1982   	; 0x12de <NVM::V2::nvm_ctrl_change(unsigned char)>
    1a9c:	81 11       	cpse	r24, r1
    1a9e:	02 c0       	rjmp	.+4      	; 0x1aa4 <NVM::V2::write_memory()+0x5a>
write_memory():
    1aa0:	80 e0       	ldi	r24, 0x00	; 0
/Users/askn/Documents/Zinnia-tools/Products/software/UPDI4AVR-USB/src/nvmv2.cpp:107
      && (nvm_wait() & 0x73) == 0
    1aa2:	dc cf       	rjmp	.-72     	; 0x1a5c <NVM::V2::write_memory()+0x12>
write_eeprom():
    1aa4:	ae 01       	movw	r20, r28
    1aa6:	c7 01       	movw	r24, r14
    1aa8:	b6 01       	movw	r22, r12
    1aaa:	6a d9       	rcall	.-3372   	; 0xd80 <UPDI::send_bytes_block_slow(unsigned long, unsigned int)>
    1aac:	88 23       	and	r24, r24
/Users/askn/Documents/Zinnia-tools/Products/software/UPDI4AVR-USB/src/nvmv2.cpp:167
      /* MTYPE_LOCK_BITS */
      /* MTYPE_EEPROM */
      /* MTYPE_EEPROM_XMEGA */
      return write_eeprom(_dwAddr, _wLength);
    }
    else if (m_type == 0xC0 || m_type == 0xC5) {
    1aae:	c1 f3       	breq	.-16     	; 0x1aa0 <NVM::V2::write_memory()+0x56>
    1ab0:	04 dc       	rcall	.-2040   	; 0x12ba <NVM::V0::nvm_wait()>
    1ab2:	83 77       	andi	r24, 0x73	; 115
    1ab4:	a9 f7       	brne	.-22     	; 0x1aa0 <NVM::V2::write_memory()+0x56>
/Users/askn/Documents/Zinnia-tools/Products/software/UPDI4AVR-USB/src/nvmv2.cpp:92
      && nvm_ctrl_change(0x00)
    );
  }

  bool write_bytes_flash (uint32_t _dwAddr, size_t _wLength) {
    if (SYS::is_boundary_flash_page(_dwAddr)) erase_flash_page(_dwAddr);
    1ab6:	30 dc       	rcall	.-1952   	; 0x1318 <NVM::V2::write_eeprom(unsigned long, unsigned int) [clone .part.5]>
    1ab8:	d1 cf       	rjmp	.-94     	; 0x1a5c <NVM::V2::write_memory()+0x12>
write_memory():
    1aba:	80 3c       	cpi	r24, 0xC0	; 192
    1abc:	11 f0       	breq	.+4      	; 0x1ac2 <NVM::V2::write_memory()+0x78>
    1abe:	85 3c       	cpi	r24, 0xC5	; 197
    1ac0:	b9 f4       	brne	.+46     	; 0x1af0 <NVM::V2::write_memory()+0xa6>
write_bytes_flash():
    1ac2:	c7 01       	movw	r24, r14
    1ac4:	b6 01       	movw	r22, r12
/Users/askn/Documents/Zinnia-tools/Products/software/UPDI4AVR-USB/src/nvmv2.cpp:95
    D2PRINTF(" NVM_V2_FLWR=%06lX\r\n", _dwAddr);
    return (
      nvm_ctrl_change(0x02)   /* NVM_V2_CMD_FLWR */
    1ac6:	f4 da       	rcall	.-2584   	; 0x10b0 <SYS::is_boundary_flash_page(unsigned long)>
    1ac8:	88 23       	and	r24, r24
    1aca:	19 f0       	breq	.+6      	; 0x1ad2 <NVM::V2::write_memory()+0x88>
/Users/askn/Documents/Zinnia-tools/Products/software/UPDI4AVR-USB/src/nvmv2.cpp:98
      && UPDI::send_bytes_block_slow(_dwAddr, _wLength)
      && (nvm_wait() & 0x73) == 0
      && nvm_ctrl_change(0x00)
    1acc:	c7 01       	movw	r24, r14
    1ace:	b6 01       	movw	r22, r12
/Users/askn/Documents/Zinnia-tools/Products/software/UPDI4AVR-USB/src/nvmv2.cpp:96
  bool write_bytes_flash (uint32_t _dwAddr, size_t _wLength) {
    if (SYS::is_boundary_flash_page(_dwAddr)) erase_flash_page(_dwAddr);
    D2PRINTF(" NVM_V2_FLWR=%06lX\r\n", _dwAddr);
    return (
      nvm_ctrl_change(0x02)   /* NVM_V2_CMD_FLWR */
      && UPDI::send_bytes_block_slow(_dwAddr, _wLength)
    1ad0:	25 dc       	rcall	.-1974   	; 0x131c <NVM::V2::erase_flash_page(unsigned long)>
    1ad2:	82 e0       	ldi	r24, 0x02	; 2
    1ad4:	04 dc       	rcall	.-2040   	; 0x12de <NVM::V2::nvm_ctrl_change(unsigned char)>
    1ad6:	88 23       	and	r24, r24
    1ad8:	19 f3       	breq	.-58     	; 0x1aa0 <NVM::V2::write_memory()+0x56>
    1ada:	ae 01       	movw	r20, r28
/Users/askn/Documents/Zinnia-tools/Products/software/UPDI4AVR-USB/src/nvmv2.cpp:97
      && (nvm_wait() & 0x73) == 0
    1adc:	c7 01       	movw	r24, r14
    1ade:	b6 01       	movw	r22, r12
    1ae0:	4f d9       	rcall	.-3426   	; 0xd80 <UPDI::send_bytes_block_slow(unsigned long, unsigned int)>
    1ae2:	88 23       	and	r24, r24
    1ae4:	e9 f2       	breq	.-70     	; 0x1aa0 <NVM::V2::write_memory()+0x56>
    1ae6:	e9 db       	rcall	.-2094   	; 0x12ba <NVM::V0::nvm_wait()>
/Users/askn/Documents/Zinnia-tools/Products/software/UPDI4AVR-USB/src/nvmv2.cpp:172
    else if (m_type == 0xC0 || m_type == 0xC5) {
      /* MTYPE_FLASH (alias) */
      /* MTYPE_USERSIG (USERROW) */
      return write_bytes_flash(_dwAddr, _wLength);
    }
    else if (m_type == 0xB0) {
    1ae8:	83 77       	andi	r24, 0x73	; 115
    1aea:	d1 f6       	brne	.-76     	; 0x1aa0 <NVM::V2::write_memory()+0x56>
/Users/askn/Documents/Zinnia-tools/Products/software/UPDI4AVR-USB/src/nvmv2.cpp:174
      /* MTYPE_FLASH_PAGE (PROGMEM) */
      _dwAddr += PROG_START;
    1aec:	15 dc       	rcall	.-2006   	; 0x1318 <NVM::V2::write_eeprom(unsigned long, unsigned int) [clone .part.5]>
    1aee:	b6 cf       	rjmp	.-148    	; 0x1a5c <NVM::V2::write_memory()+0x12>
write_memory():
    1af0:	80 3b       	cpi	r24, 0xB0	; 176
/Users/askn/Documents/Zinnia-tools/Products/software/UPDI4AVR-USB/src/nvmv2.cpp:81
    );
  }

  bool write_words_flash (uint32_t _dwAddr, size_t _wLength) {
    if (bit_is_clear(PGCONF, PGCONF_ERSE_bp)
      && SYS::is_boundary_flash_page(_dwAddr)) erase_flash_page(_dwAddr);
    1af2:	f9 f4       	brne	.+62     	; 0x1b32 <NVM::V2::write_memory()+0xe8>
    1af4:	80 e8       	ldi	r24, 0x80	; 128
    1af6:	e8 0e       	add	r14, r24
    1af8:	f1 1c       	adc	r15, r1
write_words_flash():
    1afa:	ea 99       	sbic	0x1d, 2	; 29
    1afc:	08 c0       	rjmp	.+16     	; 0x1b0e <NVM::V2::write_memory()+0xc4>
    1afe:	c7 01       	movw	r24, r14
    1b00:	b6 01       	movw	r22, r12
    1b02:	d6 da       	rcall	.-2644   	; 0x10b0 <SYS::is_boundary_flash_page(unsigned long)>
    1b04:	88 23       	and	r24, r24
    1b06:	19 f0       	breq	.+6      	; 0x1b0e <NVM::V2::write_memory()+0xc4>
    1b08:	c7 01       	movw	r24, r14
/Users/askn/Documents/Zinnia-tools/Products/software/UPDI4AVR-USB/src/nvmv2.cpp:84
    D2PRINTF(" NVM_V2_FLWR=%06lX\r\n", _dwAddr);
    return (
      nvm_ctrl_change(0x02)   /* NVM_V2_CMD_FLWR */
    1b0a:	b6 01       	movw	r22, r12
    1b0c:	07 dc       	rcall	.-2034   	; 0x131c <NVM::V2::erase_flash_page(unsigned long)>
/Users/askn/Documents/Zinnia-tools/Products/software/UPDI4AVR-USB/src/nvmv2.cpp:87
      && UPDI::send_words_block(_dwAddr, _wLength)
      && (nvm_wait() & 0x73) == 0
      && nvm_ctrl_change(0x00)
    1b0e:	82 e0       	ldi	r24, 0x02	; 2
    1b10:	e6 db       	rcall	.-2100   	; 0x12de <NVM::V2::nvm_ctrl_change(unsigned char)>
/Users/askn/Documents/Zinnia-tools/Products/software/UPDI4AVR-USB/src/nvmv2.cpp:85
    if (bit_is_clear(PGCONF, PGCONF_ERSE_bp)
      && SYS::is_boundary_flash_page(_dwAddr)) erase_flash_page(_dwAddr);
    D2PRINTF(" NVM_V2_FLWR=%06lX\r\n", _dwAddr);
    return (
      nvm_ctrl_change(0x02)   /* NVM_V2_CMD_FLWR */
      && UPDI::send_words_block(_dwAddr, _wLength)
    1b12:	88 23       	and	r24, r24
    1b14:	09 f4       	brne	.+2      	; 0x1b18 <NVM::V2::write_memory()+0xce>
    1b16:	c4 cf       	rjmp	.-120    	; 0x1aa0 <NVM::V2::write_memory()+0x56>
    1b18:	ae 01       	movw	r20, r28
    1b1a:	c7 01       	movw	r24, r14
    1b1c:	b6 01       	movw	r22, r12
/Users/askn/Documents/Zinnia-tools/Products/software/UPDI4AVR-USB/src/nvmv2.cpp:86
      && (nvm_wait() & 0x73) == 0
    1b1e:	94 d8       	rcall	.-3800   	; 0xc48 <UPDI::send_words_block(unsigned long, unsigned int)>
    1b20:	88 23       	and	r24, r24
    1b22:	09 f4       	brne	.+2      	; 0x1b26 <NVM::V2::write_memory()+0xdc>
    1b24:	bd cf       	rjmp	.-134    	; 0x1aa0 <NVM::V2::write_memory()+0x56>
    1b26:	c9 db       	rcall	.-2158   	; 0x12ba <NVM::V0::nvm_wait()>
    1b28:	83 77       	andi	r24, 0x73	; 115
    1b2a:	09 f0       	breq	.+2      	; 0x1b2e <NVM::V2::write_memory()+0xe4>
/Users/askn/Documents/Zinnia-tools/Products/software/UPDI4AVR-USB/src/nvmv2.cpp:179
      _dwAddr += PROG_START;
      return write_words_flash(_dwAddr, _wLength);
    }
    else {
      /* MTYPE_SRAM */
      return UPDI::send_bytes_block(_dwAddr, _wLength);
    1b2c:	b9 cf       	rjmp	.-142    	; 0x1aa0 <NVM::V2::write_memory()+0x56>
    1b2e:	f4 db       	rcall	.-2072   	; 0x1318 <NVM::V2::write_eeprom(unsigned long, unsigned int) [clone .part.5]>
    1b30:	95 cf       	rjmp	.-214    	; 0x1a5c <NVM::V2::write_memory()+0x12>
write_memory():
    1b32:	ae 01       	movw	r20, r28
    1b34:	c7 01       	movw	r24, r14
/Users/askn/Documents/Zinnia-tools/Products/software/UPDI4AVR-USB/src/nvmv0.cpp:142
    }
    /* Page erase will not be used if received. */
    return 1;
  }

  size_t write_memory (void) {
    1b36:	b6 01       	movw	r22, r12
    1b38:	c5 d8       	rcall	.-3702   	; 0xcc4 <UPDI::send_bytes_block(unsigned long, unsigned int)>
    1b3a:	90 cf       	rjmp	.-224    	; 0x1a5c <NVM::V2::write_memory()+0x12>

00001b3c <NVM::V0::write_memory()>:
    1b3c:	4f 92       	push	r4
    1b3e:	5f 92       	push	r5
    1b40:	6f 92       	push	r6
    1b42:	7f 92       	push	r7
    1b44:	af 92       	push	r10
    1b46:	bf 92       	push	r11
    1b48:	cf 92       	push	r12
    1b4a:	df 92       	push	r13
    1b4c:	ef 92       	push	r14
    1b4e:	ff 92       	push	r15
    1b50:	0f 93       	push	r16
    1b52:	1f 93       	push	r17
    1b54:	cf 93       	push	r28
    1b56:	df 93       	push	r29
/Users/askn/Documents/Zinnia-tools/Products/software/UPDI4AVR-USB/src/nvmv0.cpp:146
    uint8_t  m_type = packet.out.bMType;
    uint16_t _wAddr = packet.out.dwAddr;
    size_t _wLength = packet.out.dwLength;
    if (bit_is_clear(PGCONF, PGCONF_PROG_bp)) return UPDI::write_userrow();
    1b58:	00 d0       	rcall	.+0      	; 0x1b5a <NVM::V0::write_memory()+0x1e>
    1b5a:	00 d0       	rcall	.+0      	; 0x1b5c <NVM::V0::write_memory()+0x20>
    1b5c:	cd b7       	in	r28, 0x3d	; 61
    1b5e:	de b7       	in	r29, 0x3e	; 62
/Users/askn/Documents/Zinnia-tools/Products/software/UPDI4AVR-USB/src/nvmv0.cpp:166
      _wAddr += Device_Descriptor.UPDI.prog_base;
      return write_flash(_wAddr, _wLength);
    }
    else {
      /* MTYPE_SRAM */
      return UPDI::send_bytes_block(_wAddr, _wLength);
    1b60:	e9 99       	sbic	0x1d, 1	; 29
/Users/askn/Documents/Zinnia-tools/Products/software/UPDI4AVR-USB/src/nvmv0.cpp:168
    }
  }
    1b62:	14 c0       	rjmp	.+40     	; 0x1b8c <NVM::V0::write_memory()+0x50>
    1b64:	a6 dd       	rcall	.-1204   	; 0x16b2 <UPDI::write_userrow()>
    1b66:	90 e0       	ldi	r25, 0x00	; 0
    1b68:	24 96       	adiw	r28, 0x04	; 4
    1b6a:	cd bf       	out	0x3d, r28	; 61
    1b6c:	de bf       	out	0x3e, r29	; 62
    1b6e:	df 91       	pop	r29
    1b70:	cf 91       	pop	r28
    1b72:	1f 91       	pop	r17
    1b74:	0f 91       	pop	r16
    1b76:	ff 90       	pop	r15
    1b78:	ef 90       	pop	r14
    1b7a:	df 90       	pop	r13
    1b7c:	cf 90       	pop	r12
    1b7e:	bf 90       	pop	r11
    1b80:	af 90       	pop	r10
    1b82:	7f 90       	pop	r7
    1b84:	6f 90       	pop	r6
/Users/askn/Documents/Zinnia-tools/Products/software/UPDI4AVR-USB/src/nvmv0.cpp:143
    /* Page erase will not be used if received. */
    return 1;
  }

  size_t write_memory (void) {
    uint8_t  m_type = packet.out.bMType;
    1b86:	5f 90       	pop	r5
    1b88:	4f 90       	pop	r4
/Users/askn/Documents/Zinnia-tools/Products/software/UPDI4AVR-USB/src/nvmv0.cpp:144
    uint16_t _wAddr = packet.out.dwAddr;
    1b8a:	08 95       	ret
    1b8c:	80 91 d5 60 	lds	r24, 0x60D5	; 0x8060d5 <packet+0x7>
    1b90:	c0 90 d6 60 	lds	r12, 0x60D6	; 0x8060d6 <packet+0x8>
    1b94:	d0 90 d7 60 	lds	r13, 0x60D7	; 0x8060d7 <packet+0x9>
    1b98:	e0 90 d8 60 	lds	r14, 0x60D8	; 0x8060d8 <packet+0xa>
/Users/askn/Documents/Zinnia-tools/Products/software/UPDI4AVR-USB/src/nvmv0.cpp:145
    size_t _wLength = packet.out.dwLength;
    1b9c:	f0 90 d9 60 	lds	r15, 0x60D9	; 0x8060d9 <packet+0xb>
    1ba0:	96 01       	movw	r18, r12
    1ba2:	00 91 da 60 	lds	r16, 0x60DA	; 0x8060da <packet+0xc>
/Users/askn/Documents/Zinnia-tools/Products/software/UPDI4AVR-USB/src/nvmv0.cpp:147
    if (bit_is_clear(PGCONF, PGCONF_PROG_bp)) return UPDI::write_userrow();
    if (m_type == 0xB2 || m_type == 0xB3) {
    1ba6:	10 91 db 60 	lds	r17, 0x60DB	; 0x8060db <packet+0xd>
    1baa:	9e e4       	ldi	r25, 0x4E	; 78
    1bac:	98 0f       	add	r25, r24
    1bae:	92 30       	cpi	r25, 0x02	; 2
    1bb0:	08 f0       	brcs	.+2      	; 0x1bb4 <NVM::V0::write_memory()+0x78>
    1bb2:	44 c0       	rjmp	.+136    	; 0x1c3c <NVM::V0::write_memory()+0x100>
    1bb4:	8e ec       	ldi	r24, 0xCE	; 206
/Users/askn/Documents/Zinnia-tools/Products/software/UPDI4AVR-USB/src/nvmv0.cpp:73
      uint16_t data;  /* NVMCTRL_REG_DATA */
      uint16_t addr;  /* NVMCTRL_REG_ADDR */
    } fuses;
    for (size_t _i = 0; _i < _wLength; _i++) {
      fuses.data = packet.out.memData[_i];
      fuses.addr = _wAddr + _i;
    1bb6:	e8 2e       	mov	r14, r24
    1bb8:	80 e6       	ldi	r24, 0x60	; 96
    1bba:	f8 2e       	mov	r15, r24
write_fuse():
    1bbc:	c9 01       	movw	r24, r18
/Users/askn/Documents/Zinnia-tools/Products/software/UPDI4AVR-USB/src/nvmv0.cpp:71
  bool write_fuse (uint16_t _wAddr, size_t _wLength) {
    struct fuse_packet_t {
      uint16_t data;  /* NVMCTRL_REG_DATA */
      uint16_t addr;  /* NVMCTRL_REG_ADDR */
    } fuses;
    for (size_t _i = 0; _i < _wLength; _i++) {
    1bbe:	8e 5c       	subi	r24, 0xCE	; 206
    1bc0:	90 46       	sbci	r25, 0x60	; 96
    1bc2:	6c 01       	movw	r12, r24
    1bc4:	c7 01       	movw	r24, r14
    1bc6:	8e 5c       	subi	r24, 0xCE	; 206
    1bc8:	90 46       	sbci	r25, 0x60	; 96
/Users/askn/Documents/Zinnia-tools/Products/software/UPDI4AVR-USB/src/nvmv0.cpp:72
      fuses.data = packet.out.memData[_i];
    1bca:	80 17       	cp	r24, r16
    1bcc:	91 07       	cpc	r25, r17
    1bce:	a0 f5       	brcc	.+104    	; 0x1c38 <NVM::V0::write_memory()+0xfc>
    1bd0:	f7 01       	movw	r30, r14
    1bd2:	81 89       	ldd	r24, Z+17	; 0x11
/Users/askn/Documents/Zinnia-tools/Products/software/UPDI4AVR-USB/src/nvmv0.cpp:73
      fuses.addr = _wAddr + _i;
    1bd4:	90 e0       	ldi	r25, 0x00	; 0
    1bd6:	89 83       	std	Y+1, r24	; 0x01
    1bd8:	9a 83       	std	Y+2, r25	; 0x02
    1bda:	c6 01       	movw	r24, r12
    1bdc:	8e 0d       	add	r24, r14
/Users/askn/Documents/Zinnia-tools/Products/software/UPDI4AVR-USB/src/nvmv0.cpp:75
      D2PRINTF(" NVM_V0_WFU=%04X<%02X\r\n", fuses.addr, fuses.data);
      nvm_wait();
    1bde:	9f 1d       	adc	r25, r15
    1be0:	8b 83       	std	Y+3, r24	; 0x03
    1be2:	9c 83       	std	Y+4, r25	; 0x04
    1be4:	6a db       	rcall	.-2348   	; 0x12ba <NVM::V0::nvm_wait()>
    1be6:	ce 01       	movw	r24, r28
    1be8:	01 96       	adiw	r24, 0x01	; 1
    1bea:	5c 01       	movw	r10, r24
    1bec:	66 e0       	ldi	r22, 0x06	; 6
    1bee:	70 e1       	ldi	r23, 0x10	; 16
/Users/askn/Documents/Zinnia-tools/Products/software/UPDI4AVR-USB/src/updi.cpp:202
      && clear_rsd();
  }

  bool send_bytes_data (uint32_t _dwAddr, uint8_t* _data, size_t _wLength) {
    for (size_t _i = 0; _i < _wLength; _i++) {
      if (!send_byte(_dwAddr++, *_data++)) return false;
    1bf0:	80 e0       	ldi	r24, 0x00	; 0
    1bf2:	90 e0       	ldi	r25, 0x00	; 0
send_bytes_data():
    1bf4:	f5 01       	movw	r30, r10
    1bf6:	41 91       	ld	r20, Z+
    1bf8:	5f 01       	movw	r10, r30
    1bfa:	2b 01       	movw	r4, r22
    1bfc:	3c 01       	movw	r6, r24
    1bfe:	ff ef       	ldi	r31, 0xFF	; 255
    1c00:	4f 1a       	sub	r4, r31
    1c02:	5f 0a       	sbc	r5, r31
    1c04:	6f 0a       	sbc	r6, r31
    1c06:	7f 0a       	sbc	r7, r31
    1c08:	98 d8       	rcall	.-3792   	; 0xd3a <UPDI::send_byte(unsigned long, unsigned char)>
    1c0a:	81 11       	cpse	r24, r1
/Users/askn/Documents/Zinnia-tools/Products/software/UPDI4AVR-USB/src/nvmv0.cpp:78
      if (!(UPDI::send_bytes_data(NVM_DATA, (uint8_t*)&fuses, 4)
        && UPDI::nvm_ctrl(0x07)   /* NVM_CMD_WFU */
        && (nvm_wait() & 7) == 0)) return false;
    1c0c:	02 c0       	rjmp	.+4      	; 0x1c12 <NVM::V0::write_memory()+0xd6>
write_memory():
    1c0e:	80 e0       	ldi	r24, 0x00	; 0
    1c10:	aa cf       	rjmp	.-172    	; 0x1b66 <NVM::V0::write_memory()+0x2a>
    1c12:	c3 01       	movw	r24, r6
/Users/askn/Documents/Zinnia-tools/Products/software/UPDI4AVR-USB/src/updi.cpp:201
      && send_bytes(&packet.out.memData[0], _wLength & ~1)
      && clear_rsd();
  }

  bool send_bytes_data (uint32_t _dwAddr, uint8_t* _data, size_t _wLength) {
    for (size_t _i = 0; _i < _wLength; _i++) {
    1c14:	b2 01       	movw	r22, r4
send_bytes_data():
    1c16:	6a 30       	cpi	r22, 0x0A	; 10
    1c18:	20 e1       	ldi	r18, 0x10	; 16
    1c1a:	72 07       	cpc	r23, r18
    1c1c:	81 05       	cpc	r24, r1
    1c1e:	91 05       	cpc	r25, r1
/Users/askn/Documents/Zinnia-tools/Products/software/UPDI4AVR-USB/src/nvmv0.cpp:77
      fuses.data = packet.out.memData[_i];
      fuses.addr = _wAddr + _i;
      D2PRINTF(" NVM_V0_WFU=%04X<%02X\r\n", fuses.addr, fuses.data);
      nvm_wait();
      if (!(UPDI::send_bytes_data(NVM_DATA, (uint8_t*)&fuses, 4)
        && UPDI::nvm_ctrl(0x07)   /* NVM_CMD_WFU */
    1c20:	49 f7       	brne	.-46     	; 0x1bf4 <NVM::V0::write_memory()+0xb8>
write_fuse():
    1c22:	87 e0       	ldi	r24, 0x07	; 7
    1c24:	a7 d8       	rcall	.-3762   	; 0xd74 <UPDI::nvm_ctrl(unsigned char)>
    1c26:	88 23       	and	r24, r24
    1c28:	91 f3       	breq	.-28     	; 0x1c0e <NVM::V0::write_memory()+0xd2>
/Users/askn/Documents/Zinnia-tools/Products/software/UPDI4AVR-USB/src/nvmv0.cpp:78
        && (nvm_wait() & 7) == 0)) return false;
    1c2a:	47 db       	rcall	.-2418   	; 0x12ba <NVM::V0::nvm_wait()>
    1c2c:	9f ef       	ldi	r25, 0xFF	; 255
    1c2e:	e9 1a       	sub	r14, r25
    1c30:	f9 0a       	sbc	r15, r25
    1c32:	87 70       	andi	r24, 0x07	; 7
/Users/askn/Documents/Zinnia-tools/Products/software/UPDI4AVR-USB/src/nvmv0.cpp:76
    for (size_t _i = 0; _i < _wLength; _i++) {
      fuses.data = packet.out.memData[_i];
      fuses.addr = _wAddr + _i;
      D2PRINTF(" NVM_V0_WFU=%04X<%02X\r\n", fuses.addr, fuses.data);
      nvm_wait();
      if (!(UPDI::send_bytes_data(NVM_DATA, (uint8_t*)&fuses, 4)
    1c34:	39 f2       	breq	.-114    	; 0x1bc4 <NVM::V0::write_memory()+0x88>
    1c36:	eb cf       	rjmp	.-42     	; 0x1c0e <NVM::V0::write_memory()+0xd2>
write_memory():
    1c38:	81 e0       	ldi	r24, 0x01	; 1
/Users/askn/Documents/Zinnia-tools/Products/software/UPDI4AVR-USB/src/nvmv0.cpp:80
        && UPDI::nvm_ctrl(0x07)   /* NVM_CMD_WFU */
        && (nvm_wait() & 7) == 0)) return false;
    }
    return true;
    1c3a:	95 cf       	rjmp	.-214    	; 0x1b66 <NVM::V0::write_memory()+0x2a>
    1c3c:	82 32       	cpi	r24, 0x22	; 34
/Users/askn/Documents/Zinnia-tools/Products/software/UPDI4AVR-USB/src/nvmv0.cpp:152
    if (m_type == 0xB2 || m_type == 0xB3) {
      /* MTYPE_FUSE_BITS */
      /* MTYPE_LOCK_BITS */
      return write_fuse(_wAddr, _wLength);
    }
    else if (m_type == 0x22 || m_type == 0xC4 || m_type == 0xC5) {
    1c3e:	21 f0       	breq	.+8      	; 0x1c48 <NVM::V0::write_memory()+0x10c>
    1c40:	9c e3       	ldi	r25, 0x3C	; 60
    1c42:	98 0f       	add	r25, r24
    1c44:	92 30       	cpi	r25, 0x02	; 2
    1c46:	58 f4       	brcc	.+22     	; 0x1c5e <NVM::V0::write_memory()+0x122>
write_eeprom():
    1c48:	38 db       	rcall	.-2448   	; 0x12ba <NVM::V0::nvm_wait()>
/Users/askn/Documents/Zinnia-tools/Products/software/UPDI4AVR-USB/src/nvmv0.cpp:99
    );
  }

  bool write_eeprom (uint16_t _wAddr, size_t _wLength) {
    D2PRINTF(" NVM_V0_ERWP=%04X\r\n", _wAddr);
    nvm_wait();
    1c4a:	c7 01       	movw	r24, r14
    1c4c:	b6 01       	movw	r22, r12
/Users/askn/Documents/Zinnia-tools/Products/software/UPDI4AVR-USB/src/nvmv0.cpp:101
    return (
      UPDI::send_bytes_block(_wAddr, _wLength)
    1c4e:	88 27       	eor	r24, r24
    1c50:	99 27       	eor	r25, r25
    1c52:	a8 01       	movw	r20, r16
write_flash():
    1c54:	37 d8       	rcall	.-3986   	; 0xcc4 <UPDI::send_bytes_block(unsigned long, unsigned int)>
    1c56:	81 11       	cpse	r24, r1
/Users/askn/Documents/Zinnia-tools/Products/software/UPDI4AVR-USB/src/nvmv0.cpp:91
      nvm_wait();
      UPDI::nvm_ctrl(0x04);       /* NVM_CMD_PBC */
    }
    nvm_wait();
    return (
      UPDI::send_bytes_block(_wAddr, _wLength)
    1c58:	1b c0       	rjmp	.+54     	; 0x1c90 <NVM::V0::write_memory()+0x154>
    1c5a:	90 e0       	ldi	r25, 0x00	; 0
/Users/askn/Documents/Zinnia-tools/Products/software/UPDI4AVR-USB/src/nvmv0.cpp:93
      && UPDI::nvm_ctrl(0x03)     /* NVM_CMD_ERWP */
      && (nvm_wait() & 7) == 0
    1c5c:	21 c0       	rjmp	.+66     	; 0x1ca0 <NVM::V0::write_memory()+0x164>
write_memory():
    1c5e:	80 3b       	cpi	r24, 0xB0	; 176
    1c60:	11 f0       	breq	.+4      	; 0x1c66 <NVM::V0::write_memory()+0x12a>
    1c62:	80 3c       	cpi	r24, 0xC0	; 192
/Users/askn/Documents/Zinnia-tools/Products/software/UPDI4AVR-USB/src/nvmv0.cpp:158
      /* MTYPE_EEPROM */
      /* MTYPE_EEPROM_XMEGA */
      /* MTYPE_USERSIG (USERROW) */
      return write_eeprom(_wAddr, _wLength);
    }
    else if (m_type == 0xB0 || m_type == 0xC0) {
    1c64:	f9 f4       	brne	.+62     	; 0x1ca4 <NVM::V0::write_memory()+0x168>
    1c66:	60 91 9e 60 	lds	r22, 0x609E	; 0x80609e <Device_Descriptor>
    1c6a:	70 91 9f 60 	lds	r23, 0x609F	; 0x80609f <Device_Descriptor+0x1>
/Users/askn/Documents/Zinnia-tools/Products/software/UPDI4AVR-USB/src/nvmv0.cpp:161
      /* MTYPE_FLASH_PAGE (PROGMEM) */
      /* MTYPE_FLASH (alias) */
      _wAddr += Device_Descriptor.UPDI.prog_base;
    1c6e:	c6 0e       	add	r12, r22
    1c70:	d7 1e       	adc	r13, r23
write_flash():
    1c72:	f1 2c       	mov	r15, r1
    1c74:	e1 2c       	mov	r14, r1
    1c76:	c7 01       	movw	r24, r14
/Users/askn/Documents/Zinnia-tools/Products/software/UPDI4AVR-USB/src/nvmv0.cpp:85
    return true;
  }

  bool write_flash (uint16_t _wAddr, size_t _wLength) {
    D2PRINTF(" NVM_V0_ERWP=%04X\r\n", _wAddr);
    if (SYS::is_boundary_flash_page(_wAddr)) {
    1c78:	b6 01       	movw	r22, r12
    1c7a:	1a da       	rcall	.-3020   	; 0x10b0 <SYS::is_boundary_flash_page(unsigned long)>
    1c7c:	88 23       	and	r24, r24
    1c7e:	19 f0       	breq	.+6      	; 0x1c86 <NVM::V0::write_memory()+0x14a>
    1c80:	1c db       	rcall	.-2504   	; 0x12ba <NVM::V0::nvm_wait()>
    1c82:	84 e0       	ldi	r24, 0x04	; 4
    1c84:	77 d8       	rcall	.-3858   	; 0xd74 <UPDI::nvm_ctrl(unsigned char)>
    1c86:	19 db       	rcall	.-2510   	; 0x12ba <NVM::V0::nvm_wait()>
/Users/askn/Documents/Zinnia-tools/Products/software/UPDI4AVR-USB/src/nvmv0.cpp:86
      nvm_wait();
    1c88:	a8 01       	movw	r20, r16
    1c8a:	c7 01       	movw	r24, r14
/Users/askn/Documents/Zinnia-tools/Products/software/UPDI4AVR-USB/src/nvmv0.cpp:87
      UPDI::nvm_ctrl(0x04);       /* NVM_CMD_PBC */
    1c8c:	b6 01       	movw	r22, r12
    1c8e:	e2 cf       	rjmp	.-60     	; 0x1c54 <NVM::V0::write_memory()+0x118>
    1c90:	83 e0       	ldi	r24, 0x03	; 3
/Users/askn/Documents/Zinnia-tools/Products/software/UPDI4AVR-USB/src/nvmv0.cpp:89
    }
    nvm_wait();
    1c92:	70 d8       	rcall	.-3872   	; 0xd74 <UPDI::nvm_ctrl(unsigned char)>
    1c94:	88 23       	and	r24, r24
/Users/askn/Documents/Zinnia-tools/Products/software/UPDI4AVR-USB/src/nvmv0.cpp:91
    return (
      UPDI::send_bytes_block(_wAddr, _wLength)
    1c96:	09 f3       	breq	.-62     	; 0x1c5a <NVM::V0::write_memory()+0x11e>
    1c98:	10 db       	rcall	.-2528   	; 0x12ba <NVM::V0::nvm_wait()>
    1c9a:	87 70       	andi	r24, 0x07	; 7
    1c9c:	91 e0       	ldi	r25, 0x01	; 1
/Users/askn/Documents/Zinnia-tools/Products/software/UPDI4AVR-USB/src/nvmv0.cpp:92
      && UPDI::nvm_ctrl(0x03)     /* NVM_CMD_ERWP */
    1c9e:	e9 f6       	brne	.-70     	; 0x1c5a <NVM::V0::write_memory()+0x11e>
write_memory():
    1ca0:	89 2f       	mov	r24, r25
    1ca2:	61 cf       	rjmp	.-318    	; 0x1b66 <NVM::V0::write_memory()+0x2a>
    1ca4:	c7 01       	movw	r24, r14
    1ca6:	b6 01       	movw	r22, r12
/Users/askn/Documents/Zinnia-tools/Products/software/UPDI4AVR-USB/src/nvmv0.cpp:93
      && (nvm_wait() & 7) == 0
    1ca8:	88 27       	eor	r24, r24
    1caa:	99 27       	eor	r25, r25
    1cac:	a8 01       	movw	r20, r16
    1cae:	0a d8       	rcall	.-4076   	; 0xcc4 <UPDI::send_bytes_block(unsigned long, unsigned int)>
    1cb0:	5a cf       	rjmp	.-332    	; 0x1b66 <NVM::V0::write_memory()+0x2a>

00001cb2 <SYS::reboot()>:
reboot():
/Users/askn/Documents/Zinnia-tools/Products/software/UPDI4AVR-USB/src/nvmv0.cpp:162
    }
    else if (m_type == 0xB0 || m_type == 0xC0) {
      /* MTYPE_FLASH_PAGE (PROGMEM) */
      /* MTYPE_FLASH (alias) */
      _wAddr += Device_Descriptor.UPDI.prog_base;
      return write_flash(_wAddr, _wLength);
    1cb2:	82 ed       	ldi	r24, 0xD2	; 210
    1cb4:	96 e0       	ldi	r25, 0x06	; 6
/Users/askn/Documents/Zinnia-tools/Products/software/UPDI4AVR-USB/src/nvmv0.cpp:166
    }
    else {
      /* MTYPE_SRAM */
      return UPDI::send_bytes_block(_wAddr, _wLength);
    1cb6:	9f 93       	push	r25
    1cb8:	8f 93       	push	r24
    1cba:	8d e8       	ldi	r24, 0x8D	; 141
    1cbc:	90 e6       	ldi	r25, 0x60	; 96
    1cbe:	9f 93       	push	r25
    1cc0:	8f 93       	push	r24
    1cc2:	cc db       	rcall	.-2152   	; 0x145c <Print::printf(PGM_t const*, ...) [clone .constprop.21]>
    1cc4:	e0 91 8f 60 	lds	r30, 0x608F	; 0x80608f <Serial1C+0x2>
/Users/askn/Documents/Zinnia-tools/Products/software/UPDI4AVR-USB/src/sys.cpp:303
   *
   * Always run it after the USB has stopped.
   */
  void reboot (void) {
  #if defined(DEBUG)
    D0PRINTF("<REBOOT>\r\n");
    1cc8:	f0 91 90 60 	lds	r31, 0x6090	; 0x806090 <Serial1C+0x3>
    1ccc:	0f 90       	pop	r0
    1cce:	0f 90       	pop	r0
    1cd0:	0f 90       	pop	r0
    1cd2:	0f 90       	pop	r0
_ZN14UsartBaseClass5flushEv.isra.0():
    1cd4:	84 81       	ldd	r24, Z+4	; 0x04
    1cd6:	86 ff       	sbrs	r24, 6
    1cd8:	fd cf       	rjmp	.-6      	; 0x1cd4 <SYS::reboot()+0x22>
reboot():
    1cda:	88 ed       	ldi	r24, 0xD8	; 216
    1cdc:	91 e0       	ldi	r25, 0x01	; 1
    1cde:	84 bf       	out	0x34, r24	; 52
    1ce0:	90 93 41 00 	sts	0x0041, r25	; 0x800041 <__TEXT_REGION_LENGTH__+0x7f0041>
    1ce4:	08 95       	ret

00001ce6 <Print::_print_integer(unsigned long, unsigned char, signed char, signed char) [clone .constprop.14]>:
_print_integer():
    1ce6:	3f 92       	push	r3
    1ce8:	4f 92       	push	r4
/Users/askn/Library/Arduino15/packages/MultiX-Zinnia/hardware/modernAVR/0.2.14/cores/modernAVR/api/UsartBaseClass.h:32
  using Print::write; // pull in write(str) and write(buf, size) from Print

  int read (void);

  void flush (void) {
    loop_until_bit_is_set(usart->STATUS, USART_TXCIF_bp);
    1cea:	5f 92       	push	r5
    1cec:	6f 92       	push	r6
    1cee:	7f 92       	push	r7
/Users/askn/Documents/Zinnia-tools/Products/software/UPDI4AVR-USB/src/sys.cpp:306
    Serial.flush();
  #endif
    _PROTECTED_WRITE(RSTCTRL_SWRR, 1);
    1cf0:	8f 92       	push	r8
    1cf2:	9f 92       	push	r9
    1cf4:	af 92       	push	r10
    1cf6:	bf 92       	push	r11
    1cf8:	cf 92       	push	r12
/Users/askn/Documents/Zinnia-tools/Products/software/UPDI4AVR-USB/src/sys.cpp:307
  }
    1cfa:	df 92       	push	r13
/Users/askn/Library/Arduino15/packages/MultiX-Zinnia/hardware/modernAVR/0.2.14/cores/modernAVR/api/cpp/Print_integer.cpp:15
 */
// MIT License : https://askn37.github.io/LICENSE.html

#include "../Print.h"

Print& Print::_print_integer (uint32_t _number, uint8_t _base, int8_t _direction, int8_t _offset) {
    1cfc:	ef 92       	push	r14
    1cfe:	ff 92       	push	r15
    1d00:	0f 93       	push	r16
    1d02:	1f 93       	push	r17
    1d04:	cf 93       	push	r28
    1d06:	df 93       	push	r29
    1d08:	cd b7       	in	r28, 0x3d	; 61
    1d0a:	de b7       	in	r29, 0x3e	; 62
    1d0c:	2b 01       	movw	r4, r22
    1d0e:	3c 01       	movw	r6, r24
    1d10:	92 2e       	mov	r9, r18
    1d12:	ad b6       	in	r10, 0x3d	; 61
    1d14:	be b6       	in	r11, 0x3e	; 62
    1d16:	32 2e       	mov	r3, r18
    1d18:	82 2f       	mov	r24, r18
    1d1a:	22 0f       	add	r18, r18
    1d1c:	99 0b       	sbc	r25, r25
    1d1e:	01 96       	adiw	r24, 0x01	; 1
    1d20:	2d b7       	in	r18, 0x3d	; 61
    1d22:	3e b7       	in	r19, 0x3e	; 62
    1d24:	28 1b       	sub	r18, r24
    1d26:	39 0b       	sbc	r19, r25
/Users/askn/Library/Arduino15/packages/MultiX-Zinnia/hardware/modernAVR/0.2.14/cores/modernAVR/api/cpp/Print_integer.cpp:66
    _len = _size;
    _direction = - _direction;
    for (;_len < _direction; _len++) write(' ');
  }
  return *this;
}
    1d28:	2d bf       	out	0x3d, r18	; 61
    1d2a:	3e bf       	out	0x3e, r19	; 62
/Users/askn/Library/Arduino15/packages/MultiX-Zinnia/hardware/modernAVR/0.2.14/cores/modernAVR/api/cpp/Print_integer.cpp:16
// MIT License : https://askn37.github.io/LICENSE.html

#include "../Print.h"

Print& Print::_print_integer (uint32_t _number, uint8_t _base, int8_t _direction, int8_t _offset) {
  uint8_t _buff[(uint8_t)_offset + 1];
    1d2c:	0d b7       	in	r16, 0x3d	; 61
    1d2e:	1e b7       	in	r17, 0x3e	; 62
    1d30:	0f 5f       	subi	r16, 0xFF	; 255
    1d32:	1f 4f       	sbci	r17, 0xFF	; 255
    1d34:	81 2c       	mov	r8, r1
    1d36:	47 ff       	sbrs	r20, 7
    1d38:	16 c0       	rjmp	.+44     	; 0x1d66 <Print::_print_integer(unsigned long, unsigned char, signed char, signed char) [clone .constprop.14]+0x80>
    1d3a:	4f 73       	andi	r20, 0x3F	; 63
    1d3c:	81 e0       	ldi	r24, 0x01	; 1
    1d3e:	90 e0       	ldi	r25, 0x00	; 0
    1d40:	a0 e0       	ldi	r26, 0x00	; 0
    1d42:	b0 e0       	ldi	r27, 0x00	; 0
    1d44:	09 2c       	mov	r0, r9
    1d46:	04 c0       	rjmp	.+8      	; 0x1d50 <Print::_print_integer(unsigned long, unsigned char, signed char, signed char) [clone .constprop.14]+0x6a>
    1d48:	88 0f       	add	r24, r24
/Users/askn/Library/Arduino15/packages/MultiX-Zinnia/hardware/modernAVR/0.2.14/cores/modernAVR/api/cpp/Print_integer.cpp:18
  int8_t _size = _offset;
  uint8_t _sign = 0;
    1d4a:	99 1f       	adc	r25, r25
/Users/askn/Library/Arduino15/packages/MultiX-Zinnia/hardware/modernAVR/0.2.14/cores/modernAVR/api/cpp/Print_integer.cpp:21
  uint8_t _len = 0;

  if (_base & ZFILL) {
    1d4c:	aa 1f       	adc	r26, r26
    1d4e:	bb 1f       	adc	r27, r27
/Users/askn/Library/Arduino15/packages/MultiX-Zinnia/hardware/modernAVR/0.2.14/cores/modernAVR/api/cpp/Print_integer.cpp:23
    _sign = ZFILL;
    _base &= ~(ZFILL | _INT_);
    1d50:	0a 94       	dec	r0
/Users/askn/Library/Arduino15/packages/MultiX-Zinnia/hardware/modernAVR/0.2.14/cores/modernAVR/api/cpp/Print_integer.cpp:25
    if (_direction < 0) _direction = 0;
    _number &= (1L << _offset) - 1;
    1d52:	d2 f7       	brpl	.-12     	; 0x1d48 <Print::_print_integer(unsigned long, unsigned char, signed char, signed char) [clone .constprop.14]+0x62>
    1d54:	01 97       	sbiw	r24, 0x01	; 1
    1d56:	a1 09       	sbc	r26, r1
    1d58:	b1 09       	sbc	r27, r1
    1d5a:	48 22       	and	r4, r24
    1d5c:	59 22       	and	r5, r25
    1d5e:	6a 22       	and	r6, r26
    1d60:	7b 22       	and	r7, r27
    1d62:	50 e8       	ldi	r21, 0x80	; 128
    1d64:	85 2e       	mov	r8, r21
    1d66:	84 2f       	mov	r24, r20
    1d68:	90 e0       	ldi	r25, 0x00	; 0
    1d6a:	8f 73       	andi	r24, 0x3F	; 63
    1d6c:	82 30       	cpi	r24, 0x02	; 2
    1d6e:	91 05       	cpc	r25, r1
    1d70:	34 f4       	brge	.+12     	; 0x1d7e <Print::_print_integer(unsigned long, unsigned char, signed char, signed char) [clone .constprop.14]+0x98>
    1d72:	01 97       	sbiw	r24, 0x01	; 1
    1d74:	11 f4       	brne	.+4      	; 0x1d7a <Print::_print_integer(unsigned long, unsigned char, signed char, signed char) [clone .constprop.14]+0x94>
/Users/askn/Library/Arduino15/packages/MultiX-Zinnia/hardware/modernAVR/0.2.14/cores/modernAVR/api/cpp/Print_integer.cpp:22
  int8_t _size = _offset;
  uint8_t _sign = 0;
  uint8_t _len = 0;

  if (_base & ZFILL) {
    _sign = ZFILL;
    1d76:	32 e0       	ldi	r19, 0x02	; 2
    1d78:	83 2e       	mov	r8, r19
/Users/askn/Library/Arduino15/packages/MultiX-Zinnia/hardware/modernAVR/0.2.14/cores/modernAVR/api/cpp/Print_integer.cpp:28
    _base &= ~(ZFILL | _INT_);
    if (_direction < 0) _direction = 0;
    _number &= (1L << _offset) - 1;
  }

  if ((_base & ~(ZFILL | _INT_)) <= SIGN) {
    1d7a:	40 74       	andi	r20, 0x40	; 64
    1d7c:	46 5f       	subi	r20, 0xF6	; 246
    1d7e:	46 ff       	sbrs	r20, 6
    1d80:	0c c0       	rjmp	.+24     	; 0x1d9a <Print::_print_integer(unsigned long, unsigned char, signed char, signed char) [clone .constprop.14]+0xb4>
    1d82:	77 fe       	sbrs	r7, 7
    1d84:	0a c0       	rjmp	.+20     	; 0x1d9a <Print::_print_integer(unsigned long, unsigned char, signed char, signed char) [clone .constprop.14]+0xb4>
/Users/askn/Library/Arduino15/packages/MultiX-Zinnia/hardware/modernAVR/0.2.14/cores/modernAVR/api/cpp/Print_integer.cpp:29
    if ((_base & ~(ZFILL | _INT_)) == SIGN) _sign = 2;
    1d86:	68 94       	set
    1d88:	80 f8       	bld	r8, 0
    1d8a:	70 94       	com	r7
    1d8c:	60 94       	com	r6
/Users/askn/Library/Arduino15/packages/MultiX-Zinnia/hardware/modernAVR/0.2.14/cores/modernAVR/api/cpp/Print_integer.cpp:30
    _base = 10 + (_base & _INT_);
    1d8e:	50 94       	com	r5
    1d90:	40 94       	com	r4
/Users/askn/Library/Arduino15/packages/MultiX-Zinnia/hardware/modernAVR/0.2.14/cores/modernAVR/api/cpp/Print_integer.cpp:33
  }

  if (_base & _INT_) {
    1d92:	41 1c       	adc	r4, r1
    1d94:	51 1c       	adc	r5, r1
/Users/askn/Library/Arduino15/packages/MultiX-Zinnia/hardware/modernAVR/0.2.14/cores/modernAVR/api/cpp/Print_integer.cpp:34
    if (0 > (int32_t) _number) {
    1d96:	61 1c       	adc	r6, r1
    1d98:	71 1c       	adc	r7, r1
/Users/askn/Library/Arduino15/packages/MultiX-Zinnia/hardware/modernAVR/0.2.14/cores/modernAVR/api/cpp/Print_integer.cpp:35
      _sign |= 1;
    1d9a:	4f 73       	andi	r20, 0x3F	; 63
    1d9c:	c4 2e       	mov	r12, r20
/Users/askn/Library/Arduino15/packages/MultiX-Zinnia/hardware/modernAVR/0.2.14/cores/modernAVR/api/cpp/Print_integer.cpp:36
      _number = - _number;
    1d9e:	d1 2c       	mov	r13, r1
    1da0:	f1 2c       	mov	r15, r1
    1da2:	e1 2c       	mov	r14, r1
    1da4:	c3 01       	movw	r24, r6
    1da6:	b2 01       	movw	r22, r4
    1da8:	a7 01       	movw	r20, r14
    1daa:	96 01       	movw	r18, r12
    1dac:	0e 94 82 24 	call	0x4904	; 0x4904 <__udivmodsi4>
/Users/askn/Library/Arduino15/packages/MultiX-Zinnia/hardware/modernAVR/0.2.14/cores/modernAVR/api/cpp/Print_integer.cpp:42
    }
  }
  _base &= ~(ZFILL | _INT_);

  do {
    uint8_t _d = _number % _base;
    1db0:	29 01       	movw	r4, r18
    1db2:	3a 01       	movw	r6, r20
    1db4:	86 2f       	mov	r24, r22
    1db6:	0e 94 e5 04 	call	0x9ca	; 0x9ca <btoh>
/Users/askn/Library/Arduino15/packages/MultiX-Zinnia/hardware/modernAVR/0.2.14/cores/modernAVR/api/cpp/Print_integer.cpp:43
    _number /= _base;
    1dba:	99 2d       	mov	r25, r9
    1dbc:	9a 94       	dec	r9
    1dbe:	f8 01       	movw	r30, r16
    1dc0:	e9 0d       	add	r30, r9
    1dc2:	f1 1d       	adc	r31, r1
    1dc4:	97 fc       	sbrc	r9, 7
    1dc6:	fa 95       	dec	r31
    1dc8:	80 83       	st	Z, r24
/Users/askn/Library/Arduino15/packages/MultiX-Zinnia/hardware/modernAVR/0.2.14/cores/modernAVR/api/cpp/Print_integer.cpp:44
    _buff[--_offset] = btoh(_d);
    1dca:	41 14       	cp	r4, r1
    1dcc:	51 04       	cpc	r5, r1
    1dce:	61 04       	cpc	r6, r1
    1dd0:	71 04       	cpc	r7, r1
    1dd2:	41 f7       	brne	.-48     	; 0x1da4 <Print::_print_integer(unsigned long, unsigned char, signed char, signed char) [clone .constprop.14]+0xbe>
    1dd4:	32 e0       	ldi	r19, 0x02	; 2
    1dd6:	83 12       	cpse	r8, r19
    1dd8:	36 c0       	rjmp	.+108    	; 0x1e46 <Print::_print_integer(unsigned long, unsigned char, signed char, signed char) [clone .constprop.14]+0x160>
    1dda:	2e ef       	ldi	r18, 0xFE	; 254
/Users/askn/Library/Arduino15/packages/MultiX-Zinnia/hardware/modernAVR/0.2.14/cores/modernAVR/api/cpp/Print_integer.cpp:45
  } while (_number);
    1ddc:	92 2e       	mov	r9, r18
    1dde:	99 0e       	add	r9, r25
    1de0:	f8 01       	movw	r30, r16
    1de2:	e9 0d       	add	r30, r9
    1de4:	f1 1d       	adc	r31, r1
/Users/askn/Library/Arduino15/packages/MultiX-Zinnia/hardware/modernAVR/0.2.14/cores/modernAVR/api/cpp/Print_integer.cpp:48

  /* before sign */
  if (_sign == 2) { _buff[--_offset] = '+'; }
    1de6:	97 fc       	sbrc	r9, 7
    1de8:	fa 95       	dec	r31
    1dea:	8b e2       	ldi	r24, 0x2B	; 43
    1dec:	80 83       	st	Z, r24
    1dee:	09 0d       	add	r16, r9
    1df0:	11 1d       	adc	r17, r1
    1df2:	97 fc       	sbrc	r9, 7
    1df4:	1a 95       	dec	r17
    1df6:	39 18       	sub	r3, r9
    1df8:	78 01       	movw	r14, r16
    1dfa:	e3 0c       	add	r14, r3
/Users/askn/Library/Arduino15/packages/MultiX-Zinnia/hardware/modernAVR/0.2.14/cores/modernAVR/api/cpp/Print_integer.cpp:49
  else if (_sign && !(_sign & ZFILL)) { _buff[--_offset] = '-'; }
    1dfc:	f1 1c       	adc	r15, r1
/Users/askn/Library/Arduino15/packages/MultiX-Zinnia/hardware/modernAVR/0.2.14/cores/modernAVR/api/cpp/Print_integer.cpp:57
  _len = _size;

  /* before padding */
  for (;_len < _direction; _len++) write(_sign == ZFILL ? '0' : ' ');

  _len += write((const char*)&_buff[_offset], _size);
    1dfe:	37 fc       	sbrc	r3, 7
    1e00:	fa 94       	dec	r15
write():
    1e02:	e0 16       	cp	r14, r16
    1e04:	f1 06       	cpc	r15, r17
/Users/askn/Library/Arduino15/packages/MultiX-Zinnia/hardware/modernAVR/0.2.14/cores/modernAVR/api/cpp/Print_integer.cpp:51

  /* before sign */
  if (_sign == 2) { _buff[--_offset] = '+'; }
  else if (_sign && !(_sign & ZFILL)) { _buff[--_offset] = '-'; }

  _size -= _offset;
    1e06:	49 f0       	breq	.+18     	; 0x1e1a <Print::_print_integer(unsigned long, unsigned char, signed char, signed char) [clone .constprop.14]+0x134>
    1e08:	f8 01       	movw	r30, r16
    1e0a:	61 91       	ld	r22, Z+
    1e0c:	8f 01       	movw	r16, r30
    1e0e:	8d e8       	ldi	r24, 0x8D	; 141
    1e10:	90 e6       	ldi	r25, 0x60	; 96
/Users/askn/Library/Arduino15/packages/MultiX-Zinnia/hardware/modernAVR/0.2.14/cores/modernAVR/api/cpp/Print_puts.cpp:24
 */

size_t Print::write (const void* _buffer, size_t _length) {
  size_t _n = 0;
  uint8_t *_p = (uint8_t*)_buffer;
  while (_length--) {
    1e12:	0e 94 ee 04 	call	0x9dc	; 0x9dc <UsartBaseClass::write(unsigned char)>
    1e16:	89 2b       	or	r24, r25
/Users/askn/Library/Arduino15/packages/MultiX-Zinnia/hardware/modernAVR/0.2.14/cores/modernAVR/api/cpp/Print_puts.cpp:25
    if ( write(*(_p++)) ) _n++;
    1e18:	a1 f7       	brne	.-24     	; 0x1e02 <Print::_print_integer(unsigned long, unsigned char, signed char, signed char) [clone .constprop.14]+0x11c>
_print_integer():
    1e1a:	8d e8       	ldi	r24, 0x8D	; 141
    1e1c:	90 e6       	ldi	r25, 0x60	; 96
    1e1e:	ad be       	out	0x3d, r10	; 61
    1e20:	be be       	out	0x3e, r11	; 62
    1e22:	df 91       	pop	r29
    1e24:	cf 91       	pop	r28
    1e26:	1f 91       	pop	r17
    1e28:	0f 91       	pop	r16
/Users/askn/Library/Arduino15/packages/MultiX-Zinnia/hardware/modernAVR/0.2.14/cores/modernAVR/api/cpp/Print_integer.cpp:66
    _len = _size;
    _direction = - _direction;
    for (;_len < _direction; _len++) write(' ');
  }
  return *this;
}
    1e2a:	ff 90       	pop	r15
    1e2c:	ef 90       	pop	r14
    1e2e:	df 90       	pop	r13
    1e30:	cf 90       	pop	r12
    1e32:	bf 90       	pop	r11
    1e34:	af 90       	pop	r10
    1e36:	9f 90       	pop	r9
    1e38:	8f 90       	pop	r8
    1e3a:	7f 90       	pop	r7
    1e3c:	6f 90       	pop	r6
    1e3e:	5f 90       	pop	r5
    1e40:	4f 90       	pop	r4
    1e42:	3f 90       	pop	r3
    1e44:	08 95       	ret
    1e46:	18 14       	cp	r1, r8
    1e48:	94 f6       	brge	.-92     	; 0x1dee <Print::_print_integer(unsigned long, unsigned char, signed char, signed char) [clone .constprop.14]+0x108>
    1e4a:	8e ef       	ldi	r24, 0xFE	; 254
    1e4c:	98 2e       	mov	r9, r24
    1e4e:	99 0e       	add	r9, r25
    1e50:	f8 01       	movw	r30, r16
    1e52:	e9 0d       	add	r30, r9
/Users/askn/Library/Arduino15/packages/MultiX-Zinnia/hardware/modernAVR/0.2.14/cores/modernAVR/api/cpp/Print_integer.cpp:49
    _buff[--_offset] = btoh(_d);
  } while (_number);

  /* before sign */
  if (_sign == 2) { _buff[--_offset] = '+'; }
  else if (_sign && !(_sign & ZFILL)) { _buff[--_offset] = '-'; }
    1e54:	f1 1d       	adc	r31, r1
    1e56:	97 fc       	sbrc	r9, 7
    1e58:	fa 95       	dec	r31
    1e5a:	8d e2       	ldi	r24, 0x2D	; 45
    1e5c:	c7 cf       	rjmp	.-114    	; 0x1dec <Print::_print_integer(unsigned long, unsigned char, signed char, signed char) [clone .constprop.14]+0x106>

00001e5e <USB::setup_device(bool) [clone .part.2]>:
_ZN3USB12setup_deviceEb.part.2():
    1e5e:	cf 93       	push	r28
    1e60:	df 93       	push	r29
    1e62:	c0 e0       	ldi	r28, 0x00	; 0
    1e64:	dc e0       	ldi	r29, 0x0C	; 12
    1e66:	18 82       	st	Y, r1
    1e68:	10 92 04 0c 	sts	0x0C04, r1	; 0x800c04 <__TEXT_REGION_LENGTH__+0x7f0c04>
/Users/askn/Documents/Zinnia-tools/Products/software/UPDI4AVR-USB/src/usb.cpp:234
    EP_MEM.cci_header.wIndex        = 1;    /* Interface#1 */
    EP_MEM.cci_header.wLength       = 2;
    EP_MEM.cci_wValue               = _state;
  }

  void setup_device (bool _force) {
    1e6c:	8e e3       	ldi	r24, 0x3E	; 62
/Users/askn/Documents/Zinnia-tools/Products/software/UPDI4AVR-USB/src/usb.cpp:238
    if (_led_mode != 3) SYS::LED_Flash();
    USB0_ADDR = 0;
    if (USB0_CTRLA || _force) {
      USB0_CTRLA = 0;
    1e6e:	94 e6       	ldi	r25, 0x64	; 100
    1e70:	80 93 06 0c 	sts	0x0C06, r24	; 0x800c06 <__TEXT_REGION_LENGTH__+0x7f0c06>
/Users/askn/Documents/Zinnia-tools/Products/software/UPDI4AVR-USB/src/usb.cpp:239
      USB0_FIFOWP = 0;
    1e74:	90 93 07 0c 	sts	0x0C07, r25	; 0x800c07 <__TEXT_REGION_LENGTH__+0x7f0c07>
/Users/askn/Documents/Zinnia-tools/Products/software/UPDI4AVR-USB/src/usb.cpp:240
      USB0_EPPTR = (uint16_t)&EP_TABLE.EP;
    1e78:	81 e0       	ldi	r24, 0x01	; 1
    1e7a:	80 93 01 0c 	sts	0x0C01, r24	; 0x800c01 <__TEXT_REGION_LENGTH__+0x7f0c01>
    1e7e:	1c ba       	out	0x1c, r1	; 28
    1e80:	1d ba       	out	0x1d, r1	; 29
/Users/askn/Documents/Zinnia-tools/Products/software/UPDI4AVR-USB/src/usb.cpp:241
      USB0_CTRLB = USB_ATTACH_bm;
    1e82:	1e ba       	out	0x1e, r1	; 30
    1e84:	10 92 33 64 	sts	0x6433, r1	; 0x806433 <_send_break>
/Users/askn/Documents/Zinnia-tools/Products/software/UPDI4AVR-USB/src/usb.cpp:242
      GPCONF = 0;
    1e88:	10 92 34 64 	sts	0x6434, r1	; 0x806434 <_send_break+0x1>
/Users/askn/Documents/Zinnia-tools/Products/software/UPDI4AVR-USB/src/usb.cpp:244
      PGCONF = 0;
      RXSTAT = 0;
    1e8c:	10 92 32 64 	sts	0x6432, r1	; 0x806432 <_send_count>
/Users/askn/Documents/Zinnia-tools/Products/software/UPDI4AVR-USB/src/usb.cpp:245
      _send_break = 0;
    1e90:	10 92 31 64 	sts	0x6431, r1	; 0x806431 <_recv_count>
    1e94:	10 92 30 64 	sts	0x6430, r1	; 0x806430 <_set_config>
/Users/askn/Documents/Zinnia-tools/Products/software/UPDI4AVR-USB/src/usb.cpp:246
      _send_count = 0;
    1e98:	10 92 2f 64 	sts	0x642F, r1	; 0x80642f <_sof_count>
/Users/askn/Documents/Zinnia-tools/Products/software/UPDI4AVR-USB/src/usb.cpp:247
      _recv_count = 0;
    1e9c:	4a e4       	ldi	r20, 0x4A	; 74
/Users/askn/Documents/Zinnia-tools/Products/software/UPDI4AVR-USB/src/usb.cpp:248
      _set_config = 0;
    1e9e:	50 e0       	ldi	r21, 0x00	; 0
    1ea0:	62 e7       	ldi	r22, 0x72	; 114
/Users/askn/Documents/Zinnia-tools/Products/software/UPDI4AVR-USB/src/usb.cpp:249
      _sof_count = 0;
    1ea2:	78 e0       	ldi	r23, 0x08	; 8
    1ea4:	86 e3       	ldi	r24, 0x36	; 54
/Users/askn/Documents/Zinnia-tools/Products/software/UPDI4AVR-USB/src/usb.cpp:250
      memcpy_P(&EP_TABLE, &ep_init, sizeof(EP_TABLE_t));
    1ea6:	94 e6       	ldi	r25, 0x64	; 100
    1ea8:	0e 94 b7 21 	call	0x436e	; 0x436e <memcpy_P>
set_cci_data():
    1eac:	10 92 2e 64 	sts	0x642E, r1	; 0x80642e <_set_serial_state>
    1eb0:	e6 e1       	ldi	r30, 0x16	; 22
    1eb2:	f3 e6       	ldi	r31, 0x63	; 99
/Users/askn/Documents/Zinnia-tools/Products/software/UPDI4AVR-USB/src/usb.cpp:225
    if (_size) memcpy_P(_buffer, _pgmem, _size);
    return _size;
  }

  void set_cci_data (uint16_t _state) {
    _set_serial_state = _state;
    1eb4:	81 ea       	ldi	r24, 0xA1	; 161
    1eb6:	80 87       	std	Z+8, r24	; 0x08
/Users/askn/Documents/Zinnia-tools/Products/software/UPDI4AVR-USB/src/usb.cpp:226
    EP_MEM.cci_header.bmRequestType = 0xA1; /* REQTYPE_DIRECTION | REQTYPE_CLASS | RECIPIENT_INTERFACE */
    1eb8:	80 e2       	ldi	r24, 0x20	; 32
    1eba:	81 87       	std	Z+9, r24	; 0x09
    1ebc:	12 86       	std	Z+10, r1	; 0x0a
    1ebe:	13 86       	std	Z+11, r1	; 0x0b
/Users/askn/Documents/Zinnia-tools/Products/software/UPDI4AVR-USB/src/usb.cpp:227
    EP_MEM.cci_header.bRequest      = 0x20; /* CDC_REQ_SerialState */
    1ec0:	81 e0       	ldi	r24, 0x01	; 1
    1ec2:	90 e0       	ldi	r25, 0x00	; 0
/Users/askn/Documents/Zinnia-tools/Products/software/UPDI4AVR-USB/src/usb.cpp:228
    EP_MEM.cci_header.wValue        = 0;
    1ec4:	84 87       	std	Z+12, r24	; 0x0c
    1ec6:	95 87       	std	Z+13, r25	; 0x0d
/Users/askn/Documents/Zinnia-tools/Products/software/UPDI4AVR-USB/src/usb.cpp:229
    EP_MEM.cci_header.wIndex        = 1;    /* Interface#1 */
    1ec8:	82 e0       	ldi	r24, 0x02	; 2
    1eca:	90 e0       	ldi	r25, 0x00	; 0
    1ecc:	86 87       	std	Z+14, r24	; 0x0e
    1ece:	97 87       	std	Z+15, r25	; 0x0f
/Users/askn/Documents/Zinnia-tools/Products/software/UPDI4AVR-USB/src/usb.cpp:230
    EP_MEM.cci_header.wLength       = 2;
    1ed0:	10 8a       	std	Z+16, r1	; 0x10
    1ed2:	11 8a       	std	Z+17, r1	; 0x11
_ZN3USB12setup_deviceEb.part.2():
    1ed4:	83 e8       	ldi	r24, 0x83	; 131
    1ed6:	88 83       	st	Y, r24
/Users/askn/Documents/Zinnia-tools/Products/software/UPDI4AVR-USB/src/usb.cpp:231
    EP_MEM.cci_wValue               = _state;
    1ed8:	df 91       	pop	r29
    1eda:	cf 91       	pop	r28
/Users/askn/Documents/Zinnia-tools/Products/software/UPDI4AVR-USB/src/usb.cpp:252
      _recv_count = 0;
      _set_config = 0;
      _sof_count = 0;
      memcpy_P(&EP_TABLE, &ep_init, sizeof(EP_TABLE_t));
      set_cci_data(0x00);
      USB0_CTRLA = USB_ENABLE_bm | (USB_ENDPOINTS_MAX - 1);
    1edc:	08 95       	ret

00001ede <USART::disable_vcp()>:
disable_vcp():
    1ede:	84 e3       	ldi	r24, 0x34	; 52
/Users/askn/Documents/Zinnia-tools/Products/software/UPDI4AVR-USB/src/usb.cpp:254
    }
  }
    1ee0:	98 e0       	ldi	r25, 0x08	; 8
    1ee2:	9f 93       	push	r25
    1ee4:	8f 93       	push	r24
/Users/askn/Documents/Zinnia-tools/Products/software/UPDI4AVR-USB/src/usart.cpp:52
    } while (--_delay);
  }

  /*** Stop the VCP and release the ports in use. ***/
  void disable_vcp (void) {
    D1PRINTF(" UART=OFF\r\n");
    1ee6:	8d e8       	ldi	r24, 0x8D	; 141
    1ee8:	90 e6       	ldi	r25, 0x60	; 96
    1eea:	9f 93       	push	r25
    1eec:	8f 93       	push	r24
    1eee:	b6 da       	rcall	.-2708   	; 0x145c <Print::printf(PGM_t const*, ...) [clone .constprop.21]>
delay_micros():
    1ef0:	8a e1       	ldi	r24, 0x1A	; 26
    1ef2:	8a 95       	dec	r24
    1ef4:	f1 f7       	brne	.-4      	; 0x1ef2 <USART::disable_vcp()+0x14>
    1ef6:	00 c0       	rjmp	.+0      	; 0x1ef8 <USART::disable_vcp()+0x1a>
disable_vcp():
    1ef8:	8f b7       	in	r24, 0x3f	; 63
__iCliRetVal():
/Users/askn/Library/Arduino15/packages/MultiX-Zinnia/hardware/modernAVR/0.2.14/cores/modernAVR/api/delay_busywait.h:33
static __inline__ __attribute__((__always_inline__)) void delay_micros (uint32_t _us);
static __inline__ __attribute__((__always_inline__)) void delay_millis (uint32_t _ms);

void delay_micros (uint32_t _us) {
  if (F_CPU >= 1000000L) {
    __builtin_avr_delay_cycles((F_CPU / 1000000L) * _us);
    1efa:	f8 94       	cli
disable_vcp():
    1efc:	10 92 06 08 	sts	0x0806, r1	; 0x800806 <__TEXT_REGION_LENGTH__+0x7f0806>
    1f00:	10 92 05 08 	sts	0x0805, r1	; 0x800805 <__TEXT_REGION_LENGTH__+0x7f0805>
/Users/askn/Documents/Zinnia-tools/Products/software/UPDI4AVR-USB/src/usart.cpp:58
    /* Allow time to move USART0_TXDATA */
    delay_micros(4);
    ATOMIC_BLOCK(ATOMIC_RESTORESTATE) {
      /* Simply clearing the CTRLB does not disable the USART completely.                    */
      /* This errata is not documented for the AVR-DU, but is the same as for tinyAVR-0 etc. */
      USART0_CTRLB = 0;
    1f04:	1e ba       	out	0x1e, r1	; 30
    1f06:	1f ba       	out	0x1f, r1	; 31
/Users/askn/Documents/Zinnia-tools/Products/software/UPDI4AVR-USB/src/usart.cpp:59
      USART0_CTRLA = 0;
    1f08:	1d ba       	out	0x1d, r1	; 29
    1f0a:	92 e1       	ldi	r25, 0x12	; 18
/Users/askn/Documents/Zinnia-tools/Products/software/UPDI4AVR-USB/src/usart.cpp:60
      RXSTAT = 0;
    1f0c:	90 93 e2 05 	sts	0x05E2, r25	; 0x8005e2 <__TEXT_REGION_LENGTH__+0x7f05e2>
/Users/askn/Documents/Zinnia-tools/Products/software/UPDI4AVR-USB/src/usart.cpp:62
      RXDATA = 0;
      PGCONF = 0;
    1f10:	e1 98       	cbi	0x1c, 1	; 28
__iRestore():
/Users/askn/Documents/Zinnia-tools/Products/software/UPDI4AVR-USB/src/usart.cpp:63
      PORTMUX_USARTROUTEA = PORTMUX_USART_VCP;
    1f12:	8f bf       	out	0x3f, r24	; 63
disable_vcp():
    1f14:	00 98       	cbi	0x00, 0	; 0
    1f16:	88 e0       	ldi	r24, 0x08	; 8
/Users/askn/Documents/Zinnia-tools/Products/software/UPDI4AVR-USB/src/usart.cpp:64
      bit_clear(GPCONF, GPCONF_VCP_bp);
    1f18:	80 93 10 04 	sts	0x0410, r24	; 0x800410 <__TEXT_REGION_LENGTH__+0x7f0410>
/Users/askn/Documents/Zinnia-tools/Products/software/UPDI4AVR-USB/src/usart.cpp:66
    }
    pinModeMacro(PIN_PG_TDAT, INPUT_PULLUP);  /* open-drain */
    1f1c:	02 98       	cbi	0x00, 2	; 0
    1f1e:	80 93 12 04 	sts	0x0412, r24	; 0x800412 <__TEXT_REGION_LENGTH__+0x7f0412>
/Users/askn/Documents/Zinnia-tools/Products/software/UPDI4AVR-USB/src/usart.cpp:70
    /* TXD changes to INPUT when USART is disabled. */
    /* Force OUTPUT to maintain BREAK state.        */
  #ifdef CONFIG_VCP_TXD_ODM
    pinModeMacro(PIN_VCP_TXD, INPUT_PULLUP);  /* open-drain */
    1f22:	02 98       	cbi	0x00, 2	; 0
    1f24:	0f 90       	pop	r0
    1f26:	0f 90       	pop	r0
/Users/askn/Documents/Zinnia-tools/Products/software/UPDI4AVR-USB/src/usart.cpp:71
    openDrainWriteMacro(PIN_VCP_TXD, HIGH);
    1f28:	0f 90       	pop	r0
    1f2a:	0f 90       	pop	r0
    1f2c:	08 95       	ret

00001f2e <USART::setup()>:
LED_TCB1():
    1f2e:	80 91 85 60 	lds	r24, 0x6085	; 0x806085 <_led_mode>
/Users/askn/Documents/Zinnia-tools/Products/software/UPDI4AVR-USB/src/usart.cpp:75
  #else
    pinModeMacro(PIN_VCP_TXD, OUTPUT);        /* push-pull : There are problems when using TPI. */
  #endif
  }
    1f32:	84 30       	cpi	r24, 0x04	; 4
/Users/askn/Documents/Zinnia-tools/Products/software/UPDI4AVR-USB/src/sys.cpp:198
      _led_mode = 1;
    }
  }

  void LED_TCB1 (uint8_t _mode, uint16_t _ccmp) {
    if (_led_mode != _mode) {
    1f34:	81 f0       	breq	.+32     	; 0x1f56 <USART::setup()+0x28>
    1f36:	10 92 00 0a 	sts	0x0A00, r1	; 0x800a00 <__TEXT_REGION_LENGTH__+0x7f0a00>
    1f3a:	10 92 1a 0b 	sts	0x0B1A, r1	; 0x800b1a <__TEXT_REGION_LENGTH__+0x7f0b1a>
/Users/askn/Documents/Zinnia-tools/Products/software/UPDI4AVR-USB/src/sys.cpp:199
      TCA0_SPLIT_CTRLA = 0;
    1f3e:	82 e2       	ldi	r24, 0x22	; 34
/Users/askn/Documents/Zinnia-tools/Products/software/UPDI4AVR-USB/src/sys.cpp:200
      TCB1_CNTL = 0;
    1f40:	91 e1       	ldi	r25, 0x11	; 17
    1f42:	80 93 1c 0b 	sts	0x0B1C, r24	; 0x800b1c <__TEXT_REGION_LENGTH__+0x7f0b1c>
/Users/askn/Documents/Zinnia-tools/Products/software/UPDI4AVR-USB/src/sys.cpp:201
      TCB1_CCMP = _ccmp;
    1f46:	90 93 1d 0b 	sts	0x0B1D, r25	; 0x800b1d <__TEXT_REGION_LENGTH__+0x7f0b1d>
    1f4a:	8f e4       	ldi	r24, 0x4F	; 79
    1f4c:	80 93 10 0b 	sts	0x0B10, r24	; 0x800b10 <__TEXT_REGION_LENGTH__+0x7f0b10>
/Users/askn/Documents/Zinnia-tools/Products/software/UPDI4AVR-USB/src/sys.cpp:202
      TCB1_CTRLA = TCB_RUNSTDBY_bm | TCB_ENABLE_bm | TCB_CLKSEL_EVENT_gc;
    1f50:	84 e0       	ldi	r24, 0x04	; 4
    1f52:	80 93 85 60 	sts	0x6085, r24	; 0x806085 <_led_mode>
setup():
/Users/askn/Documents/Zinnia-tools/Products/software/UPDI4AVR-USB/src/sys.cpp:203
      _led_mode = _mode;
    1f56:	c3 df       	rcall	.-122    	; 0x1ede <USART::disable_vcp()>
    1f58:	03 98       	cbi	0x00, 3	; 0
/Users/askn/Documents/Zinnia-tools/Products/software/UPDI4AVR-USB/src/usart.cpp:26

namespace USART {

  void setup (void) {
    SYS::LED_Fast();
    disable_vcp();
    1f5a:	88 e0       	ldi	r24, 0x08	; 8
    1f5c:	80 93 13 04 	sts	0x0413, r24	; 0x800413 <__TEXT_REGION_LENGTH__+0x7f0413>
/Users/askn/Documents/Zinnia-tools/Products/software/UPDI4AVR-USB/src/usart.cpp:27
    pinModeMacro(PIN_VCP_RXD, INPUT_PULLUP);  /* USART0_DEFAULT or USART0_ALT2 */
    1f60:	01 98       	cbi	0x00, 1	; 0
    1f62:	80 93 11 04 	sts	0x0411, r24	; 0x800411 <__TEXT_REGION_LENGTH__+0x7f0411>
/Users/askn/Documents/Zinnia-tools/Products/software/UPDI4AVR-USB/src/usart.cpp:28
    pinModeMacro(PIN_PG_TRST, INPUT_PULLUP);  /* USART0_ALT3 or USART0_DEFAULT */
    1f66:	08 95       	ret

00001f68 <UPDI::enter_progmode()>:
enter_progmode():
    1f68:	cf 93       	push	r28
    1f6a:	8d b3       	in	r24, 0x1d	; 29
/Users/askn/Documents/Zinnia-tools/Products/software/UPDI4AVR-USB/src/usart.cpp:29
  }
    1f6c:	c8 2f       	mov	r28, r24
/Users/askn/Documents/Zinnia-tools/Products/software/UPDI4AVR-USB/src/updi.cpp:391
    nop();
    openDrainWriteMacro(PIN_PG_TRST, HIGH);
    return _result;
  }

  size_t enter_progmode (void) {
    1f6e:	c2 70       	andi	r28, 0x02	; 2
/Users/askn/Documents/Zinnia-tools/Products/software/UPDI4AVR-USB/src/updi.cpp:392
    if (bit_is_set(PGCONF, PGCONF_PROG_bp)) return 1;
    1f70:	81 fd       	sbrc	r24, 1
    1f72:	2e c0       	rjmp	.+92     	; 0x1fd0 <UPDI::enter_progmode()+0x68>
    1f74:	81 e0       	ldi	r24, 0x01	; 1
    1f76:	63 db       	rcall	.-2362   	; 0x163e <UPDI::set_nvmprog_key(bool)>
/Users/askn/Documents/Zinnia-tools/Products/software/UPDI4AVR-USB/src/updi.cpp:393
    if (!set_nvmprog_key()) return 0;
    1f78:	81 11       	cpse	r24, r1
    1f7a:	06 c0       	rjmp	.+12     	; 0x1f88 <UPDI::enter_progmode()+0x20>
    1f7c:	90 e0       	ldi	r25, 0x00	; 0
    1f7e:	80 e0       	ldi	r24, 0x00	; 0
    1f80:	cf 91       	pop	r28
    1f82:	08 95       	ret
    1f84:	c1 30       	cpi	r28, 0x01	; 1
/Users/askn/Documents/Zinnia-tools/Products/software/UPDI4AVR-USB/src/updi.cpp:406
      sys_status();
    } while (bit_is_clear(RXDATA, 3));  /* wait set PROGSTART */
    D1PRINTF(" PROGSTART=%02X\r\n", RXDATA);
    bit_set(PGCONF, PGCONF_PROG_bp);
    return (*Command_Table.prog_init)();
  }
    1f86:	d1 f3       	breq	.-12     	; 0x1f7c <UPDI::enter_progmode()+0x14>
delay_micros():
    1f88:	89 ef       	ldi	r24, 0xF9	; 249
/Users/askn/Documents/Zinnia-tools/Products/software/UPDI4AVR-USB/src/updi.cpp:399
    uint8_t _count = 0;
    do {
      /* Do not wait for the global timeout to ensure that LOCKSTAT cannot */
      /* be released. Aborting the ACC instruction set here will adversely */
      /* affect subsequent USERROW writes or chip erases. */
      if (0 == ++_count) return 0;
    1f8a:	90 e0       	ldi	r25, 0x00	; 0
/Users/askn/Library/Arduino15/packages/MultiX-Zinnia/hardware/modernAVR/0.2.14/cores/modernAVR/api/delay_busywait.h:33
    1f8c:	01 97       	sbiw	r24, 0x01	; 1
    1f8e:	f1 f7       	brne	.-4      	; 0x1f8c <UPDI::enter_progmode()+0x24>
    1f90:	00 c0       	rjmp	.+0      	; 0x1f92 <UPDI::enter_progmode()+0x2a>
    1f92:	00 00       	nop
enter_progmode():
    1f94:	0e 94 f8 05 	call	0xbf0	; 0xbf0 <UPDI::sys_status()>
/Users/askn/Documents/Zinnia-tools/Products/software/UPDI4AVR-USB/src/updi.cpp:401
      delay_micros(50);
      sys_status();
    1f98:	c1 50       	subi	r28, 0x01	; 1
    1f9a:	fb 9b       	sbis	0x1f, 3	; 31
/Users/askn/Documents/Zinnia-tools/Products/software/UPDI4AVR-USB/src/updi.cpp:402
    } while (bit_is_clear(RXDATA, 3));  /* wait set PROGSTART */
    1f9c:	f3 cf       	rjmp	.-26     	; 0x1f84 <UPDI::enter_progmode()+0x1c>
    1f9e:	8f b3       	in	r24, 0x1f	; 31
/Users/askn/Documents/Zinnia-tools/Products/software/UPDI4AVR-USB/src/updi.cpp:403
    D1PRINTF(" PROGSTART=%02X\r\n", RXDATA);
    1fa0:	1f 92       	push	r1
    1fa2:	8f 93       	push	r24
    1fa4:	82 e2       	ldi	r24, 0x22	; 34
    1fa6:	98 e0       	ldi	r25, 0x08	; 8
    1fa8:	9f 93       	push	r25
    1faa:	8f 93       	push	r24
    1fac:	8d e8       	ldi	r24, 0x8D	; 141
    1fae:	90 e6       	ldi	r25, 0x60	; 96
    1fb0:	9f 93       	push	r25
    1fb2:	8f 93       	push	r24
    1fb4:	53 da       	rcall	.-2906   	; 0x145c <Print::printf(PGM_t const*, ...) [clone .constprop.21]>
    1fb6:	e9 9a       	sbi	0x1d, 1	; 29
/Users/askn/Documents/Zinnia-tools/Products/software/UPDI4AVR-USB/src/updi.cpp:404
    bit_set(PGCONF, PGCONF_PROG_bp);
    1fb8:	0f 90       	pop	r0
/Users/askn/Documents/Zinnia-tools/Products/software/UPDI4AVR-USB/src/updi.cpp:405
    return (*Command_Table.prog_init)();
    1fba:	0f 90       	pop	r0
    1fbc:	0f 90       	pop	r0
    1fbe:	0f 90       	pop	r0
    1fc0:	0f 90       	pop	r0
    1fc2:	0f 90       	pop	r0
    1fc4:	e0 91 0e 63 	lds	r30, 0x630E	; 0x80630e <Command_Table>
    1fc8:	f0 91 0f 63 	lds	r31, 0x630F	; 0x80630f <Command_Table+0x1>
/Users/askn/Documents/Zinnia-tools/Products/software/UPDI4AVR-USB/src/updi.cpp:406
  }
    1fcc:	cf 91       	pop	r28
/Users/askn/Documents/Zinnia-tools/Products/software/UPDI4AVR-USB/src/updi.cpp:392
    openDrainWriteMacro(PIN_PG_TRST, HIGH);
    return _result;
  }

  size_t enter_progmode (void) {
    if (bit_is_set(PGCONF, PGCONF_PROG_bp)) return 1;
    1fce:	09 94       	ijmp
    1fd0:	81 e0       	ldi	r24, 0x01	; 1
/Users/askn/Documents/Zinnia-tools/Products/software/UPDI4AVR-USB/src/updi.cpp:252
    D1PRINTF(" KEY=%02X\r\n", RXDATA);
    return sys_reset(false);
  }

  bool chip_erase (void) {
    USART::drain();
    1fd2:	90 e0       	ldi	r25, 0x00	; 0
    1fd4:	d5 cf       	rjmp	.-86     	; 0x1f80 <UPDI::enter_progmode()+0x18>

00001fd6 <UPDI::chip_erase()>:
chip_erase():
    1fd6:	90 e0       	ldi	r25, 0x00	; 0
    1fd8:	80 e0       	ldi	r24, 0x00	; 0
/Users/askn/Documents/Zinnia-tools/Products/software/UPDI4AVR-USB/src/updi.cpp:235
    D1PRINTF(" KEY=%02X\r\n", RXDATA);
    return _reset ? sys_reset(false) : true;
  }

  bool set_erase_key (void) {
    if (bit_is_clear(PGCONF, PGCONF_PROG_bp)) set_nvmprog_key(false);
    1fda:	0e 94 6e 05 	call	0xadc	; 0xadc <USART::drain(unsigned int)>
set_erase_key():
    1fde:	e9 99       	sbic	0x1d, 1	; 29
    1fe0:	02 c0       	rjmp	.+4      	; 0x1fe6 <UPDI::chip_erase()+0x10>
    1fe2:	80 e0       	ldi	r24, 0x00	; 0
/Users/askn/Documents/Zinnia-tools/Products/software/UPDI4AVR-USB/src/updi.cpp:236
    D1PRINTF(" ERASE_KEY\r\n");
    1fe4:	2c db       	rcall	.-2472   	; 0x163e <UPDI::set_nvmprog_key(bool)>
    1fe6:	85 e7       	ldi	r24, 0x75	; 117
    1fe8:	97 e0       	ldi	r25, 0x07	; 7
    1fea:	9f 93       	push	r25
    1fec:	8f 93       	push	r24
    1fee:	8d e8       	ldi	r24, 0x8D	; 141
    1ff0:	90 e6       	ldi	r25, 0x60	; 96
    1ff2:	9f 93       	push	r25
    1ff4:	8f 93       	push	r24
    1ff6:	32 da       	rcall	.-2972   	; 0x145c <Print::printf(PGM_t const*, ...) [clone .constprop.21]>
/Users/askn/Documents/Zinnia-tools/Products/software/UPDI4AVR-USB/src/updi.cpp:237
    if (!send_bytes(erase_key, sizeof(erase_key))) return false;
    1ff8:	6a e0       	ldi	r22, 0x0A	; 10
    1ffa:	70 e0       	ldi	r23, 0x00	; 0
    1ffc:	8d e4       	ldi	r24, 0x4D	; 77
    1ffe:	90 e6       	ldi	r25, 0x60	; 96
    2000:	0e 94 e5 05 	call	0xbca	; 0xbca <UPDI::send_bytes(unsigned char const*, unsigned int)>
    2004:	0f 90       	pop	r0
    2006:	0f 90       	pop	r0
    2008:	0f 90       	pop	r0
    200a:	0f 90       	pop	r0
    200c:	81 11       	cpse	r24, r1
    200e:	02 c0       	rjmp	.+4      	; 0x2014 <__DATA_REGION_LENGTH__+0x14>
chip_erase():
/Users/askn/Documents/Zinnia-tools/Products/software/UPDI4AVR-USB/src/updi.cpp:268
      do { sys_status(); } while(bit_is_clear(RXDATA, 3));  /* wait set PROGSTART */
    }
    D1PRINTF(" PROGSTART=%02X\r\n", RXDATA);
    bit_set(PGCONF, PGCONF_ERSE_bp);
    bit_set(PGCONF, PGCONF_PROG_bp);
    return (*Command_Table.prog_init)();
    2010:	20 e0       	ldi	r18, 0x00	; 0
/Users/askn/Documents/Zinnia-tools/Products/software/UPDI4AVR-USB/src/updi.cpp:238

  bool set_erase_key (void) {
    if (bit_is_clear(PGCONF, PGCONF_PROG_bp)) set_nvmprog_key(false);
    D1PRINTF(" ERASE_KEY\r\n");
    if (!send_bytes(erase_key, sizeof(erase_key))) return false;
    do { key_status(); } while(bit_is_clear(RXDATA, 3));  /* wait set CHIPERASE */
    2012:	73 c0       	rjmp	.+230    	; 0x20fa <__DATA_REGION_LENGTH__+0xfa>
set_erase_key():
    2014:	0e 94 01 06 	call	0xc02	; 0xc02 <UPDI::key_status()>
    2018:	fb 9b       	sbis	0x1f, 3	; 31
/Users/askn/Documents/Zinnia-tools/Products/software/UPDI4AVR-USB/src/updi.cpp:239
    D1PRINTF(" KEY=%02X\r\n", RXDATA);
    201a:	fc cf       	rjmp	.-8      	; 0x2014 <__DATA_REGION_LENGTH__+0x14>
    201c:	8f b3       	in	r24, 0x1f	; 31
    201e:	1f 92       	push	r1
    2020:	8f 93       	push	r24
    2022:	89 e6       	ldi	r24, 0x69	; 105
    2024:	97 e0       	ldi	r25, 0x07	; 7
    2026:	9f 93       	push	r25
    2028:	8f 93       	push	r24
    202a:	8d e8       	ldi	r24, 0x8D	; 141
    202c:	90 e6       	ldi	r25, 0x60	; 96
    202e:	9f 93       	push	r25
    2030:	8f 93       	push	r24
    2032:	14 da       	rcall	.-3032   	; 0x145c <Print::printf(PGM_t const*, ...) [clone .constprop.21]>
sys_reset():
/Users/askn/Documents/Zinnia-tools/Products/software/UPDI4AVR-USB/src/updi.cpp:130
    const static uint8_t _reset[] = {
      0x55, 0xC8, 0x59, /* SYSRST */
      0x55, 0xC8, 0x00, /* SYSRUN */
      0x55, 0xC3, 0x04  /* UPDIDIS */
    };
    return send_bytes(_reset, _leave ? 9 : 6);
    2034:	66 e0       	ldi	r22, 0x06	; 6
    2036:	70 e0       	ldi	r23, 0x00	; 0
    2038:	82 e7       	ldi	r24, 0x72	; 114
    203a:	90 e6       	ldi	r25, 0x60	; 96
    203c:	0e 94 e5 05 	call	0xbca	; 0xbca <UPDI::send_bytes(unsigned char const*, unsigned int)>
chip_erase():
/Users/askn/Documents/Zinnia-tools/Products/software/UPDI4AVR-USB/src/updi.cpp:253
    return sys_reset(false);
  }

  bool chip_erase (void) {
    USART::drain();
    if (!set_erase_key()) return false;
    2040:	0f 90       	pop	r0
    2042:	0f 90       	pop	r0
    2044:	0f 90       	pop	r0
    2046:	0f 90       	pop	r0
    2048:	0f 90       	pop	r0
    204a:	0f 90       	pop	r0
    204c:	88 23       	and	r24, r24
    204e:	01 f3       	breq	.-64     	; 0x2010 <__DATA_REGION_LENGTH__+0x10>
delay_millis():
/Users/askn/Library/Arduino15/packages/MultiX-Zinnia/hardware/modernAVR/0.2.14/cores/modernAVR/api/delay_busywait.h:42
  }
}

void delay_millis (uint32_t _ms) {
  if (F_CPU >= 1000000L) {
    __builtin_avr_delay_cycles((F_CPU / 1000L) * _ms);
    2050:	2f ef       	ldi	r18, 0xFF	; 255
    2052:	84 e3       	ldi	r24, 0x34	; 52
    2054:	9c e0       	ldi	r25, 0x0C	; 12
    2056:	21 50       	subi	r18, 0x01	; 1
    2058:	80 40       	sbci	r24, 0x00	; 0
    205a:	90 40       	sbci	r25, 0x00	; 0
    205c:	e1 f7       	brne	.-8      	; 0x2056 <__DATA_REGION_LENGTH__+0x56>
    205e:	00 c0       	rjmp	.+0      	; 0x2060 <__DATA_REGION_LENGTH__+0x60>
/Users/askn/Documents/Zinnia-tools/Products/software/UPDI4AVR-USB/src/updi.cpp:255
    delay_millis(200);
    USART::drain();
    2060:	00 00       	nop
chip_erase():
    2062:	90 e0       	ldi	r25, 0x00	; 0
    2064:	80 e0       	ldi	r24, 0x00	; 0
    2066:	0e 94 6e 05 	call	0xadc	; 0xadc <USART::drain(unsigned int)>
/Users/askn/Documents/Zinnia-tools/Products/software/UPDI4AVR-USB/src/updi.cpp:256
    do { sys_status(); } while(bit_is_set(RXDATA, 5));    /* wait clear RSTSYS */
    206a:	0e 94 f8 05 	call	0xbf0	; 0xbf0 <UPDI::sys_status()>
    206e:	fd 99       	sbic	0x1f, 5	; 31
/Users/askn/Documents/Zinnia-tools/Products/software/UPDI4AVR-USB/src/updi.cpp:257
    do { sys_status(); } while(bit_is_set(RXDATA, 0));    /* wait clear LOCKSTATUS */
    2070:	fc cf       	rjmp	.-8      	; 0x206a <__DATA_REGION_LENGTH__+0x6a>
    2072:	0e 94 f8 05 	call	0xbf0	; 0xbf0 <UPDI::sys_status()>
    2076:	f8 99       	sbic	0x1f, 0	; 31
/Users/askn/Documents/Zinnia-tools/Products/software/UPDI4AVR-USB/src/updi.cpp:258
    D1PRINTF(" <SYS:%02X>\r\n", RXDATA);
    2078:	fc cf       	rjmp	.-8      	; 0x2072 <__DATA_REGION_LENGTH__+0x72>
    207a:	8f b3       	in	r24, 0x1f	; 31
    207c:	1f 92       	push	r1
    207e:	8f 93       	push	r24
    2080:	84 e9       	ldi	r24, 0x94	; 148
    2082:	97 e0       	ldi	r25, 0x07	; 7
    2084:	9f 93       	push	r25
    2086:	8f 93       	push	r24
    2088:	8d e8       	ldi	r24, 0x8D	; 141
    208a:	90 e6       	ldi	r25, 0x60	; 96
    208c:	9f 93       	push	r25
    208e:	8f 93       	push	r24
    2090:	e5 d9       	rcall	.-3126   	; 0x145c <Print::printf(PGM_t const*, ...) [clone .constprop.21]>
    2092:	0f 90       	pop	r0
    2094:	0f 90       	pop	r0
    2096:	0f 90       	pop	r0
    2098:	0f 90       	pop	r0
    209a:	0f 90       	pop	r0
/Users/askn/Documents/Zinnia-tools/Products/software/UPDI4AVR-USB/src/updi.cpp:259
    do { key_status(); } while(bit_is_set(RXDATA, 3));    /* wait clear CHIPERASE */
    209c:	0f 90       	pop	r0
    209e:	0e 94 01 06 	call	0xc02	; 0xc02 <UPDI::key_status()>
    20a2:	fb 99       	sbic	0x1f, 3	; 31
/Users/askn/Documents/Zinnia-tools/Products/software/UPDI4AVR-USB/src/updi.cpp:260
    sys_status();
    20a4:	fc cf       	rjmp	.-8      	; 0x209e <__DATA_REGION_LENGTH__+0x9e>
    20a6:	0e 94 f8 05 	call	0xbf0	; 0xbf0 <UPDI::sys_status()>
/Users/askn/Documents/Zinnia-tools/Products/software/UPDI4AVR-USB/src/updi.cpp:261
    if (bit_is_clear(RXDATA, 3)) {
    20aa:	fb 99       	sbic	0x1f, 3	; 31
/Users/askn/Documents/Zinnia-tools/Products/software/UPDI4AVR-USB/src/updi.cpp:262
      if (!set_nvmprog_key()) return false;
    20ac:	09 c0       	rjmp	.+18     	; 0x20c0 <__DATA_REGION_LENGTH__+0xc0>
    20ae:	81 e0       	ldi	r24, 0x01	; 1
    20b0:	c6 da       	rcall	.-2676   	; 0x163e <UPDI::set_nvmprog_key(bool)>
    20b2:	88 23       	and	r24, r24
    20b4:	09 f4       	brne	.+2      	; 0x20b8 <__DATA_REGION_LENGTH__+0xb8>
    20b6:	ac cf       	rjmp	.-168    	; 0x2010 <__DATA_REGION_LENGTH__+0x10>
/Users/askn/Documents/Zinnia-tools/Products/software/UPDI4AVR-USB/src/updi.cpp:263
      do { sys_status(); } while(bit_is_clear(RXDATA, 3));  /* wait set PROGSTART */
    20b8:	0e 94 f8 05 	call	0xbf0	; 0xbf0 <UPDI::sys_status()>
    20bc:	fb 9b       	sbis	0x1f, 3	; 31
    20be:	fc cf       	rjmp	.-8      	; 0x20b8 <__DATA_REGION_LENGTH__+0xb8>
/Users/askn/Documents/Zinnia-tools/Products/software/UPDI4AVR-USB/src/updi.cpp:265
    }
    D1PRINTF(" PROGSTART=%02X\r\n", RXDATA);
    20c0:	8f b3       	in	r24, 0x1f	; 31
    20c2:	1f 92       	push	r1
    20c4:	8f 93       	push	r24
    20c6:	82 e8       	ldi	r24, 0x82	; 130
    20c8:	97 e0       	ldi	r25, 0x07	; 7
    20ca:	9f 93       	push	r25
    20cc:	8f 93       	push	r24
    20ce:	8d e8       	ldi	r24, 0x8D	; 141
    20d0:	90 e6       	ldi	r25, 0x60	; 96
    20d2:	9f 93       	push	r25
    20d4:	8f 93       	push	r24
    20d6:	c2 d9       	rcall	.-3196   	; 0x145c <Print::printf(PGM_t const*, ...) [clone .constprop.21]>
    20d8:	ea 9a       	sbi	0x1d, 2	; 29
/Users/askn/Documents/Zinnia-tools/Products/software/UPDI4AVR-USB/src/updi.cpp:266
    bit_set(PGCONF, PGCONF_ERSE_bp);
    20da:	e9 9a       	sbi	0x1d, 1	; 29
/Users/askn/Documents/Zinnia-tools/Products/software/UPDI4AVR-USB/src/updi.cpp:267
    bit_set(PGCONF, PGCONF_PROG_bp);
    20dc:	e0 91 0e 63 	lds	r30, 0x630E	; 0x80630e <Command_Table>
/Users/askn/Documents/Zinnia-tools/Products/software/UPDI4AVR-USB/src/updi.cpp:268
    return (*Command_Table.prog_init)();
    20e0:	f0 91 0f 63 	lds	r31, 0x630F	; 0x80630f <Command_Table+0x1>
    20e4:	09 95       	icall
    20e6:	21 e0       	ldi	r18, 0x01	; 1
    20e8:	0f 90       	pop	r0
    20ea:	0f 90       	pop	r0
    20ec:	0f 90       	pop	r0
    20ee:	0f 90       	pop	r0
    20f0:	0f 90       	pop	r0
    20f2:	0f 90       	pop	r0
    20f4:	89 2b       	or	r24, r25
    20f6:	09 f4       	brne	.+2      	; 0x20fa <__DATA_REGION_LENGTH__+0xfa>
    20f8:	8b cf       	rjmp	.-234    	; 0x2010 <__DATA_REGION_LENGTH__+0x10>
/Users/askn/Documents/Zinnia-tools/Products/software/UPDI4AVR-USB/src/updi.cpp:269
  }
    20fa:	82 2f       	mov	r24, r18
    20fc:	08 95       	ret

000020fe <NVM::V4::erase_memory()>:
erase_memory():
/Users/askn/Documents/Zinnia-tools/Products/software/UPDI4AVR-USB/src/nvmv4.cpp:140
    }
    return 0;
  }

  size_t erase_memory (void) {
    uint8_t e_type = packet.out.bEType;
    20fe:	80 91 d5 60 	lds	r24, 0x60D5	; 0x8060d5 <packet+0x7>
/Users/askn/Documents/Zinnia-tools/Products/software/UPDI4AVR-USB/src/nvmv4.cpp:141
    if (e_type == 0x00) {
    2102:	81 11       	cpse	r24, r1
    2104:	03 c0       	rjmp	.+6      	; 0x210c <NVM::V4::erase_memory()+0xe>
/Users/askn/Documents/Zinnia-tools/Products/software/UPDI4AVR-USB/src/nvmv4.cpp:143
      /* XMEGA_ERASE_CHIP */
      return UPDI::chip_erase();
    2106:	67 df       	rcall	.-306    	; 0x1fd6 <UPDI::chip_erase()>
    2108:	90 e0       	ldi	r25, 0x00	; 0
/Users/askn/Documents/Zinnia-tools/Products/software/UPDI4AVR-USB/src/nvmv4.cpp:150
    else {
      /* NOTE: AVRDUDE<=7.3 may pass the wrong M_TYPE. */
      /* For safety, only USERROW and BOOTROW are allowed to erase pages. */
      if (e_type == 0x07) {
        /* XMEGA_ERASE_USERSIG */
        return erase_flash_page(packet.out.dwAddr);
    210a:	08 95       	ret
    210c:	87 30       	cpi	r24, 0x07	; 7
/Users/askn/Documents/Zinnia-tools/Products/software/UPDI4AVR-USB/src/nvmv4.cpp:148
      return UPDI::chip_erase();
    }
    else {
      /* NOTE: AVRDUDE<=7.3 may pass the wrong M_TYPE. */
      /* For safety, only USERROW and BOOTROW are allowed to erase pages. */
      if (e_type == 0x07) {
    210e:	51 f4       	brne	.+20     	; 0x2124 <NVM::V4::erase_memory()+0x26>
    2110:	60 91 d6 60 	lds	r22, 0x60D6	; 0x8060d6 <packet+0x8>
/Users/askn/Documents/Zinnia-tools/Products/software/UPDI4AVR-USB/src/nvmv4.cpp:150
        /* XMEGA_ERASE_USERSIG */
        return erase_flash_page(packet.out.dwAddr);
    2114:	70 91 d7 60 	lds	r23, 0x60D7	; 0x8060d7 <packet+0x9>
    2118:	80 91 d8 60 	lds	r24, 0x60D8	; 0x8060d8 <packet+0xa>
    211c:	90 91 d9 60 	lds	r25, 0x60D9	; 0x8060d9 <packet+0xb>
    2120:	ae d8       	rcall	.-3748   	; 0x127e <NVM::V4::erase_flash_page(unsigned long)>
    2122:	f2 cf       	rjmp	.-28     	; 0x2108 <NVM::V4::erase_memory()+0xa>
    2124:	81 e0       	ldi	r24, 0x01	; 1
    2126:	90 e0       	ldi	r25, 0x00	; 0
/Users/askn/Documents/Zinnia-tools/Products/software/UPDI4AVR-USB/src/nvmv4.cpp:155
      }
    }
    /* Page erase will not be used if received. */
    /* Instead, page erase is determined by the is_boundary_flash_page function. */
    return 1;
    2128:	08 95       	ret

0000212a <NVM::V2::erase_memory()>:
    212a:	80 91 d5 60 	lds	r24, 0x60D5	; 0x8060d5 <packet+0x7>
/Users/askn/Documents/Zinnia-tools/Products/software/UPDI4AVR-USB/src/nvmv2.cpp:137
    }
    return 0;
  }

  size_t erase_memory (void) {
    uint8_t e_type = packet.out.bEType;
    212e:	81 11       	cpse	r24, r1
    2130:	03 c0       	rjmp	.+6      	; 0x2138 <NVM::V2::erase_memory()+0xe>
/Users/askn/Documents/Zinnia-tools/Products/software/UPDI4AVR-USB/src/nvmv2.cpp:138
    if (e_type == 0x00) {
    2132:	51 df       	rcall	.-350    	; 0x1fd6 <UPDI::chip_erase()>
    2134:	90 e0       	ldi	r25, 0x00	; 0
/Users/askn/Documents/Zinnia-tools/Products/software/UPDI4AVR-USB/src/nvmv2.cpp:140
      /* XMEGA_ERASE_CHIP */
      return UPDI::chip_erase();
    2136:	08 95       	ret
    2138:	87 30       	cpi	r24, 0x07	; 7
/Users/askn/Documents/Zinnia-tools/Products/software/UPDI4AVR-USB/src/nvmv2.cpp:147
    else {
      /* NOTE: AVRDUDE<=7.3 may pass the wrong M_TYPE. */
      /* For safety, only USERROW and BOOTROW are allowed to erase pages. */
      if (e_type == 0x07) {
        /* XMEGA_ERASE_USERSIG */
        return erase_flash_page(packet.out.dwAddr);
    213a:	51 f4       	brne	.+20     	; 0x2150 <NVM::V2::erase_memory()+0x26>
/Users/askn/Documents/Zinnia-tools/Products/software/UPDI4AVR-USB/src/nvmv2.cpp:145
      return UPDI::chip_erase();
    }
    else {
      /* NOTE: AVRDUDE<=7.3 may pass the wrong M_TYPE. */
      /* For safety, only USERROW and BOOTROW are allowed to erase pages. */
      if (e_type == 0x07) {
    213c:	60 91 d6 60 	lds	r22, 0x60D6	; 0x8060d6 <packet+0x8>
/Users/askn/Documents/Zinnia-tools/Products/software/UPDI4AVR-USB/src/nvmv2.cpp:147
        /* XMEGA_ERASE_USERSIG */
        return erase_flash_page(packet.out.dwAddr);
    2140:	70 91 d7 60 	lds	r23, 0x60D7	; 0x8060d7 <packet+0x9>
    2144:	80 91 d8 60 	lds	r24, 0x60D8	; 0x8060d8 <packet+0xa>
    2148:	90 91 d9 60 	lds	r25, 0x60D9	; 0x8060d9 <packet+0xb>
    214c:	e7 d8       	rcall	.-3634   	; 0x131c <NVM::V2::erase_flash_page(unsigned long)>
    214e:	f2 cf       	rjmp	.-28     	; 0x2134 <NVM::V2::erase_memory()+0xa>
    2150:	81 e0       	ldi	r24, 0x01	; 1
    2152:	90 e0       	ldi	r25, 0x00	; 0
    2154:	08 95       	ret

00002156 <NVM::V0::erase_memory()>:
/Users/askn/Documents/Zinnia-tools/Products/software/UPDI4AVR-USB/src/nvmv2.cpp:152
      }
    }
    /* Page erase will not be used if received. */
    /* Instead, page erase is determined by the is_boundary_flash_page function. */
    return 1;
    2156:	80 91 d5 60 	lds	r24, 0x60D5	; 0x8060d5 <packet+0x7>
/Users/askn/Documents/Zinnia-tools/Products/software/UPDI4AVR-USB/src/nvmv2.cpp:153
  }
    215a:	81 11       	cpse	r24, r1
/Users/askn/Documents/Zinnia-tools/Products/software/UPDI4AVR-USB/src/nvmv0.cpp:134
    return 0;
  }

  size_t erase_memory (void) {
    uint8_t e_type = packet.out.bEType;
    if (e_type == 0x00) {
    215c:	03 c0       	rjmp	.+6      	; 0x2164 <NVM::V0::erase_memory()+0xe>
    215e:	3b df       	rcall	.-394    	; 0x1fd6 <UPDI::chip_erase()>
    2160:	90 e0       	ldi	r25, 0x00	; 0
    2162:	08 95       	ret
/Users/askn/Documents/Zinnia-tools/Products/software/UPDI4AVR-USB/src/nvmv0.cpp:136
      /* XMEGA_ERASE_CHIP */
      return UPDI::chip_erase();
    2164:	81 e0       	ldi	r24, 0x01	; 1
    2166:	90 e0       	ldi	r25, 0x00	; 0
    2168:	08 95       	ret

0000216a <NVM::V5::erase_memory()>:
_ZN3NVM2V512erase_memoryEv():
    216a:	f5 cf       	rjmp	.-22     	; 0x2156 <NVM::V0::erase_memory()>

0000216c <NVM::V3::erase_memory()>:
_ZN3NVM2V312erase_memoryEv():
/Users/askn/Documents/Zinnia-tools/Products/software/UPDI4AVR-USB/src/nvmv0.cpp:139
    }
    /* Page erase will not be used if received. */
    return 1;
    216c:	f4 cf       	rjmp	.-24     	; 0x2156 <NVM::V0::erase_memory()>

0000216e <TPI::connect()>:
connect():
    216e:	af 92       	push	r10
/Users/askn/Documents/Zinnia-tools/Products/software/UPDI4AVR-USB/src/nvmv0.cpp:140
  }
    2170:	bf 92       	push	r11
    2172:	cf 92       	push	r12
    2174:	df 92       	push	r13
    2176:	ef 92       	push	r14
    2178:	ff 92       	push	r15
/Users/askn/Documents/Zinnia-tools/Products/software/UPDI4AVR-USB/src/tpi.cpp:211
    return nvm_ctrl(0x00);
  }

  /*** Application ****/

  size_t connect (void) {
    217a:	0f 93       	push	r16
    217c:	1f 93       	push	r17
    217e:	cf 93       	push	r28
    2180:	df 93       	push	r29
    2182:	00 d0       	rcall	.+0      	; 0x2184 <TPI::connect()+0x16>
    2184:	cd b7       	in	r28, 0x3d	; 61
    2186:	de b7       	in	r29, 0x3e	; 62
    2188:	80 e8       	ldi	r24, 0x80	; 128
    218a:	8d bb       	out	0x1d, r24	; 29
    218c:	80 91 9c 60 	lds	r24, 0x609C	; 0x80609c <_packet_length>
    2190:	90 91 9d 60 	lds	r25, 0x609D	; 0x80609d <_packet_length+0x1>
/Users/askn/Documents/Zinnia-tools/Products/software/UPDI4AVR-USB/src/tpi.cpp:212
    PGCONF = PGCONF_FAIL_bm;
    2194:	07 97       	sbiw	r24, 0x07	; 7
/Users/askn/Documents/Zinnia-tools/Products/software/UPDI4AVR-USB/src/tpi.cpp:214

    if (_packet_length > 6 && packet.out.tpi.bType) {
    2196:	88 f0       	brcs	.+34     	; 0x21ba <TPI::connect()+0x4c>
    2198:	80 91 d4 60 	lds	r24, 0x60D4	; 0x8060d4 <packet+0x6>
    219c:	88 23       	and	r24, r24
    219e:	69 f0       	breq	.+26     	; 0x21ba <TPI::connect()+0x4c>
    21a0:	88 e4       	ldi	r24, 0x48	; 72
    21a2:	97 e0       	ldi	r25, 0x07	; 7
    21a4:	9f 93       	push	r25
    21a6:	8f 93       	push	r24
    21a8:	8d e8       	ldi	r24, 0x8D	; 141
/Users/askn/Documents/Zinnia-tools/Products/software/UPDI4AVR-USB/src/tpi.cpp:216
      /* External Reset : Activation High-Voltage mode */
      D1PRINTF("<HVEN>\r\n");
    21aa:	90 e6       	ldi	r25, 0x60	; 96
    21ac:	9f 93       	push	r25
    21ae:	8f 93       	push	r24
    21b0:	55 d9       	rcall	.-3414   	; 0x145c <Print::printf(PGM_t const*, ...) [clone .constprop.21]>
    21b2:	0f 90       	pop	r0
    21b4:	0f 90       	pop	r0
    21b6:	0f 90       	pop	r0
    21b8:	0f 90       	pop	r0
    21ba:	02 9a       	sbi	0x00, 2	; 0
    21bc:	01 9a       	sbi	0x00, 1	; 0
delay_millis():
    21be:	2f ef       	ldi	r18, 0xFF	; 255
    21c0:	84 e3       	ldi	r24, 0x34	; 52
    21c2:	9c e0       	ldi	r25, 0x0C	; 12
    21c4:	21 50       	subi	r18, 0x01	; 1
/Users/askn/Documents/Zinnia-tools/Products/software/UPDI4AVR-USB/src/tpi.cpp:222
      /* STUB */
    }

    /*** Enter RESET (normal programing) ***/
    /* TRST remains LOW until program mode is exited. */
    openDrainWriteMacro(PIN_VCP_TXD, LOW);
    21c6:	80 40       	sbci	r24, 0x00	; 0
/Users/askn/Documents/Zinnia-tools/Products/software/UPDI4AVR-USB/src/tpi.cpp:223
    openDrainWriteMacro(PIN_PG_TRST, LOW);
    21c8:	90 40       	sbci	r25, 0x00	; 0
/Users/askn/Library/Arduino15/packages/MultiX-Zinnia/hardware/modernAVR/0.2.14/cores/modernAVR/api/delay_busywait.h:42
    21ca:	e1 f7       	brne	.-8      	; 0x21c4 <TPI::connect()+0x56>
    21cc:	00 c0       	rjmp	.+0      	; 0x21ce <TPI::connect()+0x60>
    21ce:	00 00       	nop
set_sstcs():
    21d0:	82 ec       	ldi	r24, 0xC2	; 194
    21d2:	0e 94 f5 07 	call	0xfea	; 0xfea <TPI::send(unsigned char)>
    21d6:	81 11       	cpse	r24, r1
    21d8:	03 c0       	rjmp	.+6      	; 0x21e0 <TPI::connect()+0x72>
connect():
    21da:	90 e0       	ldi	r25, 0x00	; 0
/Users/askn/Documents/Zinnia-tools/Products/software/UPDI4AVR-USB/src/tpi.cpp:69
  bool get_sldcs (const uint8_t _addr) {
    return (send(0x80 | _addr) && recv());
  }

  bool set_sstcs (const uint8_t _addr, const uint8_t _data) {
    return (send(0xC0 | _addr) && send(_data));
    21dc:	80 e0       	ldi	r24, 0x00	; 0
    21de:	ae c0       	rjmp	.+348    	; 0x233c <TPI::connect()+0x1ce>
set_sstcs():
    21e0:	85 e0       	ldi	r24, 0x05	; 5
    21e2:	0e 94 f5 07 	call	0xfea	; 0xfea <TPI::send(unsigned char)>
/Users/askn/Documents/Zinnia-tools/Products/software/UPDI4AVR-USB/src/tpi.cpp:246

    while (!(get_sldcs(0x00) && RXDATA == 0x02)) {  /* get TPISR */
      D1PRINTF(" SKEY\r\n");
      for (uint8_t i = 0; i < (uint8_t)sizeof(nvmprog_key); i++) {
        if (!send(nvmprog_key[i])) {
          return 0;
    21e6:	88 23       	and	r24, r24
    21e8:	c1 f3       	breq	.-16     	; 0x21da <TPI::connect()+0x6c>
connect():
/Users/askn/Documents/Zinnia-tools/Products/software/UPDI4AVR-USB/src/tpi.cpp:69
  bool get_sldcs (const uint8_t _addr) {
    return (send(0x80 | _addr) && recv());
  }

  bool set_sstcs (const uint8_t _addr, const uint8_t _data) {
    return (send(0xC0 | _addr) && send(_data));
    21ea:	8b e3       	ldi	r24, 0x3B	; 59
    21ec:	97 e0       	ldi	r25, 0x07	; 7
    21ee:	9f 93       	push	r25
    21f0:	8f 93       	push	r24
    21f2:	8d e8       	ldi	r24, 0x8D	; 141
/Users/askn/Documents/Zinnia-tools/Products/software/UPDI4AVR-USB/src/tpi.cpp:233
    /* During the wait, TCLK will emit a sufficient number of pulses. */
    delay_millis(200);

    /*** Set TPIPCR Guard Time : 4 clock ****/
    if (!set_sstcs(0x02, 0x05)) return 0;
    D1PRINTF(" TPIPCR<05\r\n");
    21f4:	90 e6       	ldi	r25, 0x60	; 96
    21f6:	9f 93       	push	r25
    21f8:	8f 93       	push	r24
    21fa:	30 d9       	rcall	.-3488   	; 0x145c <Print::printf(PGM_t const*, ...) [clone .constprop.21]>
    21fc:	0f 90       	pop	r0
    21fe:	0f 90       	pop	r0
    2200:	0f 90       	pop	r0
    2202:	0f 90       	pop	r0
get_sldcs():
    2204:	8f e8       	ldi	r24, 0x8F	; 143
    2206:	0e 94 f5 07 	call	0xfea	; 0xfea <TPI::send(unsigned char)>
    220a:	88 23       	and	r24, r24
    220c:	d9 f3       	breq	.-10     	; 0x2204 <TPI::connect()+0x96>
    220e:	0e 94 e5 07 	call	0xfca	; 0xfca <TPI::recv()>
/Users/askn/Documents/Zinnia-tools/Products/software/UPDI4AVR-USB/src/tpi.cpp:65
  }

  /*** TPI control and CSS area command ***/

  bool get_sldcs (const uint8_t _addr) {
    return (send(0x80 | _addr) && recv());
    2212:	88 23       	and	r24, r24
    2214:	b9 f3       	breq	.-18     	; 0x2204 <TPI::connect()+0x96>
connect():
    2216:	8f b3       	in	r24, 0x1f	; 31
    2218:	80 38       	cpi	r24, 0x80	; 128
    221a:	a1 f7       	brne	.-24     	; 0x2204 <TPI::connect()+0x96>
    221c:	8f b3       	in	r24, 0x1f	; 31
    221e:	1f 92       	push	r1
    2220:	8f 93       	push	r24
/Users/askn/Documents/Zinnia-tools/Products/software/UPDI4AVR-USB/src/tpi.cpp:236
    /*** Set TPIPCR Guard Time : 4 clock ****/
    if (!set_sstcs(0x02, 0x05)) return 0;
    D1PRINTF(" TPIPCR<05\r\n");

    /*** Check TPIIR code : Fixed 0x80 ***/
    while (!(get_sldcs(0x0F) && (RXDATA == 0x80)));
    2222:	8d e2       	ldi	r24, 0x2D	; 45
    2224:	97 e0       	ldi	r25, 0x07	; 7
    2226:	9f 93       	push	r25
/Users/askn/Documents/Zinnia-tools/Products/software/UPDI4AVR-USB/src/tpi.cpp:237
    D1PRINTF(" TPIIR>%02X\r\n", RXDATA);
    2228:	8f 93       	push	r24
    222a:	8d e8       	ldi	r24, 0x8D	; 141
    222c:	90 e6       	ldi	r25, 0x60	; 96
    222e:	9f 93       	push	r25
    2230:	8f 93       	push	r24
    2232:	14 d9       	rcall	.-3544   	; 0x145c <Print::printf(PGM_t const*, ...) [clone .constprop.21]>
    2234:	e8 9a       	sbi	0x1d, 0	; 29
    2236:	0f 90       	pop	r0
    2238:	0f 90       	pop	r0
    223a:	0f 90       	pop	r0
    223c:	0f 90       	pop	r0
    223e:	0f 90       	pop	r0
    2240:	0f 90       	pop	r0
/Users/askn/Documents/Zinnia-tools/Products/software/UPDI4AVR-USB/src/tpi.cpp:238
    bit_set(PGCONF, PGCONF_UPDI_bp);
    2242:	87 e1       	ldi	r24, 0x17	; 23
    2244:	e8 2e       	mov	r14, r24
    2246:	87 e0       	ldi	r24, 0x07	; 7
    2248:	f8 2e       	mov	r15, r24
    224a:	9d e8       	ldi	r25, 0x8D	; 141
    224c:	c9 2e       	mov	r12, r25
    224e:	90 e6       	ldi	r25, 0x60	; 96
/Users/askn/Documents/Zinnia-tools/Products/software/UPDI4AVR-USB/src/tpi.cpp:243

    /*** Activate NVMPROG mode ***/

    while (!(get_sldcs(0x00) && RXDATA == 0x02)) {  /* get TPISR */
      D1PRINTF(" SKEY\r\n");
    2250:	d9 2e       	mov	r13, r25
    2252:	29 e3       	ldi	r18, 0x39	; 57
    2254:	a2 2e       	mov	r10, r18
    2256:	20 e6       	ldi	r18, 0x60	; 96
    2258:	b2 2e       	mov	r11, r18
get_sldcs():
    225a:	80 e8       	ldi	r24, 0x80	; 128
    225c:	0e 94 f5 07 	call	0xfea	; 0xfea <TPI::send(unsigned char)>
    2260:	88 23       	and	r24, r24
    2262:	e1 f1       	breq	.+120    	; 0x22dc <TPI::connect()+0x16e>
    2264:	0e 94 e5 07 	call	0xfca	; 0xfca <TPI::recv()>
/Users/askn/Documents/Zinnia-tools/Products/software/UPDI4AVR-USB/src/tpi.cpp:65
  }

  /*** TPI control and CSS area command ***/

  bool get_sldcs (const uint8_t _addr) {
    return (send(0x80 | _addr) && recv());
    2268:	88 23       	and	r24, r24
    226a:	c1 f1       	breq	.+112    	; 0x22dc <TPI::connect()+0x16e>
connect():
    226c:	8f b3       	in	r24, 0x1f	; 31
    226e:	82 30       	cpi	r24, 0x02	; 2
    2270:	a9 f5       	brne	.+106    	; 0x22dc <TPI::connect()+0x16e>
    2272:	8f b3       	in	r24, 0x1f	; 31
    2274:	1f 92       	push	r1
    2276:	8f 93       	push	r24
/Users/askn/Documents/Zinnia-tools/Products/software/UPDI4AVR-USB/src/tpi.cpp:242
    D1PRINTF(" TPIIR>%02X\r\n", RXDATA);
    bit_set(PGCONF, PGCONF_UPDI_bp);

    /*** Activate NVMPROG mode ***/

    while (!(get_sldcs(0x00) && RXDATA == 0x02)) {  /* get TPISR */
    2278:	8f e1       	ldi	r24, 0x1F	; 31
    227a:	97 e0       	ldi	r25, 0x07	; 7
    227c:	9f 93       	push	r25
/Users/askn/Documents/Zinnia-tools/Products/software/UPDI4AVR-USB/src/tpi.cpp:251
          return 0;
        }
        idle_clock(4);
      }
    };
    D1PRINTF(" TPISR>%02X\r\n", RXDATA);
    227e:	8f 93       	push	r24
    2280:	8d e8       	ldi	r24, 0x8D	; 141
    2282:	90 e6       	ldi	r25, 0x60	; 96
    2284:	9f 93       	push	r25
    2286:	8f 93       	push	r24
    2288:	e9 d8       	rcall	.-3630   	; 0x145c <Print::printf(PGM_t const*, ...) [clone .constprop.21]>
    228a:	19 82       	std	Y+1, r1	; 0x01
    228c:	1a 82       	std	Y+2, r1	; 0x02
    228e:	81 ec       	ldi	r24, 0xC1	; 193
    2290:	9f e3       	ldi	r25, 0x3F	; 63
    2292:	0e 94 30 08 	call	0x1060	; 0x1060 <TPI::set_sstpr(unsigned int)>
    2296:	0f 90       	pop	r0
/Users/askn/Documents/Zinnia-tools/Products/software/UPDI4AVR-USB/src/tpi.cpp:265
     * Other is written in 1 word chunks.
     *
     * The original PICKit4 probably does the same thing,
     * since the JTAG3 protocol does not include these notifications.
     */
    uint16_t _signature = 0;
    2298:	0f 90       	pop	r0
    229a:	0f 90       	pop	r0
/Users/askn/Documents/Zinnia-tools/Products/software/UPDI4AVR-USB/src/tpi.cpp:266
    if (set_sstpr(0x3FC1) && get_sld()) {
    229c:	0f 90       	pop	r0
    229e:	0f 90       	pop	r0
    22a0:	0f 90       	pop	r0
    22a2:	88 23       	and	r24, r24
    22a4:	09 f4       	brne	.+2      	; 0x22a8 <TPI::connect()+0x13a>
    22a6:	57 c0       	rjmp	.+174    	; 0x2356 <TPI::connect()+0x1e8>
    22a8:	0e 94 2a 08 	call	0x1054	; 0x1054 <TPI::get_sld()>
    22ac:	88 23       	and	r24, r24
    22ae:	09 f4       	brne	.+2      	; 0x22b2 <TPI::connect()+0x144>
    22b0:	52 c0       	rjmp	.+164    	; 0x2356 <TPI::connect()+0x1e8>
    22b2:	8f b3       	in	r24, 0x1f	; 31
    22b4:	8a 83       	std	Y+2, r24	; 0x02
    22b6:	0e 94 2a 08 	call	0x1054	; 0x1054 <TPI::get_sld()>
    22ba:	88 23       	and	r24, r24
    22bc:	11 f0       	breq	.+4      	; 0x22c2 <TPI::connect()+0x154>
    22be:	8f b3       	in	r24, 0x1f	; 31
/Users/askn/Documents/Zinnia-tools/Products/software/UPDI4AVR-USB/src/tpi.cpp:267
      _CAPS16(_signature)->bytes[1] = RXDATA;
    22c0:	89 83       	std	Y+1, r24	; 0x01
    22c2:	29 81       	ldd	r18, Y+1	; 0x01
/Users/askn/Documents/Zinnia-tools/Products/software/UPDI4AVR-USB/src/tpi.cpp:268
      if (get_sld()) _CAPS16(_signature)->bytes[0] = RXDATA;
    22c4:	3a 81       	ldd	r19, Y+2	; 0x02
    22c6:	88 e0       	ldi	r24, 0x08	; 8
    22c8:	2e 30       	cpi	r18, 0x0E	; 14
    22ca:	f2 e9       	ldi	r31, 0x92	; 146
    22cc:	3f 07       	cpc	r19, r31
    22ce:	11 f1       	breq	.+68     	; 0x2314 <TPI::connect()+0x1a6>
/Users/askn/Documents/Zinnia-tools/Products/software/UPDI4AVR-USB/src/tpi.cpp:270
    }
    _tpi_chunks = _signature == 0x920E ? 8  /* ATtiny40 */
    22d0:	2f 30       	cpi	r18, 0x0F	; 15
    22d2:	81 e9       	ldi	r24, 0x91	; 145
    22d4:	38 07       	cpc	r19, r24
    22d6:	e9 f0       	breq	.+58     	; 0x2312 <TPI::connect()+0x1a4>
    22d8:	82 e0       	ldi	r24, 0x02	; 2
    22da:	1c c0       	rjmp	.+56     	; 0x2314 <TPI::connect()+0x1a6>
    22dc:	ff 92       	push	r15
    22de:	ef 92       	push	r14
    22e0:	df 92       	push	r13
    22e2:	cf 92       	push	r12
    22e4:	bb d8       	rcall	.-3722   	; 0x145c <Print::printf(PGM_t const*, ...) [clone .constprop.21]>
    22e6:	00 e3       	ldi	r16, 0x30	; 48
    22e8:	10 e6       	ldi	r17, 0x60	; 96
/Users/askn/Documents/Zinnia-tools/Products/software/UPDI4AVR-USB/src/tpi.cpp:243
    bit_set(PGCONF, PGCONF_UPDI_bp);

    /*** Activate NVMPROG mode ***/

    while (!(get_sldcs(0x00) && RXDATA == 0x02)) {  /* get TPISR */
      D1PRINTF(" SKEY\r\n");
    22ea:	0f 90       	pop	r0
    22ec:	0f 90       	pop	r0
    22ee:	0f 90       	pop	r0
    22f0:	0f 90       	pop	r0
    22f2:	f8 01       	movw	r30, r16
    22f4:	81 91       	ld	r24, Z+
    22f6:	8f 01       	movw	r16, r30
    22f8:	0e 94 f5 07 	call	0xfea	; 0xfea <TPI::send(unsigned char)>
    22fc:	88 23       	and	r24, r24
    22fe:	09 f4       	brne	.+2      	; 0x2302 <TPI::connect()+0x194>
    2300:	6c cf       	rjmp	.-296    	; 0x21da <TPI::connect()+0x6c>
/Users/askn/Documents/Zinnia-tools/Products/software/UPDI4AVR-USB/src/tpi.cpp:245
      for (uint8_t i = 0; i < (uint8_t)sizeof(nvmprog_key); i++) {
        if (!send(nvmprog_key[i])) {
    2302:	84 e0       	ldi	r24, 0x04	; 4
    2304:	90 e0       	ldi	r25, 0x00	; 0
    2306:	0e 94 48 08 	call	0x1090	; 0x1090 <TPI::idle_clock(unsigned int)>
    230a:	a0 16       	cp	r10, r16
    230c:	b1 06       	cpc	r11, r17
    230e:	89 f7       	brne	.-30     	; 0x22f2 <TPI::connect()+0x184>
    2310:	a4 cf       	rjmp	.-184    	; 0x225a <TPI::connect()+0xec>
/Users/askn/Documents/Zinnia-tools/Products/software/UPDI4AVR-USB/src/tpi.cpp:248
          return 0;
        }
        idle_clock(4);
    2312:	84 e0       	ldi	r24, 0x04	; 4
    2314:	80 93 9b 60 	sts	0x609B, r24	; 0x80609b <_tpi_chunks>
    2318:	1f 92       	push	r1
/Users/askn/Documents/Zinnia-tools/Products/software/UPDI4AVR-USB/src/tpi.cpp:244

    /*** Activate NVMPROG mode ***/

    while (!(get_sldcs(0x00) && RXDATA == 0x02)) {  /* get TPISR */
      D1PRINTF(" SKEY\r\n");
      for (uint8_t i = 0; i < (uint8_t)sizeof(nvmprog_key); i++) {
    231a:	8f 93       	push	r24
    231c:	3f 93       	push	r19
    231e:	2f 93       	push	r18
    2320:	86 e0       	ldi	r24, 0x06	; 6
/Users/askn/Documents/Zinnia-tools/Products/software/UPDI4AVR-USB/src/tpi.cpp:270
    uint16_t _signature = 0;
    if (set_sstpr(0x3FC1) && get_sld()) {
      _CAPS16(_signature)->bytes[1] = RXDATA;
      if (get_sld()) _CAPS16(_signature)->bytes[0] = RXDATA;
    }
    _tpi_chunks = _signature == 0x920E ? 8  /* ATtiny40 */
    2322:	97 e0       	ldi	r25, 0x07	; 7
    2324:	9f 93       	push	r25
    2326:	8f 93       	push	r24
/Users/askn/Documents/Zinnia-tools/Products/software/UPDI4AVR-USB/src/tpi.cpp:273
                : _signature == 0x910F ? 4  /* ATtiny20 */
                : 2;                        /* Othres   */
    D1PRINTF(" SIG>%04X:%02X\r\n", _signature, _tpi_chunks);
    2328:	8d e8       	ldi	r24, 0x8D	; 141
    232a:	90 e6       	ldi	r25, 0x60	; 96
    232c:	9f 93       	push	r25
    232e:	8f 93       	push	r24
    2330:	95 d8       	rcall	.-3798   	; 0x145c <Print::printf(PGM_t const*, ...) [clone .constprop.21]>
    2332:	e9 9a       	sbi	0x1d, 1	; 29
    2334:	cd bf       	out	0x3d, r28	; 61
    2336:	de bf       	out	0x3e, r29	; 62
    2338:	81 e0       	ldi	r24, 0x01	; 1
    233a:	90 e0       	ldi	r25, 0x00	; 0
    233c:	0f 90       	pop	r0
    233e:	0f 90       	pop	r0
    2340:	df 91       	pop	r29
    2342:	cf 91       	pop	r28
/Users/askn/Documents/Zinnia-tools/Products/software/UPDI4AVR-USB/src/tpi.cpp:274
    bit_set(PGCONF, PGCONF_PROG_bp);
    2344:	1f 91       	pop	r17
    2346:	0f 91       	pop	r16
    2348:	ff 90       	pop	r15
/Users/askn/Documents/Zinnia-tools/Products/software/UPDI4AVR-USB/src/tpi.cpp:275
    return 1;
    234a:	ef 90       	pop	r14
    234c:	df 90       	pop	r13
/Users/askn/Documents/Zinnia-tools/Products/software/UPDI4AVR-USB/src/tpi.cpp:276
  }
    234e:	cf 90       	pop	r12
    2350:	bf 90       	pop	r11
    2352:	af 90       	pop	r10
    2354:	08 95       	ret
    2356:	29 81       	ldd	r18, Y+1	; 0x01
    2358:	3a 81       	ldd	r19, Y+2	; 0x02
    235a:	be cf       	rjmp	.-132    	; 0x22d8 <TPI::connect()+0x16a>

0000235c <UPDI::disconnect()>:
disconnect():
    235c:	cf 93       	push	r28
    235e:	df 93       	push	r29
    2360:	90 e0       	ldi	r25, 0x00	; 0
    2362:	80 e0       	ldi	r24, 0x00	; 0
    2364:	0e 94 6e 05 	call	0xadc	; 0xadc <USART::drain(unsigned int)>
sys_reset():
/Users/askn/Documents/Zinnia-tools/Products/software/UPDI4AVR-USB/src/tpi.cpp:270
    uint16_t _signature = 0;
    if (set_sstpr(0x3FC1) && get_sld()) {
      _CAPS16(_signature)->bytes[1] = RXDATA;
      if (get_sld()) _CAPS16(_signature)->bytes[0] = RXDATA;
    }
    _tpi_chunks = _signature == 0x920E ? 8  /* ATtiny40 */
    2368:	69 e0       	ldi	r22, 0x09	; 9
    236a:	70 e0       	ldi	r23, 0x00	; 0
    236c:	82 e7       	ldi	r24, 0x72	; 114
/Users/askn/Documents/Zinnia-tools/Products/software/UPDI4AVR-USB/src/updi.cpp:380
      }
    }
    return 0;
  }

  size_t disconnect (void) {
    236e:	90 e6       	ldi	r25, 0x60	; 96
    2370:	0e 94 e5 05 	call	0xbca	; 0xbca <UPDI::send_bytes(unsigned char const*, unsigned int)>
disconnect():
/Users/askn/Documents/Zinnia-tools/Products/software/UPDI4AVR-USB/src/updi.cpp:381
    USART::drain();
    2374:	1d ba       	out	0x1d, r1	; 29
    2376:	c8 2f       	mov	r28, r24
    2378:	d0 e0       	ldi	r29, 0x00	; 0
/Users/askn/Documents/Zinnia-tools/Products/software/UPDI4AVR-USB/src/updi.cpp:130
    const static uint8_t _reset[] = {
      0x55, 0xC8, 0x59, /* SYSRST */
      0x55, 0xC8, 0x00, /* SYSRUN */
      0x55, 0xC3, 0x04  /* UPDIDIS */
    };
    return send_bytes(_reset, _leave ? 9 : 6);
    237a:	1f 92       	push	r1
    237c:	8f 93       	push	r24
    237e:	86 e1       	ldi	r24, 0x16	; 22
    2380:	98 e0       	ldi	r25, 0x08	; 8
    2382:	9f 93       	push	r25
    2384:	8f 93       	push	r24
/Users/askn/Documents/Zinnia-tools/Products/software/UPDI4AVR-USB/src/updi.cpp:383
  }

  size_t disconnect (void) {
    USART::drain();
    bool _result = sys_reset(true);
    PGCONF = 0;
    2386:	8d e8       	ldi	r24, 0x8D	; 141
/Users/askn/Documents/Zinnia-tools/Products/software/UPDI4AVR-USB/src/updi.cpp:384
    D1PRINTF(" <RST:%d>\r\n", _result);
    2388:	90 e6       	ldi	r25, 0x60	; 96
    238a:	9f 93       	push	r25
    238c:	8f 93       	push	r24
    238e:	66 d8       	rcall	.-3892   	; 0x145c <Print::printf(PGM_t const*, ...) [clone .constprop.21]>
    2390:	01 9a       	sbi	0x00, 1	; 0
    2392:	00 00       	nop
    2394:	01 98       	cbi	0x00, 1	; 0
    2396:	0f 90       	pop	r0
    2398:	0f 90       	pop	r0
    239a:	0f 90       	pop	r0
    239c:	0f 90       	pop	r0
    239e:	0f 90       	pop	r0
    23a0:	0f 90       	pop	r0
    23a2:	ce 01       	movw	r24, r28
/Users/askn/Documents/Zinnia-tools/Products/software/UPDI4AVR-USB/src/updi.cpp:385
    openDrainWriteMacro(PIN_PG_TRST, LOW);
    23a4:	df 91       	pop	r29
/Users/askn/Documents/Zinnia-tools/Products/software/UPDI4AVR-USB/src/updi.cpp:386
    nop();
    23a6:	cf 91       	pop	r28
/Users/askn/Documents/Zinnia-tools/Products/software/UPDI4AVR-USB/src/updi.cpp:387
    openDrainWriteMacro(PIN_PG_TRST, HIGH);
    23a8:	08 95       	ret

000023aa <UPDI::connect()>:
connect():
/Users/askn/Documents/Zinnia-tools/Products/software/UPDI4AVR-USB/src/updi.cpp:388
    return _result;
    23aa:	cf 93       	push	r28
    23ac:	df 93       	push	r29
    23ae:	80 e8       	ldi	r24, 0x80	; 128
    23b0:	8d bb       	out	0x1d, r24	; 29
    23b2:	10 92 ee 62 	sts	0x62EE, r1	; 0x8062ee <_sib>
/Users/askn/Documents/Zinnia-tools/Products/software/UPDI4AVR-USB/src/updi.cpp:389
  }
    23b6:	8f ef       	ldi	r24, 0xFF	; 255
    23b8:	9f ef       	ldi	r25, 0xFF	; 255
    23ba:	dc 01       	movw	r26, r24
    23bc:	80 93 ea 62 	sts	0x62EA, r24	; 0x8062ea <_before_page>
/Users/askn/Documents/Zinnia-tools/Products/software/UPDI4AVR-USB/src/updi.cpp:326
   * For UPDI communication, first set the following:
   * - Keep forced reset for wakeup
   * - Ignore communication collisions
   * - Make guard time short enough
   */
  size_t connect (void) {
    23c0:	90 93 eb 62 	sts	0x62EB, r25	; 0x8062eb <_before_page+0x1>
/Users/askn/Documents/Zinnia-tools/Products/software/UPDI4AVR-USB/src/updi.cpp:335
      0x55, 0xC2, 0x05, /* GTVAL[4] */
    };
    const static uint8_t _sib256[] = {
      0x55, 0xE6        /* SIB[256] */
    };
    PGCONF = PGCONF_FAIL_bm;
    23c4:	a0 93 ec 62 	sts	0x62EC, r26	; 0x8062ec <_before_page+0x2>
/Users/askn/Documents/Zinnia-tools/Products/software/UPDI4AVR-USB/src/updi.cpp:336
    _sib[0] = 0;
    23c8:	b0 93 ed 62 	sts	0x62ED, r27	; 0x8062ed <_before_page+0x3>
setup():
/Users/askn/Documents/Zinnia-tools/Products/software/UPDI4AVR-USB/src/updi.cpp:337
    _before_page = -1L;
    23cc:	8f e9       	ldi	r24, 0x9F	; 159
    23ce:	95 e0       	ldi	r25, 0x05	; 5
    23d0:	80 93 0e 63 	sts	0x630E, r24	; 0x80630e <Command_Table>
    23d4:	90 93 0f 63 	sts	0x630F, r25	; 0x80630f <Command_Table+0x1>
    23d8:	8f ea       	ldi	r24, 0xAF	; 175
    23da:	99 e0       	ldi	r25, 0x09	; 9
    23dc:	80 93 10 63 	sts	0x6310, r24	; 0x806310 <Command_Table+0x2>
/Users/askn/Documents/Zinnia-tools/Products/software/UPDI4AVR-USB/src/nvmv1.cpp:68
    // else if (m_type == 0xD3)   /* MTYPE_SIB */ /* This is in its own memory space. */
    return 0;
  }

  bool setup (void) {
    Command_Table.prog_init    = &prog_init;
    23e0:	90 93 11 63 	sts	0x6311, r25	; 0x806311 <Command_Table+0x3>
    23e4:	82 eb       	ldi	r24, 0xB2	; 178
    23e6:	99 e0       	ldi	r25, 0x09	; 9
    23e8:	80 93 12 63 	sts	0x6312, r24	; 0x806312 <Command_Table+0x4>
/Users/askn/Documents/Zinnia-tools/Products/software/UPDI4AVR-USB/src/nvmv1.cpp:69
    Command_Table.read_memory  = &read_memory;
    23ec:	90 93 13 63 	sts	0x6313, r25	; 0x806313 <Command_Table+0x5>
    23f0:	8c ea       	ldi	r24, 0xAC	; 172
    23f2:	99 e0       	ldi	r25, 0x09	; 9
    23f4:	80 93 14 63 	sts	0x6314, r24	; 0x806314 <Command_Table+0x6>
/Users/askn/Documents/Zinnia-tools/Products/software/UPDI4AVR-USB/src/nvmv1.cpp:70
    Command_Table.erase_memory = &erase_memory;
    23f8:	90 93 15 63 	sts	0x6315, r25	; 0x806315 <Command_Table+0x7>
connect():
    23fc:	01 9a       	sbi	0x00, 1	; 0
    23fe:	00 00       	nop
    2400:	80 91 d5 60 	lds	r24, 0x60D5	; 0x8060d5 <packet+0x7>
/Users/askn/Documents/Zinnia-tools/Products/software/UPDI4AVR-USB/src/nvmv1.cpp:71
    Command_Table.write_memory = &write_memory;
    2404:	88 23       	and	r24, r24
    2406:	c1 f0       	breq	.+48     	; 0x2438 <UPDI::connect()+0x8e>
    2408:	8c e0       	ldi	r24, 0x0C	; 12
    240a:	98 e0       	ldi	r25, 0x08	; 8
    240c:	9f 93       	push	r25
    240e:	8f 93       	push	r24
/Users/askn/Documents/Zinnia-tools/Products/software/UPDI4AVR-USB/src/updi.cpp:339
    NVM::V1::setup();   /* default is dummy callback */
    openDrainWriteMacro(PIN_PG_TRST, LOW);
    2410:	8d e8       	ldi	r24, 0x8D	; 141
/Users/askn/Documents/Zinnia-tools/Products/software/UPDI4AVR-USB/src/updi.cpp:340
    nop();
    2412:	90 e6       	ldi	r25, 0x60	; 96
/Users/askn/Documents/Zinnia-tools/Products/software/UPDI4AVR-USB/src/updi.cpp:343

    /* External Reset */
    if (packet.out.bMType) {
    2414:	9f 93       	push	r25
    2416:	8f 93       	push	r24
    2418:	21 d8       	rcall	.-4030   	; 0x145c <Print::printf(PGM_t const*, ...) [clone .constprop.21]>
power_reset():
    241a:	0e 98       	cbi	0x01, 6	; 1
delay_millis():
/Users/askn/Documents/Zinnia-tools/Products/software/UPDI4AVR-USB/src/updi.cpp:344
      D1PRINTF("<PWRST>\r\n");
    241c:	2f ef       	ldi	r18, 0xFF	; 255
    241e:	34 e3       	ldi	r19, 0x34	; 52
    2420:	8c e0       	ldi	r24, 0x0C	; 12
    2422:	21 50       	subi	r18, 0x01	; 1
    2424:	30 40       	sbci	r19, 0x00	; 0
    2426:	80 40       	sbci	r24, 0x00	; 0
    2428:	e1 f7       	brne	.-8      	; 0x2422 <UPDI::connect()+0x78>
    242a:	00 c0       	rjmp	.+0      	; 0x242c <UPDI::connect()+0x82>
    242c:	00 00       	nop
power_reset():
    242e:	0e 9a       	sbi	0x01, 6	; 1
/Users/askn/Documents/Zinnia-tools/Products/software/UPDI4AVR-USB/src/updi.cpp:136
  }

  void power_reset (void) {
  #ifdef PIN_HV_POWER
    /* If the previous connect attempt failed, power off the device if possible. */
    digitalWriteMacro(PIN_HV_POWER, LOW);
    2430:	0f 90       	pop	r0
/Users/askn/Library/Arduino15/packages/MultiX-Zinnia/hardware/modernAVR/0.2.14/cores/modernAVR/api/delay_busywait.h:42
    2432:	0f 90       	pop	r0
    2434:	0f 90       	pop	r0
    2436:	0f 90       	pop	r0
connect():
    2438:	01 98       	cbi	0x00, 1	; 0
    243a:	90 e0       	ldi	r25, 0x00	; 0
    243c:	80 e0       	ldi	r24, 0x00	; 0
    243e:	0e 94 6e 05 	call	0xadc	; 0xadc <USART::drain(unsigned int)>
long_break():
    2442:	80 91 18 60 	lds	r24, 0x6018	; 0x806018 <_xclk>
/Users/askn/Documents/Zinnia-tools/Products/software/UPDI4AVR-USB/src/updi.cpp:138
    delay_millis(200);
    digitalWriteMacro(PIN_HV_POWER, HIGH);
    2446:	90 91 19 60 	lds	r25, 0x6019	; 0x806019 <_xclk+0x1>
    244a:	96 95       	lsr	r25
    244c:	87 95       	ror	r24
/Users/askn/Documents/Zinnia-tools/Products/software/UPDI4AVR-USB/src/updi.cpp:351
  #ifdef CONFIG_HVCTRL_ENABLE
      /* High-Voltage control */
  #endif
    }

    openDrainWriteMacro(PIN_PG_TRST, HIGH);
    244e:	96 95       	lsr	r25
/Users/askn/Documents/Zinnia-tools/Products/software/UPDI4AVR-USB/src/updi.cpp:352
    USART::drain();
    2450:	87 95       	ror	r24
    2452:	0e 94 79 05 	call	0xaf2	; 0xaf2 <USART::calk_baud_khz(unsigned int)>
    2456:	80 93 08 08 	sts	0x0808, r24	; 0x800808 <__TEXT_REGION_LENGTH__+0x7f0808>
/Users/askn/Documents/Zinnia-tools/Products/software/UPDI4AVR-USB/src/updi.cpp:66
    return false;
  }

  void long_break (void) {
    D2PRINTF("<BREAK>");
    USART0_BAUD = USART::calk_baud_khz(_xclk >> 2);
    245a:	90 93 09 08 	sts	0x0809, r25	; 0x800809 <__TEXT_REGION_LENGTH__+0x7f0809>
    245e:	80 e0       	ldi	r24, 0x00	; 0
    2460:	0e 94 d4 05 	call	0xba8	; 0xba8 <UPDI::send(unsigned char)>
    2464:	80 91 18 60 	lds	r24, 0x6018	; 0x806018 <_xclk>
    2468:	90 91 19 60 	lds	r25, 0x6019	; 0x806019 <_xclk+0x1>
    246c:	0e 94 79 05 	call	0xaf2	; 0xaf2 <USART::calk_baud_khz(unsigned int)>
    2470:	80 93 08 08 	sts	0x0808, r24	; 0x800808 <__TEXT_REGION_LENGTH__+0x7f0808>
/Users/askn/Documents/Zinnia-tools/Products/software/UPDI4AVR-USB/src/updi.cpp:67
    send(0x00);
    2474:	90 93 09 08 	sts	0x0809, r25	; 0x800809 <__TEXT_REGION_LENGTH__+0x7f0809>
connect():
    2478:	69 e0       	ldi	r22, 0x09	; 9
/Users/askn/Documents/Zinnia-tools/Products/software/UPDI4AVR-USB/src/updi.cpp:68
    USART0_BAUD = USART::calk_baud_khz(_xclk);
    247a:	70 e0       	ldi	r23, 0x00	; 0
    247c:	89 e6       	ldi	r24, 0x69	; 105
    247e:	90 e6       	ldi	r25, 0x60	; 96
    2480:	0e 94 e5 05 	call	0xbca	; 0xbca <UPDI::send_bytes(unsigned char const*, unsigned int)>
    2484:	81 11       	cpse	r24, r1
    2486:	05 c0       	rjmp	.+10     	; 0x2492 <UPDI::connect()+0xe8>
    2488:	90 e0       	ldi	r25, 0x00	; 0
    248a:	80 e0       	ldi	r24, 0x00	; 0
    248c:	df 91       	pop	r29
/Users/askn/Documents/Zinnia-tools/Products/software/UPDI4AVR-USB/src/updi.cpp:354
    }

    openDrainWriteMacro(PIN_PG_TRST, HIGH);
    USART::drain();
    long_break();
    if (send_bytes(_init, sizeof(_init))) {
    248e:	cf 91       	pop	r28
    2490:	08 95       	ret
    2492:	0e 94 f8 05 	call	0xbf0	; 0xbf0 <UPDI::sys_status()>
    2496:	fc 99       	sbic	0x1f, 4	; 31
    2498:	fc cf       	rjmp	.-8      	; 0x2492 <UPDI::connect()+0xe8>
    249a:	8f b3       	in	r24, 0x1f	; 31
    249c:	1f 92       	push	r1
/Users/askn/Documents/Zinnia-tools/Products/software/UPDI4AVR-USB/src/updi.cpp:377
          bit_set(PGCONF, PGCONF_UPDI_bp);
          return 5;
        }
      }
    }
    return 0;
    249e:	8f 93       	push	r24
    24a0:	80 e0       	ldi	r24, 0x00	; 0
/Users/askn/Documents/Zinnia-tools/Products/software/UPDI4AVR-USB/src/updi.cpp:378
  }
    24a2:	98 e0       	ldi	r25, 0x08	; 8
    24a4:	9f 93       	push	r25
    24a6:	8f 93       	push	r24
/Users/askn/Documents/Zinnia-tools/Products/software/UPDI4AVR-USB/src/updi.cpp:355

    openDrainWriteMacro(PIN_PG_TRST, HIGH);
    USART::drain();
    long_break();
    if (send_bytes(_init, sizeof(_init))) {
      do { sys_status(); } while(bit_is_set(RXDATA, 4));  /* wait clear INSLEEP */
    24a8:	cd e8       	ldi	r28, 0x8D	; 141
    24aa:	d0 e6       	ldi	r29, 0x60	; 96
    24ac:	df 93       	push	r29
    24ae:	cf 93       	push	r28
/Users/askn/Documents/Zinnia-tools/Products/software/UPDI4AVR-USB/src/updi.cpp:356
      D1PRINTF("<STAT:%02X>", RXDATA);
    24b0:	0e 94 2e 0a 	call	0x145c	; 0x145c <Print::printf(PGM_t const*, ...) [clone .constprop.21]>
    24b4:	62 e0       	ldi	r22, 0x02	; 2
    24b6:	70 e0       	ldi	r23, 0x00	; 0
    24b8:	87 e6       	ldi	r24, 0x67	; 103
    24ba:	90 e6       	ldi	r25, 0x60	; 96
    24bc:	0e 94 e5 05 	call	0xbca	; 0xbca <UPDI::send_bytes(unsigned char const*, unsigned int)>
    24c0:	0f 90       	pop	r0
    24c2:	0f 90       	pop	r0
    24c4:	0f 90       	pop	r0
    24c6:	0f 90       	pop	r0
    24c8:	0f 90       	pop	r0
/Users/askn/Documents/Zinnia-tools/Products/software/UPDI4AVR-USB/src/updi.cpp:357
      if (send_bytes(_sib256, sizeof(_sib256))
    24ca:	0f 90       	pop	r0
    24cc:	88 23       	and	r24, r24
    24ce:	e1 f2       	breq	.-72     	; 0x2488 <UPDI::connect()+0xde>
    24d0:	60 e2       	ldi	r22, 0x20	; 32
    24d2:	70 e0       	ldi	r23, 0x00	; 0
    24d4:	8e ee       	ldi	r24, 0xEE	; 238
/Users/askn/Documents/Zinnia-tools/Products/software/UPDI4AVR-USB/src/updi.cpp:358
       && recv_bytes(_sib, 32)) {
    24d6:	92 e6       	ldi	r25, 0x62	; 98
    24d8:	0e 94 ea 06 	call	0xdd4	; 0xdd4 <UPDI::recv_bytes(unsigned char*, unsigned int)>
    24dc:	88 23       	and	r24, r24
    24de:	a1 f2       	breq	.-88     	; 0x2488 <UPDI::connect()+0xde>
    24e0:	8e ee       	ldi	r24, 0xEE	; 238
    24e2:	92 e6       	ldi	r25, 0x62	; 98
    24e4:	9f 93       	push	r25
    24e6:	8f 93       	push	r24
    24e8:	86 ef       	ldi	r24, 0xF6	; 246
    24ea:	97 e0       	ldi	r25, 0x07	; 7
    24ec:	9f 93       	push	r25
    24ee:	8f 93       	push	r24
    24f0:	df 93       	push	r29
    24f2:	cf 93       	push	r28
    24f4:	0e 94 2e 0a 	call	0x145c	; 0x145c <Print::printf(PGM_t const*, ...) [clone .constprop.21]>
/Users/askn/Documents/Zinnia-tools/Products/software/UPDI4AVR-USB/src/updi.cpp:360
        size_t _result = 0;
        D1PRINTF(" SIB=%s\r\n", _sib);
    24f8:	80 91 f8 62 	lds	r24, 0x62F8	; 0x8062f8 <_sib+0xa>
    24fc:	1f 92       	push	r1
    24fe:	8f 93       	push	r24
    2500:	88 ee       	ldi	r24, 0xE8	; 232
    2502:	97 e0       	ldi	r25, 0x07	; 7
    2504:	9f 93       	push	r25
    2506:	8f 93       	push	r24
    2508:	df 93       	push	r29
    250a:	cf 93       	push	r28
    250c:	0e 94 2e 0a 	call	0x145c	; 0x145c <Print::printf(PGM_t const*, ...) [clone .constprop.21]>
/Users/askn/Documents/Zinnia-tools/Products/software/UPDI4AVR-USB/src/updi.cpp:361
        D1PRINTF(" <NVM:%02X>\r\n", _sib[10]);
    2510:	80 91 f8 62 	lds	r24, 0x62F8	; 0x8062f8 <_sib+0xa>
    2514:	2d b7       	in	r18, 0x3d	; 61
    2516:	3e b7       	in	r19, 0x3e	; 62
    2518:	24 5f       	subi	r18, 0xF4	; 244
    251a:	3f 4f       	sbci	r19, 0xFF	; 255
    251c:	2d bf       	out	0x3d, r18	; 61
    251e:	3e bf       	out	0x3e, r19	; 62
    2520:	85 33       	cpi	r24, 0x35	; 53
    2522:	59 f5       	brne	.+86     	; 0x257a <UPDI::connect()+0x1d0>
setup():
    2524:	82 ef       	ldi	r24, 0xF2	; 242
/Users/askn/Documents/Zinnia-tools/Products/software/UPDI4AVR-USB/src/updi.cpp:363
        /* Depending on the SIB, different low-level methods are executed. */
        if      (_sib[10] == '5') _result = NVM::V5::setup();
    2526:	98 e0       	ldi	r25, 0x08	; 8
    2528:	80 93 0e 63 	sts	0x630E, r24	; 0x80630e <Command_Table>
    252c:	90 93 0f 63 	sts	0x630F, r25	; 0x80630f <Command_Table+0x1>
    2530:	8a e8       	ldi	r24, 0x8A	; 138
    2532:	97 e0       	ldi	r25, 0x07	; 7
    2534:	80 93 10 63 	sts	0x6310, r24	; 0x806310 <Command_Table+0x2>
    2538:	90 93 11 63 	sts	0x6311, r25	; 0x806311 <Command_Table+0x3>
/Users/askn/Documents/Zinnia-tools/Products/software/UPDI4AVR-USB/src/nvmv5.cpp:165
    }
  }

  bool setup (void) {
    Command_Table.prog_init    = &prog_init;
    253c:	85 eb       	ldi	r24, 0xB5	; 181
    253e:	90 e1       	ldi	r25, 0x10	; 16
    2540:	80 93 12 63 	sts	0x6312, r24	; 0x806312 <Command_Table+0x4>
    2544:	90 93 13 63 	sts	0x6313, r25	; 0x806313 <Command_Table+0x5>
/Users/askn/Documents/Zinnia-tools/Products/software/UPDI4AVR-USB/src/nvmv5.cpp:166
    Command_Table.read_memory  = &read_memory;
    2548:	8c e0       	ldi	r24, 0x0C	; 12
    254a:	9c e0       	ldi	r25, 0x0C	; 12
    254c:	80 93 14 63 	sts	0x6314, r24	; 0x806314 <Command_Table+0x6>
    2550:	90 93 15 63 	sts	0x6315, r25	; 0x806315 <Command_Table+0x7>
connect():
/Users/askn/Documents/Zinnia-tools/Products/software/UPDI4AVR-USB/src/nvmv5.cpp:167
    Command_Table.erase_memory = &erase_memory;
    2554:	80 91 ee 62 	lds	r24, 0x62EE	; 0x8062ee <_sib>
    2558:	ee ee       	ldi	r30, 0xEE	; 238
    255a:	f2 e6       	ldi	r31, 0x62	; 98
    255c:	80 32       	cpi	r24, 0x20	; 32
/Users/askn/Documents/Zinnia-tools/Products/software/UPDI4AVR-USB/src/nvmv5.cpp:168
    Command_Table.write_memory = &write_memory;
    255e:	11 f4       	brne	.+4      	; 0x2564 <UPDI::connect()+0x1ba>
    2560:	e2 ef       	ldi	r30, 0xF2	; 242
/Users/askn/Documents/Zinnia-tools/Products/software/UPDI4AVR-USB/src/nvmv0.cpp:174

  bool setup (void) {
    Command_Table.prog_init    = &prog_init;
    Command_Table.read_memory  = &read_memory;
    Command_Table.erase_memory = &erase_memory;
    Command_Table.write_memory = &write_memory;
    2562:	f2 e6       	ldi	r31, 0x62	; 98
    2564:	84 e0       	ldi	r24, 0x04	; 4
    2566:	a5 ed       	ldi	r26, 0xD5	; 213
    2568:	b0 e6       	ldi	r27, 0x60	; 96
/Users/askn/Documents/Zinnia-tools/Products/software/UPDI4AVR-USB/src/updi.cpp:371
        else if (_sib[10] == '2') _result = NVM::V2::setup();
        else if (_sib[10] == '0') _result = NVM::V0::setup();
        if (_result) {
          /* If the SIB is obtained, the first 4-characters are returned.       */
          /* If the 1st character is blank, the next 4-characters are returned. */
          memcpy(&packet.in.data[0], _sib[0] == ' ' ? &_sib[4] : &_sib[0], 4);
    256a:	01 90       	ld	r0, Z+
    256c:	0d 92       	st	X+, r0
    256e:	8a 95       	dec	r24
    2570:	e1 f7       	brne	.-8      	; 0x256a <UPDI::connect()+0x1c0>
    2572:	e8 9a       	sbi	0x1d, 0	; 29
    2574:	85 e0       	ldi	r24, 0x05	; 5
    2576:	90 e0       	ldi	r25, 0x00	; 0
    2578:	89 cf       	rjmp	.-238    	; 0x248c <UPDI::connect()+0xe2>
    257a:	84 33       	cpi	r24, 0x34	; 52
    257c:	a9 f4       	brne	.+42     	; 0x25a8 <UPDI::connect()+0x1fe>
setup():
    257e:	84 ee       	ldi	r24, 0xE4	; 228
    2580:	98 e0       	ldi	r25, 0x08	; 8
    2582:	80 93 0e 63 	sts	0x630E, r24	; 0x80630e <Command_Table>
    2586:	90 93 0f 63 	sts	0x630F, r25	; 0x80630f <Command_Table+0x1>
/Users/askn/Documents/Zinnia-tools/Products/software/UPDI4AVR-USB/src/updi.cpp:373
          bit_set(PGCONF, PGCONF_UPDI_bp);
          return 5;
    258a:	8b e5       	ldi	r24, 0x5B	; 91
    258c:	97 e0       	ldi	r25, 0x07	; 7
    258e:	80 93 10 63 	sts	0x6310, r24	; 0x806310 <Command_Table+0x2>
/Users/askn/Documents/Zinnia-tools/Products/software/UPDI4AVR-USB/src/updi.cpp:364
        size_t _result = 0;
        D1PRINTF(" SIB=%s\r\n", _sib);
        D1PRINTF(" <NVM:%02X>\r\n", _sib[10]);
        /* Depending on the SIB, different low-level methods are executed. */
        if      (_sib[10] == '5') _result = NVM::V5::setup();
        else if (_sib[10] == '4') _result = NVM::V4::setup();
    2592:	90 93 11 63 	sts	0x6311, r25	; 0x806311 <Command_Table+0x3>
/Users/askn/Documents/Zinnia-tools/Products/software/UPDI4AVR-USB/src/nvmv4.cpp:187
      return UPDI::send_bytes_block(_dwAddr, _wLength);
    }
  }

  bool setup (void) {
    Command_Table.prog_init    = &prog_init;
    2596:	8f e7       	ldi	r24, 0x7F	; 127
    2598:	90 e1       	ldi	r25, 0x10	; 16
    259a:	80 93 12 63 	sts	0x6312, r24	; 0x806312 <Command_Table+0x4>
    259e:	90 93 13 63 	sts	0x6313, r25	; 0x806313 <Command_Table+0x5>
/Users/askn/Documents/Zinnia-tools/Products/software/UPDI4AVR-USB/src/nvmv4.cpp:188
    Command_Table.read_memory  = &read_memory;
    25a2:	8c e5       	ldi	r24, 0x5C	; 92
    25a4:	9c e0       	ldi	r25, 0x0C	; 12
    25a6:	d2 cf       	rjmp	.-92     	; 0x254c <UPDI::connect()+0x1a2>
connect():
    25a8:	83 33       	cpi	r24, 0x33	; 51
    25aa:	a9 f4       	brne	.+42     	; 0x25d6 <UPDI::connect()+0x22c>
setup():
/Users/askn/Documents/Zinnia-tools/Products/software/UPDI4AVR-USB/src/nvmv4.cpp:189
    Command_Table.erase_memory = &erase_memory;
    25ac:	8a ee       	ldi	r24, 0xEA	; 234
    25ae:	98 e0       	ldi	r25, 0x08	; 8
    25b0:	80 93 0e 63 	sts	0x630E, r24	; 0x80630e <Command_Table>
    25b4:	90 93 0f 63 	sts	0x630F, r25	; 0x80630f <Command_Table+0x1>
/Users/askn/Documents/Zinnia-tools/Products/software/UPDI4AVR-USB/src/nvmv4.cpp:190
    Command_Table.write_memory = &write_memory;
    25b8:	89 eb       	ldi	r24, 0xB9	; 185
    25ba:	97 e0       	ldi	r25, 0x07	; 7
    25bc:	80 93 10 63 	sts	0x6310, r24	; 0x806310 <Command_Table+0x2>
/Users/askn/Documents/Zinnia-tools/Products/software/UPDI4AVR-USB/src/updi.cpp:365
        else if (_sib[10] == '3') _result = NVM::V3::setup();
    25c0:	90 93 11 63 	sts	0x6311, r25	; 0x806311 <Command_Table+0x3>
/Users/askn/Documents/Zinnia-tools/Products/software/UPDI4AVR-USB/src/nvmv3.cpp:162
    }
  }

  bool setup (void) {
    Command_Table.prog_init    = &prog_init;
    25c4:	86 eb       	ldi	r24, 0xB6	; 182
    25c6:	90 e1       	ldi	r25, 0x10	; 16
    25c8:	80 93 12 63 	sts	0x6312, r24	; 0x806312 <Command_Table+0x4>
    25cc:	90 93 13 63 	sts	0x6313, r25	; 0x806313 <Command_Table+0x5>
/Users/askn/Documents/Zinnia-tools/Products/software/UPDI4AVR-USB/src/nvmv3.cpp:163
    Command_Table.read_memory  = &read_memory;
    25d0:	85 ed       	ldi	r24, 0xD5	; 213
    25d2:	9c e0       	ldi	r25, 0x0C	; 12
    25d4:	bb cf       	rjmp	.-138    	; 0x254c <UPDI::connect()+0x1a2>
connect():
    25d6:	82 33       	cpi	r24, 0x32	; 50
    25d8:	a9 f4       	brne	.+42     	; 0x2604 <UPDI::connect()+0x25a>
setup():
/Users/askn/Documents/Zinnia-tools/Products/software/UPDI4AVR-USB/src/nvmv3.cpp:164
    Command_Table.erase_memory = &erase_memory;
    25da:	88 e8       	ldi	r24, 0x88	; 136
    25dc:	99 e0       	ldi	r25, 0x09	; 9
    25de:	80 93 0e 63 	sts	0x630E, r24	; 0x80630e <Command_Table>
    25e2:	90 93 0f 63 	sts	0x630F, r25	; 0x80630f <Command_Table+0x1>
/Users/askn/Documents/Zinnia-tools/Products/software/UPDI4AVR-USB/src/nvmv3.cpp:165
    Command_Table.write_memory = &write_memory;
    25e6:	8b e8       	ldi	r24, 0x8B	; 139
    25e8:	97 e0       	ldi	r25, 0x07	; 7
    25ea:	80 93 10 63 	sts	0x6310, r24	; 0x806310 <Command_Table+0x2>
/Users/askn/Documents/Zinnia-tools/Products/software/UPDI4AVR-USB/src/updi.cpp:366
        else if (_sib[10] == '2') _result = NVM::V2::setup();
    25ee:	90 93 11 63 	sts	0x6311, r25	; 0x806311 <Command_Table+0x3>
/Users/askn/Documents/Zinnia-tools/Products/software/UPDI4AVR-USB/src/nvmv2.cpp:184
      return UPDI::send_bytes_block(_dwAddr, _wLength);
    }
  }

  bool setup (void) {
    Command_Table.prog_init    = &prog_init;
    25f2:	85 e9       	ldi	r24, 0x95	; 149
    25f4:	90 e1       	ldi	r25, 0x10	; 16
    25f6:	80 93 12 63 	sts	0x6312, r24	; 0x806312 <Command_Table+0x4>
    25fa:	90 93 13 63 	sts	0x6313, r25	; 0x806313 <Command_Table+0x5>
/Users/askn/Documents/Zinnia-tools/Products/software/UPDI4AVR-USB/src/nvmv2.cpp:185
    Command_Table.read_memory  = &read_memory;
    25fe:	85 e2       	ldi	r24, 0x25	; 37
    2600:	9d e0       	ldi	r25, 0x0D	; 13
    2602:	a4 cf       	rjmp	.-184    	; 0x254c <UPDI::connect()+0x1a2>
connect():
    2604:	80 33       	cpi	r24, 0x30	; 48
    2606:	09 f0       	breq	.+2      	; 0x260a <UPDI::connect()+0x260>
/Users/askn/Documents/Zinnia-tools/Products/software/UPDI4AVR-USB/src/nvmv2.cpp:186
    Command_Table.erase_memory = &erase_memory;
    2608:	3f cf       	rjmp	.-386    	; 0x2488 <UPDI::connect()+0xde>
setup():
    260a:	87 e6       	ldi	r24, 0x67	; 103
    260c:	99 e0       	ldi	r25, 0x09	; 9
    260e:	80 93 0e 63 	sts	0x630E, r24	; 0x80630e <Command_Table>
    2612:	90 93 0f 63 	sts	0x630F, r25	; 0x80630f <Command_Table+0x1>
/Users/askn/Documents/Zinnia-tools/Products/software/UPDI4AVR-USB/src/nvmv2.cpp:187
    Command_Table.write_memory = &write_memory;
    2616:	8a eb       	ldi	r24, 0xBA	; 186
    2618:	97 e0       	ldi	r25, 0x07	; 7
/Users/askn/Documents/Zinnia-tools/Products/software/UPDI4AVR-USB/src/updi.cpp:367
        else if (_sib[10] == '0') _result = NVM::V0::setup();
    261a:	80 93 10 63 	sts	0x6310, r24	; 0x806310 <Command_Table+0x2>
    261e:	90 93 11 63 	sts	0x6311, r25	; 0x806311 <Command_Table+0x3>
/Users/askn/Documents/Zinnia-tools/Products/software/UPDI4AVR-USB/src/nvmv0.cpp:171
      return UPDI::send_bytes_block(_wAddr, _wLength);
    }
  }

  bool setup (void) {
    Command_Table.prog_init    = &prog_init;
    2622:	8b ea       	ldi	r24, 0xAB	; 171
    2624:	90 e1       	ldi	r25, 0x10	; 16
    2626:	80 93 12 63 	sts	0x6312, r24	; 0x806312 <Command_Table+0x4>
    262a:	90 93 13 63 	sts	0x6313, r25	; 0x806313 <Command_Table+0x5>
/Users/askn/Documents/Zinnia-tools/Products/software/UPDI4AVR-USB/src/nvmv0.cpp:172
    Command_Table.read_memory  = &read_memory;
    262e:	8e e9       	ldi	r24, 0x9E	; 158
    2630:	9d e0       	ldi	r25, 0x0D	; 13
    2632:	8c cf       	rjmp	.-232    	; 0x254c <UPDI::connect()+0x1a2>

00002634 <TPI::write_memory()>:
write_memory():
    2634:	6f 92       	push	r6
    2636:	7f 92       	push	r7
/Users/askn/Documents/Zinnia-tools/Products/software/UPDI4AVR-USB/src/nvmv0.cpp:173
    Command_Table.erase_memory = &erase_memory;
    2638:	8f 92       	push	r8
    263a:	9f 92       	push	r9
    263c:	af 92       	push	r10
    263e:	bf 92       	push	r11
    2640:	cf 92       	push	r12
    2642:	df 92       	push	r13
/Users/askn/Documents/Zinnia-tools/Products/software/UPDI4AVR-USB/src/nvmv0.cpp:174
    Command_Table.write_memory = &write_memory;
    2644:	ef 92       	push	r14
    2646:	ff 92       	push	r15
    2648:	0f 93       	push	r16
/Users/askn/Documents/Zinnia-tools/Products/software/UPDI4AVR-USB/src/tpi.cpp:152
      ++_cnt;
    }
    return _wLength + 1;
  }

  size_t write_memory (void) {
    264a:	1f 93       	push	r17
    264c:	cf 93       	push	r28
    264e:	df 93       	push	r29
    2650:	20 91 d4 60 	lds	r18, 0x60D4	; 0x8060d4 <packet+0x6>
bswap16():
    2654:	c0 90 d8 60 	lds	r12, 0x60D8	; 0x8060d8 <packet+0xa>
    2658:	d0 90 d9 60 	lds	r13, 0x60D9	; 0x8060d9 <packet+0xb>
    265c:	dc 24       	eor	r13, r12
    265e:	cd 24       	eor	r12, r13
    2660:	dc 24       	eor	r13, r12
    2662:	00 91 da 60 	lds	r16, 0x60DA	; 0x8060da <packet+0xc>
/Users/askn/Documents/Zinnia-tools/Products/software/UPDI4AVR-USB/src/tpi.cpp:153
    uint8_t   m_type = packet.out.tpi.read.bMType;
    2666:	10 91 db 60 	lds	r17, 0x60DB	; 0x8060db <packet+0xd>
/Users/askn/Library/Arduino15/packages/MultiX-Zinnia/hardware/modernAVR/0.2.14/cores/modernAVR/api/cpp/btools.cpp:45
//
// Byte convert
//

uint16_t bswap16 (uint16_t _word) {
  return __builtin_bswap16(_word);
    266a:	10 27       	eor	r17, r16
    266c:	01 27       	eor	r16, r17
    266e:	10 27       	eor	r17, r16
write_memory():
    2670:	60 90 9b 60 	lds	r6, 0x609B	; 0x80609b <_tpi_chunks>
    2674:	86 2c       	mov	r8, r6
    2676:	91 2c       	mov	r9, r1
    2678:	c4 01       	movw	r24, r8
    267a:	01 97       	sbiw	r24, 0x01	; 1
    267c:	cc ed       	ldi	r28, 0xDC	; 220
    267e:	d0 e6       	ldi	r29, 0x60	; 96
    2680:	3f ef       	ldi	r19, 0xFF	; 255
    2682:	ac 01       	movw	r20, r24
    2684:	4c 21       	and	r20, r12
/Users/askn/Documents/Zinnia-tools/Products/software/UPDI4AVR-USB/src/tpi.cpp:161
    uint8_t *_p = &packet.out.tpi.write.memData[0];
    bool _result = true;

    /* To accommodate older host programs, */
    /* the address must be aligned to the top of the page. */
    while (_dwAddr & (_tpi_chunks - 1)) {
    2686:	5d 21       	and	r21, r13
    2688:	45 2b       	or	r20, r21
    268a:	71 f4       	brne	.+28     	; 0x26a8 <TPI::write_memory()+0x74>
    268c:	3f ef       	ldi	r19, 0xFF	; 255
    268e:	7c 01       	movw	r14, r24
    2690:	e0 22       	and	r14, r16
/Users/askn/Documents/Zinnia-tools/Products/software/UPDI4AVR-USB/src/tpi.cpp:156

  size_t write_memory (void) {
    uint8_t   m_type = packet.out.tpi.read.bMType;
    uint16_t _dwAddr = bswap16(_CAPS32(packet.out.tpi.write.dwAddr)->words[1]);
    size_t  _wLength = bswap16(packet.out.tpi.write.wLength);
    uint8_t *_p = &packet.out.tpi.write.memData[0];
    2692:	f1 22       	and	r15, r17
    2694:	e1 14       	cp	r14, r1
/Users/askn/Documents/Zinnia-tools/Products/software/UPDI4AVR-USB/src/tpi.cpp:164
    /* To accommodate older host programs, */
    /* the address must be aligned to the top of the page. */
    while (_dwAddr & (_tpi_chunks - 1)) {
      _dwAddr--;
      _wLength++;
      *--_p = 0xFF;   /* NAND masked dummy bytes */
    2696:	f1 04       	cpc	r15, r1
/Users/askn/Documents/Zinnia-tools/Products/software/UPDI4AVR-USB/src/tpi.cpp:161
    uint8_t *_p = &packet.out.tpi.write.memData[0];
    bool _result = true;

    /* To accommodate older host programs, */
    /* the address must be aligned to the top of the page. */
    while (_dwAddr & (_tpi_chunks - 1)) {
    2698:	71 f0       	breq	.+28     	; 0x26b6 <TPI::write_memory()+0x82>
    269a:	f8 01       	movw	r30, r16
    269c:	ec 0d       	add	r30, r12
    269e:	fd 1d       	adc	r31, r13
    26a0:	30 83       	st	Z, r19
/Users/askn/Documents/Zinnia-tools/Products/software/UPDI4AVR-USB/src/tpi.cpp:167
      _dwAddr--;
      _wLength++;
      *--_p = 0xFF;   /* NAND masked dummy bytes */
    }
    while (_wLength & (_tpi_chunks - 1)) {
      *((uint8_t*)(_dwAddr + _wLength++)) = 0xFF;
    26a2:	0f 5f       	subi	r16, 0xFF	; 255
/Users/askn/Documents/Zinnia-tools/Products/software/UPDI4AVR-USB/src/tpi.cpp:166
    while (_dwAddr & (_tpi_chunks - 1)) {
      _dwAddr--;
      _wLength++;
      *--_p = 0xFF;   /* NAND masked dummy bytes */
    }
    while (_wLength & (_tpi_chunks - 1)) {
    26a4:	1f 4f       	sbci	r17, 0xFF	; 255
    26a6:	f3 cf       	rjmp	.-26     	; 0x268e <TPI::write_memory()+0x5a>
    26a8:	41 e0       	ldi	r20, 0x01	; 1
    26aa:	c4 1a       	sub	r12, r20
    26ac:	d1 08       	sbc	r13, r1
    26ae:	0f 5f       	subi	r16, 0xFF	; 255
/Users/askn/Documents/Zinnia-tools/Products/software/UPDI4AVR-USB/src/tpi.cpp:167
      *((uint8_t*)(_dwAddr + _wLength++)) = 0xFF;
    26b0:	1f 4f       	sbci	r17, 0xFF	; 255
    26b2:	3a 93       	st	-Y, r19
    26b4:	e6 cf       	rjmp	.-52     	; 0x2682 <TPI::write_memory()+0x4e>
    26b6:	21 30       	cpi	r18, 0x01	; 1
    26b8:	49 f5       	brne	.+82     	; 0x270c <TPI::write_memory()+0xd8>
    26ba:	0e 94 12 08 	call	0x1024	; 0x1024 <TPI::nvm_wait()>
/Users/askn/Documents/Zinnia-tools/Products/software/UPDI4AVR-USB/src/tpi.cpp:162
    bool _result = true;

    /* To accommodate older host programs, */
    /* the address must be aligned to the top of the page. */
    while (_dwAddr & (_tpi_chunks - 1)) {
      _dwAddr--;
    26be:	78 2e       	mov	r7, r24
    26c0:	88 23       	and	r24, r24
    26c2:	21 f0       	breq	.+8      	; 0x26cc <TPI::write_memory()+0x98>
/Users/askn/Documents/Zinnia-tools/Products/software/UPDI4AVR-USB/src/tpi.cpp:163
      _wLength++;
    26c4:	c6 01       	movw	r24, r12
    26c6:	0e 94 30 08 	call	0x1060	; 0x1060 <TPI::set_sstpr(unsigned int)>
/Users/askn/Documents/Zinnia-tools/Products/software/UPDI4AVR-USB/src/tpi.cpp:164
      *--_p = 0xFF;   /* NAND masked dummy bytes */
    26ca:	78 2e       	mov	r7, r24
/Users/askn/Documents/Zinnia-tools/Products/software/UPDI4AVR-USB/src/tpi.cpp:174
    D2PRINTF(" FIXED_WRITE=%08X:%04X\r\n", _dwAddr, _wLength);

    /* For the flash code area, the page erase can be */
    /* omitted if the chip has already been erased.   */
    /* 0x01: XPRG_MEM_TYPE_APPL */
    if (m_type != 0x01) {
    26cc:	b1 2c       	mov	r11, r1
    26ce:	a1 2c       	mov	r10, r1
/Users/askn/Documents/Zinnia-tools/Products/software/UPDI4AVR-USB/src/tpi.cpp:185
        && set_sst(0xFF)
        && nvm_wait()
        && nvm_ctrl(0x00);
      if (!_result) return 0;
    }
    _result &= nvm_wait() && set_sstpr(_dwAddr);
    26d0:	a0 16       	cp	r10, r16
    26d2:	b1 06       	cpc	r11, r17
    26d4:	08 f0       	brcs	.+2      	; 0x26d8 <TPI::write_memory()+0xa4>
    26d6:	8a c0       	rjmp	.+276    	; 0x27ec <TPI::write_memory()+0x1b8>
    26d8:	8d e1       	ldi	r24, 0x1D	; 29
    26da:	0e 94 06 08 	call	0x100c	; 0x100c <TPI::nvm_ctrl(unsigned char)>
    26de:	88 23       	and	r24, r24
    26e0:	31 f0       	breq	.+12     	; 0x26ee <TPI::write_memory()+0xba>
/Users/askn/Documents/Zinnia-tools/Products/software/UPDI4AVR-USB/src/tpi.cpp:156

  size_t write_memory (void) {
    uint8_t   m_type = packet.out.tpi.read.bMType;
    uint16_t _dwAddr = bswap16(_CAPS32(packet.out.tpi.write.dwAddr)->words[1]);
    size_t  _wLength = bswap16(packet.out.tpi.write.wLength);
    uint8_t *_p = &packet.out.tpi.write.memData[0];
    26e2:	88 81       	ld	r24, Y
    26e4:	0e 94 1e 08 	call	0x103c	; 0x103c <TPI::set_sst(unsigned char)>
/Users/askn/Documents/Zinnia-tools/Products/software/UPDI4AVR-USB/src/tpi.cpp:187
        && nvm_ctrl(0x00);
      if (!_result) return 0;
    }
    _result &= nvm_wait() && set_sstpr(_dwAddr);
    /* WRITE_PAGE */
    for (size_t _i = 0; _i < _wLength; _i += _tpi_chunks) {
    26e8:	81 11       	cpse	r24, r1
    26ea:	3d c0       	rjmp	.+122    	; 0x2766 <TPI::write_memory()+0x132>
    26ec:	21 96       	adiw	r28, 0x01	; 1
/Users/askn/Documents/Zinnia-tools/Products/software/UPDI4AVR-USB/src/tpi.cpp:189
      D2PRINTF(" CODE_WRITE=%08X:%04X\r\n", _dwAddr, _tpi_chunks);
      _result &= nvm_ctrl(0x1D)
    26ee:	78 22       	and	r7, r24
    26f0:	94 e0       	ldi	r25, 0x04	; 4
    26f2:	69 12       	cpse	r6, r25
/Users/askn/Documents/Zinnia-tools/Products/software/UPDI4AVR-USB/src/tpi.cpp:191
              && set_sst(*_p++)
              && set_sst(*_p++);
    26f4:	51 c0       	rjmp	.+162    	; 0x2798 <TPI::write_memory()+0x164>
    26f6:	8c e0       	ldi	r24, 0x0C	; 12
/Users/askn/Documents/Zinnia-tools/Products/software/UPDI4AVR-USB/src/tpi.cpp:190
    _result &= nvm_wait() && set_sstpr(_dwAddr);
    /* WRITE_PAGE */
    for (size_t _i = 0; _i < _wLength; _i += _tpi_chunks) {
      D2PRINTF(" CODE_WRITE=%08X:%04X\r\n", _dwAddr, _tpi_chunks);
      _result &= nvm_ctrl(0x1D)
              && set_sst(*_p++)
    26f8:	90 e0       	ldi	r25, 0x00	; 0
    26fa:	0e 94 48 08 	call	0x1090	; 0x1090 <TPI::idle_clock(unsigned int)>
    26fe:	88 81       	ld	r24, Y
    2700:	0e 94 1e 08 	call	0x103c	; 0x103c <TPI::set_sst(unsigned char)>
    2704:	81 11       	cpse	r24, r1
/Users/askn/Documents/Zinnia-tools/Products/software/UPDI4AVR-USB/src/tpi.cpp:192
              && set_sst(*_p++);
      if (_tpi_chunks == 4) {
    2706:	38 c0       	rjmp	.+112    	; 0x2778 <TPI::write_memory()+0x144>
    2708:	21 96       	adiw	r28, 0x01	; 1
    270a:	3e c0       	rjmp	.+124    	; 0x2788 <TPI::write_memory()+0x154>
/Users/askn/Documents/Zinnia-tools/Products/software/UPDI4AVR-USB/src/tpi.cpp:193
        idle_clock(12);
    270c:	0e 94 12 08 	call	0x1024	; 0x1024 <TPI::nvm_wait()>
    2710:	88 23       	and	r24, r24
    2712:	c9 f0       	breq	.+50     	; 0x2746 <TPI::write_memory()+0x112>
/Users/askn/Documents/Zinnia-tools/Products/software/UPDI4AVR-USB/src/tpi.cpp:194
        _result &= set_sst(*_p++) && set_sst(*_p++);
    2714:	c6 01       	movw	r24, r12
    2716:	81 60       	ori	r24, 0x01	; 1
    2718:	0e 94 30 08 	call	0x1060	; 0x1060 <TPI::set_sstpr(unsigned int)>
    271c:	88 23       	and	r24, r24
/Users/askn/Documents/Zinnia-tools/Products/software/UPDI4AVR-USB/src/tpi.cpp:200
      }
      if (_tpi_chunks == 8) {
        idle_clock(12);
        _result &= set_sst(*_p++) && set_sst(*_p++);
        idle_clock(12);
        _result &= set_sst(*_p++) && set_sst(*_p++);
    271e:	99 f0       	breq	.+38     	; 0x2746 <TPI::write_memory()+0x112>
    2720:	84 e1       	ldi	r24, 0x14	; 20
/Users/askn/Documents/Zinnia-tools/Products/software/UPDI4AVR-USB/src/tpi.cpp:177
    /* omitted if the chip has already been erased.   */
    /* 0x01: XPRG_MEM_TYPE_APPL */
    if (m_type != 0x01) {
      /* SECTION_ERASE */
      D2PRINTF(" SECTION_ERASE=%04X>%04X\r\n", _dwAddr | 1, _CAPS16(_before_page)->word);
      _result &= nvm_wait()
    2722:	0e 94 06 08 	call	0x100c	; 0x100c <TPI::nvm_ctrl(unsigned char)>
/Users/askn/Documents/Zinnia-tools/Products/software/UPDI4AVR-USB/src/tpi.cpp:182
        && set_sstpr(_dwAddr | 1)
        && nvm_ctrl(0x14)
        && set_sst(0xFF)
        && nvm_wait()
        && nvm_ctrl(0x00);
    2726:	88 23       	and	r24, r24
    2728:	71 f0       	breq	.+28     	; 0x2746 <TPI::write_memory()+0x112>
/Users/askn/Documents/Zinnia-tools/Products/software/UPDI4AVR-USB/src/tpi.cpp:178
    /* 0x01: XPRG_MEM_TYPE_APPL */
    if (m_type != 0x01) {
      /* SECTION_ERASE */
      D2PRINTF(" SECTION_ERASE=%04X>%04X\r\n", _dwAddr | 1, _CAPS16(_before_page)->word);
      _result &= nvm_wait()
        && set_sstpr(_dwAddr | 1)
    272a:	8f ef       	ldi	r24, 0xFF	; 255
    272c:	0e 94 1e 08 	call	0x103c	; 0x103c <TPI::set_sst(unsigned char)>
    2730:	88 23       	and	r24, r24
    2732:	49 f0       	breq	.+18     	; 0x2746 <TPI::write_memory()+0x112>
    2734:	0e 94 12 08 	call	0x1024	; 0x1024 <TPI::nvm_wait()>
/Users/askn/Documents/Zinnia-tools/Products/software/UPDI4AVR-USB/src/tpi.cpp:179
        && nvm_ctrl(0x14)
    2738:	88 23       	and	r24, r24
    273a:	29 f0       	breq	.+10     	; 0x2746 <TPI::write_memory()+0x112>
    273c:	80 e0       	ldi	r24, 0x00	; 0
    273e:	0e 94 06 08 	call	0x100c	; 0x100c <TPI::nvm_ctrl(unsigned char)>
/Users/askn/Documents/Zinnia-tools/Products/software/UPDI4AVR-USB/src/tpi.cpp:180
        && set_sst(0xFF)
    2742:	81 11       	cpse	r24, r1
    2744:	ba cf       	rjmp	.-140    	; 0x26ba <TPI::write_memory()+0x86>
    2746:	c7 01       	movw	r24, r14
    2748:	df 91       	pop	r29
/Users/askn/Documents/Zinnia-tools/Products/software/UPDI4AVR-USB/src/tpi.cpp:181
        && nvm_wait()
    274a:	cf 91       	pop	r28
    274c:	1f 91       	pop	r17
    274e:	0f 91       	pop	r16
    2750:	ff 90       	pop	r15
/Users/askn/Documents/Zinnia-tools/Products/software/UPDI4AVR-USB/src/tpi.cpp:182
        && nvm_ctrl(0x00);
    2752:	ef 90       	pop	r14
    2754:	df 90       	pop	r13
    2756:	cf 90       	pop	r12
    2758:	bf 90       	pop	r11
    275a:	af 90       	pop	r10
/Users/askn/Documents/Zinnia-tools/Products/software/UPDI4AVR-USB/src/tpi.cpp:207
      _result &= nvm_wait();
      if (!_result) return 0;
      _dwAddr += _tpi_chunks;
    }
    return nvm_ctrl(0x00);
  }
    275c:	9f 90       	pop	r9
    275e:	8f 90       	pop	r8
    2760:	7f 90       	pop	r7
    2762:	6f 90       	pop	r6
    2764:	08 95       	ret
    2766:	6e 01       	movw	r12, r28
    2768:	82 e0       	ldi	r24, 0x02	; 2
    276a:	c8 0e       	add	r12, r24
    276c:	d1 1c       	adc	r13, r1
    276e:	89 81       	ldd	r24, Y+1	; 0x01
    2770:	0e 94 1e 08 	call	0x103c	; 0x103c <TPI::set_sst(unsigned char)>
    2774:	e6 01       	movw	r28, r12
    2776:	bb cf       	rjmp	.-138    	; 0x26ee <TPI::write_memory()+0xba>
    2778:	6e 01       	movw	r12, r28
    277a:	e2 e0       	ldi	r30, 0x02	; 2
/Users/askn/Documents/Zinnia-tools/Products/software/UPDI4AVR-USB/src/tpi.cpp:191
    /* WRITE_PAGE */
    for (size_t _i = 0; _i < _wLength; _i += _tpi_chunks) {
      D2PRINTF(" CODE_WRITE=%08X:%04X\r\n", _dwAddr, _tpi_chunks);
      _result &= nvm_ctrl(0x1D)
              && set_sst(*_p++)
              && set_sst(*_p++);
    277c:	ce 0e       	add	r12, r30
    277e:	d1 1c       	adc	r13, r1
    2780:	89 81       	ldd	r24, Y+1	; 0x01
    2782:	0e 94 1e 08 	call	0x103c	; 0x103c <TPI::set_sst(unsigned char)>
    2786:	e6 01       	movw	r28, r12
    2788:	78 22       	and	r7, r24
    278a:	0e 94 12 08 	call	0x1024	; 0x1024 <TPI::nvm_wait()>
/Users/askn/Documents/Zinnia-tools/Products/software/UPDI4AVR-USB/src/tpi.cpp:194
      if (_tpi_chunks == 4) {
        idle_clock(12);
        _result &= set_sst(*_p++) && set_sst(*_p++);
    278e:	78 22       	and	r7, r24
    2790:	d1 f2       	breq	.-76     	; 0x2746 <TPI::write_memory()+0x112>
    2792:	a8 0c       	add	r10, r8
    2794:	b9 1c       	adc	r11, r9
    2796:	9c cf       	rjmp	.-200    	; 0x26d0 <TPI::write_memory()+0x9c>
    2798:	f8 e0       	ldi	r31, 0x08	; 8
    279a:	6f 12       	cpse	r6, r31
    279c:	f6 cf       	rjmp	.-20     	; 0x278a <TPI::write_memory()+0x156>
    279e:	8c e0       	ldi	r24, 0x0C	; 12
/Users/askn/Documents/Zinnia-tools/Products/software/UPDI4AVR-USB/src/tpi.cpp:202
        idle_clock(12);
        _result &= set_sst(*_p++) && set_sst(*_p++);
        idle_clock(12);
        _result &= set_sst(*_p++) && set_sst(*_p++);
      }
      _result &= nvm_wait();
    27a0:	90 e0       	ldi	r25, 0x00	; 0
    27a2:	0e 94 48 08 	call	0x1090	; 0x1090 <TPI::idle_clock(unsigned int)>
/Users/askn/Documents/Zinnia-tools/Products/software/UPDI4AVR-USB/src/tpi.cpp:203
      if (!_result) return 0;
    27a6:	88 81       	ld	r24, Y
/Users/askn/Documents/Zinnia-tools/Products/software/UPDI4AVR-USB/src/tpi.cpp:187
        && nvm_ctrl(0x00);
      if (!_result) return 0;
    }
    _result &= nvm_wait() && set_sstpr(_dwAddr);
    /* WRITE_PAGE */
    for (size_t _i = 0; _i < _wLength; _i += _tpi_chunks) {
    27a8:	0e 94 1e 08 	call	0x103c	; 0x103c <TPI::set_sst(unsigned char)>
    27ac:	6e 01       	movw	r12, r28
/Users/askn/Documents/Zinnia-tools/Products/software/UPDI4AVR-USB/src/tpi.cpp:196
              && set_sst(*_p++);
      if (_tpi_chunks == 4) {
        idle_clock(12);
        _result &= set_sst(*_p++) && set_sst(*_p++);
      }
      if (_tpi_chunks == 8) {
    27ae:	81 11       	cpse	r24, r1
    27b0:	16 c0       	rjmp	.+44     	; 0x27de <TPI::write_memory()+0x1aa>
    27b2:	4f ef       	ldi	r20, 0xFF	; 255
/Users/askn/Documents/Zinnia-tools/Products/software/UPDI4AVR-USB/src/tpi.cpp:197
        idle_clock(12);
    27b4:	c4 1a       	sub	r12, r20
    27b6:	d4 0a       	sbc	r13, r20
    27b8:	78 22       	and	r7, r24
    27ba:	8c e0       	ldi	r24, 0x0C	; 12
/Users/askn/Documents/Zinnia-tools/Products/software/UPDI4AVR-USB/src/tpi.cpp:198
        _result &= set_sst(*_p++) && set_sst(*_p++);
    27bc:	90 e0       	ldi	r25, 0x00	; 0
    27be:	0e 94 48 08 	call	0x1090	; 0x1090 <TPI::idle_clock(unsigned int)>
    27c2:	f6 01       	movw	r30, r12
    27c4:	80 81       	ld	r24, Z
    27c6:	0e 94 1e 08 	call	0x103c	; 0x103c <TPI::set_sst(unsigned char)>
    27ca:	e6 01       	movw	r28, r12
    27cc:	88 23       	and	r24, r24
    27ce:	09 f4       	brne	.+2      	; 0x27d2 <TPI::write_memory()+0x19e>
/Users/askn/Documents/Zinnia-tools/Products/software/UPDI4AVR-USB/src/tpi.cpp:199
        idle_clock(12);
    27d0:	9b cf       	rjmp	.-202    	; 0x2708 <TPI::write_memory()+0xd4>
    27d2:	22 96       	adiw	r28, 0x02	; 2
    27d4:	f6 01       	movw	r30, r12
    27d6:	81 81       	ldd	r24, Z+1	; 0x01
/Users/askn/Documents/Zinnia-tools/Products/software/UPDI4AVR-USB/src/tpi.cpp:200
        _result &= set_sst(*_p++) && set_sst(*_p++);
    27d8:	0e 94 1e 08 	call	0x103c	; 0x103c <TPI::set_sst(unsigned char)>
    27dc:	d5 cf       	rjmp	.-86     	; 0x2788 <TPI::write_memory()+0x154>
    27de:	82 e0       	ldi	r24, 0x02	; 2
    27e0:	c8 0e       	add	r12, r24
    27e2:	d1 1c       	adc	r13, r1
    27e4:	89 81       	ldd	r24, Y+1	; 0x01
    27e6:	0e 94 1e 08 	call	0x103c	; 0x103c <TPI::set_sst(unsigned char)>
    27ea:	e6 cf       	rjmp	.-52     	; 0x27b8 <TPI::write_memory()+0x184>
    27ec:	80 e0       	ldi	r24, 0x00	; 0
    27ee:	0e 94 06 08 	call	0x100c	; 0x100c <TPI::nvm_ctrl(unsigned char)>
    27f2:	e8 2e       	mov	r14, r24
/Users/askn/Documents/Zinnia-tools/Products/software/UPDI4AVR-USB/src/tpi.cpp:198
        idle_clock(12);
        _result &= set_sst(*_p++) && set_sst(*_p++);
      }
      if (_tpi_chunks == 8) {
        idle_clock(12);
        _result &= set_sst(*_p++) && set_sst(*_p++);
    27f4:	f1 2c       	mov	r15, r1
    27f6:	a7 cf       	rjmp	.-178    	; 0x2746 <TPI::write_memory()+0x112>

000027f8 <TPI::read_memory()>:
read_memory():
    27f8:	0f 93       	push	r16
    27fa:	1f 93       	push	r17
    27fc:	cf 93       	push	r28
    27fe:	df 93       	push	r29
bswap16():
    2800:	80 91 d7 60 	lds	r24, 0x60D7	; 0x8060d7 <packet+0x9>
/Users/askn/Documents/Zinnia-tools/Products/software/UPDI4AVR-USB/src/tpi.cpp:206
      }
      _result &= nvm_wait();
      if (!_result) return 0;
      _dwAddr += _tpi_chunks;
    }
    return nvm_ctrl(0x00);
    2804:	90 91 d8 60 	lds	r25, 0x60D8	; 0x8060d8 <packet+0xa>
    2808:	c0 91 d9 60 	lds	r28, 0x60D9	; 0x8060d9 <packet+0xb>
    280c:	d0 91 da 60 	lds	r29, 0x60DA	; 0x8060da <packet+0xc>
/Users/askn/Documents/Zinnia-tools/Products/software/UPDI4AVR-USB/src/tpi.cpp:136
        }
    }
    return 0;
  }

  size_t read_memory (void) {
    2810:	dc 27       	eor	r29, r28
    2812:	cd 27       	eor	r28, r29
    2814:	dc 27       	eor	r29, r28
read_memory():
/Users/askn/Library/Arduino15/packages/MultiX-Zinnia/hardware/modernAVR/0.2.14/cores/modernAVR/api/cpp/btools.cpp:45
    2816:	98 27       	eor	r25, r24
    2818:	89 27       	eor	r24, r25
    281a:	98 27       	eor	r25, r24
    281c:	0e 94 30 08 	call	0x1060	; 0x1060 <TPI::set_sstpr(unsigned int)>
    2820:	0e ec       	ldi	r16, 0xCE	; 206
    2822:	10 e6       	ldi	r17, 0x60	; 96
    2824:	c8 01       	movw	r24, r16
    2826:	8e 5c       	subi	r24, 0xCE	; 206
    2828:	90 46       	sbci	r25, 0x60	; 96
    282a:	8c 17       	cp	r24, r28
/Users/askn/Documents/Zinnia-tools/Products/software/UPDI4AVR-USB/src/tpi.cpp:143
    uint16_t _dwAddr = bswap16(_CAPS32(packet.out.tpi.read.dwAddr)->words[1]);
    size_t  _wLength = bswap16(packet.out.tpi.read.wLength);
    uint8_t *_q = &packet.in.data[0];
    size_t _cnt = 0;
    D2PRINTF(" READ=%08X:%04X\r\n", _dwAddr, _wLength);
    set_sstpr(_dwAddr);
    282c:	9d 07       	cpc	r25, r29
    282e:	50 f4       	brcc	.+20     	; 0x2844 <TPI::read_memory()+0x4c>
    2830:	0e 94 2a 08 	call	0x1054	; 0x1054 <TPI::get_sld()>
    2834:	0f 5f       	subi	r16, 0xFF	; 255
    2836:	1f 4f       	sbci	r17, 0xFF	; 255
    2838:	88 23       	and	r24, r24
/Users/askn/Documents/Zinnia-tools/Products/software/UPDI4AVR-USB/src/tpi.cpp:144
    while (_cnt < _wLength) {
    283a:	59 f0       	breq	.+22     	; 0x2852 <TPI::read_memory()+0x5a>
    283c:	8f b3       	in	r24, 0x1f	; 31
    283e:	f8 01       	movw	r30, r16
    2840:	86 83       	std	Z+6, r24	; 0x06
    2842:	f0 cf       	rjmp	.-32     	; 0x2824 <TPI::read_memory()+0x2c>
    2844:	ce 01       	movw	r24, r28
/Users/askn/Documents/Zinnia-tools/Products/software/UPDI4AVR-USB/src/tpi.cpp:145
      if (!get_sld()) return 0;
    2846:	01 96       	adiw	r24, 0x01	; 1
    2848:	df 91       	pop	r29
    284a:	cf 91       	pop	r28
    284c:	1f 91       	pop	r17
    284e:	0f 91       	pop	r16
    2850:	08 95       	ret
/Users/askn/Documents/Zinnia-tools/Products/software/UPDI4AVR-USB/src/tpi.cpp:146
      *_q++ = RXDATA;
    2852:	90 e0       	ldi	r25, 0x00	; 0
    2854:	80 e0       	ldi	r24, 0x00	; 0
    2856:	f8 cf       	rjmp	.-16     	; 0x2848 <TPI::read_memory()+0x50>

00002858 <TPI::erase_memory()>:
erase_memory():
    2858:	cf 93       	push	r28
/Users/askn/Documents/Zinnia-tools/Products/software/UPDI4AVR-USB/src/tpi.cpp:149
      ++_cnt;
    }
    return _wLength + 1;
    285a:	df 93       	push	r29
bswap16():
    285c:	c0 91 d7 60 	lds	r28, 0x60D7	; 0x8060d7 <packet+0x9>
/Users/askn/Documents/Zinnia-tools/Products/software/UPDI4AVR-USB/src/tpi.cpp:150
  }
    2860:	d0 91 d8 60 	lds	r29, 0x60D8	; 0x8060d8 <packet+0xa>
    2864:	dc 27       	eor	r29, r28
    2866:	cd 27       	eor	r28, r29
/Users/askn/Documents/Zinnia-tools/Products/software/UPDI4AVR-USB/src/tpi.cpp:145
    uint8_t *_q = &packet.in.data[0];
    size_t _cnt = 0;
    D2PRINTF(" READ=%08X:%04X\r\n", _dwAddr, _wLength);
    set_sstpr(_dwAddr);
    while (_cnt < _wLength) {
      if (!get_sld()) return 0;
    2868:	dc 27       	eor	r29, r28
erase_memory():
    286a:	80 91 d4 60 	lds	r24, 0x60D4	; 0x8060d4 <packet+0x6>
/Users/askn/Documents/Zinnia-tools/Products/software/UPDI4AVR-USB/src/tpi.cpp:103

  bool nvm_ctrl (const uint8_t _nvmcmd) {
    return set_sout(0x63, _nvmcmd);   /* NVMCMD_REG: IO=0x33 */
  }

  size_t erase_memory (void) {
    286e:	81 30       	cpi	r24, 0x01	; 1
    2870:	99 f5       	brne	.+102    	; 0x28d8 <TPI::erase_memory()+0x80>
/Users/askn/Library/Arduino15/packages/MultiX-Zinnia/hardware/modernAVR/0.2.14/cores/modernAVR/api/cpp/btools.cpp:45
    2872:	df 93       	push	r29
    2874:	cf 93       	push	r28
    2876:	83 ef       	ldi	r24, 0xF3	; 243
    2878:	96 e0       	ldi	r25, 0x06	; 6
    287a:	9f 93       	push	r25
    287c:	8f 93       	push	r24
    287e:	8d e8       	ldi	r24, 0x8D	; 141
/Users/askn/Documents/Zinnia-tools/Products/software/UPDI4AVR-USB/src/tpi.cpp:106
    uint8_t   m_type = packet.out.tpi.read.bMType;
    uint16_t _dwAddr = bswap16(_CAPS32(packet.out.tpi.read.dwAddr)->words[1]);
    if (m_type == 0x01) {
    2880:	90 e6       	ldi	r25, 0x60	; 96
    2882:	9f 93       	push	r25
    2884:	8f 93       	push	r24
    2886:	0e 94 2e 0a 	call	0x145c	; 0x145c <Print::printf(PGM_t const*, ...) [clone .constprop.21]>
/Users/askn/Documents/Zinnia-tools/Products/software/UPDI4AVR-USB/src/tpi.cpp:108
      /* XPRG_ERASE_CHIP */
      D1PRINTF(" CHIP_ERASE=%04X\r\n", _dwAddr);
    288a:	0e 94 12 08 	call	0x1024	; 0x1024 <TPI::nvm_wait()>
    288e:	0f 90       	pop	r0
    2890:	0f 90       	pop	r0
    2892:	0f 90       	pop	r0
    2894:	0f 90       	pop	r0
    2896:	0f 90       	pop	r0
    2898:	0f 90       	pop	r0
    289a:	81 11       	cpse	r24, r1
    289c:	05 c0       	rjmp	.+10     	; 0x28a8 <TPI::erase_memory()+0x50>
    289e:	90 e0       	ldi	r25, 0x00	; 0
/Users/askn/Documents/Zinnia-tools/Products/software/UPDI4AVR-USB/src/tpi.cpp:109
      if (nvm_wait()
    28a0:	80 e0       	ldi	r24, 0x00	; 0
    28a2:	df 91       	pop	r29
/Users/askn/Documents/Zinnia-tools/Products/software/UPDI4AVR-USB/src/tpi.cpp:114
        && set_sstpr(_dwAddr)
        && nvm_ctrl(0x10)
        && set_sst(0xFF)
        && nvm_wait()
        && nvm_ctrl(0x00)) {
    28a4:	cf 91       	pop	r28
    28a6:	08 95       	ret
    28a8:	ce 01       	movw	r24, r28
    28aa:	0e 94 30 08 	call	0x1060	; 0x1060 <TPI::set_sstpr(unsigned int)>
    28ae:	88 23       	and	r24, r24
    28b0:	b1 f3       	breq	.-20     	; 0x289e <TPI::erase_memory()+0x46>
    28b2:	80 e1       	ldi	r24, 0x10	; 16
/Users/askn/Documents/Zinnia-tools/Products/software/UPDI4AVR-USB/src/tpi.cpp:133
        && nvm_wait()
        && nvm_ctrl(0x00)) {
          return 1;
        }
    }
    return 0;
    28b4:	0e 94 06 08 	call	0x100c	; 0x100c <TPI::nvm_ctrl(unsigned char)>
/Users/askn/Documents/Zinnia-tools/Products/software/UPDI4AVR-USB/src/tpi.cpp:134
  }
    28b8:	88 23       	and	r24, r24
    28ba:	89 f3       	breq	.-30     	; 0x289e <TPI::erase_memory()+0x46>
    28bc:	8f ef       	ldi	r24, 0xFF	; 255
/Users/askn/Documents/Zinnia-tools/Products/software/UPDI4AVR-USB/src/tpi.cpp:110
    uint16_t _dwAddr = bswap16(_CAPS32(packet.out.tpi.read.dwAddr)->words[1]);
    if (m_type == 0x01) {
      /* XPRG_ERASE_CHIP */
      D1PRINTF(" CHIP_ERASE=%04X\r\n", _dwAddr);
      if (nvm_wait()
        && set_sstpr(_dwAddr)
    28be:	0e 94 1e 08 	call	0x103c	; 0x103c <TPI::set_sst(unsigned char)>
    28c2:	88 23       	and	r24, r24
    28c4:	61 f3       	breq	.-40     	; 0x289e <TPI::erase_memory()+0x46>
    28c6:	0e 94 12 08 	call	0x1024	; 0x1024 <TPI::nvm_wait()>
/Users/askn/Documents/Zinnia-tools/Products/software/UPDI4AVR-USB/src/tpi.cpp:126
      /* Currently not called on AVRDUDE<=7.3. */
      /* It may be called from terminal mode.  */
      D1PRINTF(" SECTION_ERASE=%04X\r\n", _dwAddr);
      if (nvm_wait()
        && set_sstpr(_dwAddr)
        && nvm_ctrl(0x14)
    28ca:	88 23       	and	r24, r24
    28cc:	41 f3       	breq	.-48     	; 0x289e <TPI::erase_memory()+0x46>
    28ce:	80 e0       	ldi	r24, 0x00	; 0
    28d0:	0e 94 06 08 	call	0x100c	; 0x100c <TPI::nvm_ctrl(unsigned char)>
/Users/askn/Documents/Zinnia-tools/Products/software/UPDI4AVR-USB/src/tpi.cpp:127
        && set_sst(0xFF)
    28d4:	90 e0       	ldi	r25, 0x00	; 0
    28d6:	e5 cf       	rjmp	.-54     	; 0x28a2 <TPI::erase_memory()+0x4a>
    28d8:	df 93       	push	r29
    28da:	cf 93       	push	r28
/Users/askn/Documents/Zinnia-tools/Products/software/UPDI4AVR-USB/src/tpi.cpp:128
        && nvm_wait()
    28dc:	8d ed       	ldi	r24, 0xDD	; 221
    28de:	96 e0       	ldi	r25, 0x06	; 6
    28e0:	9f 93       	push	r25
    28e2:	8f 93       	push	r24
/Users/askn/Documents/Zinnia-tools/Products/software/UPDI4AVR-USB/src/tpi.cpp:129
        && nvm_ctrl(0x00)) {
    28e4:	8d e8       	ldi	r24, 0x8D	; 141
    28e6:	90 e6       	ldi	r25, 0x60	; 96
    28e8:	9f 93       	push	r25
/Users/askn/Documents/Zinnia-tools/Products/software/UPDI4AVR-USB/src/tpi.cpp:133
          return 1;
        }
    }
    return 0;
    28ea:	8f 93       	push	r24
    28ec:	0e 94 2e 0a 	call	0x145c	; 0x145c <Print::printf(PGM_t const*, ...) [clone .constprop.21]>
/Users/askn/Documents/Zinnia-tools/Products/software/UPDI4AVR-USB/src/tpi.cpp:123
    else {
      /* 0x02: XPRG_ERASE_APP */
      /* 0x09: XPRG_ERASE_CONFIG */
      /* Currently not called on AVRDUDE<=7.3. */
      /* It may be called from terminal mode.  */
      D1PRINTF(" SECTION_ERASE=%04X\r\n", _dwAddr);
    28f0:	0e 94 12 08 	call	0x1024	; 0x1024 <TPI::nvm_wait()>
    28f4:	0f 90       	pop	r0
    28f6:	0f 90       	pop	r0
    28f8:	0f 90       	pop	r0
    28fa:	0f 90       	pop	r0
    28fc:	0f 90       	pop	r0
    28fe:	0f 90       	pop	r0
    2900:	88 23       	and	r24, r24
    2902:	69 f2       	breq	.-102    	; 0x289e <TPI::erase_memory()+0x46>
    2904:	ce 01       	movw	r24, r28
/Users/askn/Documents/Zinnia-tools/Products/software/UPDI4AVR-USB/src/tpi.cpp:124
      if (nvm_wait()
    2906:	0e 94 30 08 	call	0x1060	; 0x1060 <TPI::set_sstpr(unsigned int)>
/Users/askn/Documents/Zinnia-tools/Products/software/UPDI4AVR-USB/src/tpi.cpp:129
        && set_sstpr(_dwAddr)
        && nvm_ctrl(0x14)
        && set_sst(0xFF)
        && nvm_wait()
        && nvm_ctrl(0x00)) {
    290a:	88 23       	and	r24, r24
    290c:	41 f2       	breq	.-112    	; 0x289e <TPI::erase_memory()+0x46>
    290e:	84 e1       	ldi	r24, 0x14	; 20
    2910:	d1 cf       	rjmp	.-94     	; 0x28b4 <TPI::erase_memory()+0x5c>

00002912 <__vector_19>:
__vector_19():
    2912:	1f 92       	push	r1
    2914:	0f 92       	push	r0
    2916:	0f b6       	in	r0, 0x3f	; 63
    2918:	0f 92       	push	r0
/Users/askn/Documents/Zinnia-tools/Products/software/UPDI4AVR-USB/src/tpi.cpp:125
      /* 0x09: XPRG_ERASE_CONFIG */
      /* Currently not called on AVRDUDE<=7.3. */
      /* It may be called from terminal mode.  */
      D1PRINTF(" SECTION_ERASE=%04X\r\n", _dwAddr);
      if (nvm_wait()
        && set_sstpr(_dwAddr)
    291a:	11 24       	eor	r1, r1
    291c:	2f 93       	push	r18
    291e:	3f 93       	push	r19
    2920:	4f 93       	push	r20
/Users/askn/Documents/Zinnia-tools/Products/software/UPDI4AVR-USB/src/tpi.cpp:126
        && nvm_ctrl(0x14)
    2922:	5f 93       	push	r21
    2924:	6f 93       	push	r22
/Users/askn/Documents/Zinnia-tools/Products/software/UPDI4AVR-USB/src/usart.cpp:222
  }

};

/*** CMSIS-DAP VCOM,VCP transceiver ***/
ISR(USART0_RXC_vect) {
    2926:	7f 93       	push	r23
    2928:	8f 93       	push	r24
    292a:	9f 93       	push	r25
    292c:	af 93       	push	r26
    292e:	bf 93       	push	r27
    2930:	cf 93       	push	r28
    2932:	ef 93       	push	r30
    2934:	ff 93       	push	r31
vcp_receiver():
    2936:	c0 91 01 08 	lds	r28, 0x0801	; 0x800801 <__TEXT_REGION_LENGTH__+0x7f0801>
    293a:	20 91 00 08 	lds	r18, 0x0800	; 0x800800 <__TEXT_REGION_LENGTH__+0x7f0800>
    293e:	8c 2f       	mov	r24, r28
    2940:	86 74       	andi	r24, 0x46	; 70
    2942:	b1 f4       	brne	.+44     	; 0x2970 <__vector_19+0x5e>
write_byte():
    2944:	e2 99       	sbic	0x1c, 2	; 28
    2946:	75 c0       	rjmp	.+234    	; 0x2a32 <__vector_19+0x120>
__vector_19():
    2948:	8e ea       	ldi	r24, 0xAE	; 174
/Users/askn/Documents/Zinnia-tools/Products/software/UPDI4AVR-USB/src/usb.cpp:470
  void read_drop (void) {
    if (bit_is_set(EP_CDO.STATUS, USB_BUSNAK_bp)) ep_cdo_listen();
  }

  void vcp_receiver (void) {
    uint8_t _d = USART0_RXDATAH;
    294a:	93 e6       	ldi	r25, 0x63	; 99
write_byte():
    294c:	e0 91 32 64 	lds	r30, 0x6432	; 0x806432 <_send_count>
/Users/askn/Documents/Zinnia-tools/Products/software/UPDI4AVR-USB/src/usb.cpp:471
    uint8_t _c = USART0_RXDATAL;
    2950:	31 e0       	ldi	r19, 0x01	; 1
/Users/askn/Documents/Zinnia-tools/Products/software/UPDI4AVR-USB/src/usb.cpp:472
    if (!(_d & (USART_BUFOVF_bm | USART_FERR_bm | USART_PERR_bm))) {
    2952:	3e 0f       	add	r19, r30
    2954:	30 93 32 64 	sts	0x6432, r19	; 0x806432 <_send_count>
/Users/askn/Documents/Zinnia-tools/Products/software/UPDI4AVR-USB/src/usb.cpp:434
  }

  void write_byte (const uint8_t _c) {
    /* The double buffer consists of two blocks. */
    uint8_t* _buf = bit_is_set(GPCONF, GPCONF_DBL_bp)
      ? &EP_MEM.cdi_data[64]
    2958:	e8 0f       	add	r30, r24
    295a:	f9 2f       	mov	r31, r25
    295c:	f1 1d       	adc	r31, r1
    295e:	20 83       	st	Z, r18
/Users/askn/Documents/Zinnia-tools/Products/software/UPDI4AVR-USB/src/usb.cpp:436
      : &EP_MEM.cdi_data[0];
    _buf[_send_count++] = _c;
    2960:	80 91 32 64 	lds	r24, 0x6432	; 0x806432 <_send_count>
    2964:	80 34       	cpi	r24, 0x40	; 64
    2966:	08 f0       	brcs	.+2      	; 0x296a <__vector_19+0x58>
    2968:	67 c0       	rjmp	.+206    	; 0x2a38 <__vector_19+0x126>
    296a:	8e e1       	ldi	r24, 0x1E	; 30
    296c:	80 93 2f 64 	sts	0x642F, r24	; 0x80642f <_sof_count>
vcp_receiver():
    2970:	8e b3       	in	r24, 0x1e	; 30
    2972:	c8 2b       	or	r28, r24
/Users/askn/Documents/Zinnia-tools/Products/software/UPDI4AVR-USB/src/usb.cpp:437
    if (_send_count < 64) _sof_count = 30;
    2974:	ce bb       	out	0x1e, r28	; 30
    2976:	80 91 66 64 	lds	r24, 0x6466	; 0x806466 <EP_TABLE+0x30>
    297a:	81 ff       	sbrs	r24, 1
    297c:	48 c0       	rjmp	.+144    	; 0x2a0e <__vector_19+0xfc>
cci_interrupt():
    297e:	8e b1       	in	r24, 0x0e	; 14
    2980:	80 95       	com	r24
    2982:	8b 70       	andi	r24, 0x0B	; 11
/Users/askn/Documents/Zinnia-tools/Products/software/UPDI4AVR-USB/src/usb.cpp:475
    uint8_t _d = USART0_RXDATAH;
    uint8_t _c = USART0_RXDATAL;
    if (!(_d & (USART_BUFOVF_bm | USART_FERR_bm | USART_PERR_bm))) {
      write_byte(_c);
    }
    RXSTAT |= _d;
    2984:	f2 99       	sbic	0x1e, 2	; 30
    2986:	80 61       	ori	r24, 0x10	; 16
    2988:	f1 99       	sbic	0x1e, 1	; 30
/Users/askn/Documents/Zinnia-tools/Products/software/UPDI4AVR-USB/src/usb.cpp:477
  #if defined(CONFIG_VCP_INTERRUPT_SUPPRT)
    if (bit_is_set(EP_CCI.STATUS, USB_BUSNAK_bp)) cci_interrupt();
    298a:	80 62       	ori	r24, 0x20	; 32
    298c:	f6 99       	sbic	0x1e, 6	; 30
    298e:	80 64       	ori	r24, 0x40	; 64
    2990:	1e ba       	out	0x1e, r1	; 30
/Users/askn/Documents/Zinnia-tools/Products/software/UPDI4AVR-USB/src/usb.cpp:415

  void cci_interrupt (void) {
  #if defined(CONFIG_VCP_INTERRUPT_SUPPRT)
    SerialState_t _value = {};
    #if defined(CONFIG_VCP_RS232C_ENABLE)
    uint8_t _c = VPORTD_IN;
    2992:	e4 9b       	sbis	0x1c, 4	; 28
/Users/askn/Documents/Zinnia-tools/Products/software/UPDI4AVR-USB/src/usb.cpp:416
    _value.bValue = (_c ^ 0x0B) & 0x0B;
    2994:	3c c0       	rjmp	.+120    	; 0x2a0e <__vector_19+0xfc>
    2996:	90 91 2e 64 	lds	r25, 0x642E	; 0x80642e <_set_serial_state>
/Users/askn/Documents/Zinnia-tools/Products/software/UPDI4AVR-USB/src/usb.cpp:418
    #endif
    if (bit_is_set(RXSTAT, USART_FERR_bp))   _value.bFraming = true;
    299a:	89 17       	cp	r24, r25
/Users/askn/Documents/Zinnia-tools/Products/software/UPDI4AVR-USB/src/usb.cpp:419
    if (bit_is_set(RXSTAT, USART_PERR_bp))   _value.bParity  = true;
    299c:	c1 f1       	breq	.+112    	; 0x2a0e <__vector_19+0xfc>
set_cci_data():
    299e:	80 93 2e 64 	sts	0x642E, r24	; 0x80642e <_set_serial_state>
/Users/askn/Documents/Zinnia-tools/Products/software/UPDI4AVR-USB/src/usb.cpp:420
    if (bit_is_set(RXSTAT, USART_BUFOVF_bp)) _value.bOverRun = true;
    29a2:	91 ea       	ldi	r25, 0xA1	; 161
/Users/askn/Documents/Zinnia-tools/Products/software/UPDI4AVR-USB/src/usb.cpp:421
    RXSTAT = 0;
    29a4:	90 93 1e 63 	sts	0x631E, r25	; 0x80631e <EP_MEM+0x8>
/Users/askn/Documents/Zinnia-tools/Products/software/UPDI4AVR-USB/src/usb.cpp:422
    if (bit_is_set(GPCONF, GPCONF_OPN_bp) && _set_serial_state != _value.bValue) {
    29a8:	90 e2       	ldi	r25, 0x20	; 32
    29aa:	90 93 1f 63 	sts	0x631F, r25	; 0x80631f <EP_MEM+0x9>
    29ae:	10 92 20 63 	sts	0x6320, r1	; 0x806320 <EP_MEM+0xa>
/Users/askn/Documents/Zinnia-tools/Products/software/UPDI4AVR-USB/src/usb.cpp:225
    if (_size) memcpy_P(_buffer, _pgmem, _size);
    return _size;
  }

  void set_cci_data (uint16_t _state) {
    _set_serial_state = _state;
    29b2:	10 92 21 63 	sts	0x6321, r1	; 0x806321 <EP_MEM+0xb>
/Users/askn/Documents/Zinnia-tools/Products/software/UPDI4AVR-USB/src/usb.cpp:226
    EP_MEM.cci_header.bmRequestType = 0xA1; /* REQTYPE_DIRECTION | REQTYPE_CLASS | RECIPIENT_INTERFACE */
    29b6:	21 e0       	ldi	r18, 0x01	; 1
    29b8:	30 e0       	ldi	r19, 0x00	; 0
    29ba:	20 93 22 63 	sts	0x6322, r18	; 0x806322 <EP_MEM+0xc>
/Users/askn/Documents/Zinnia-tools/Products/software/UPDI4AVR-USB/src/usb.cpp:227
    EP_MEM.cci_header.bRequest      = 0x20; /* CDC_REQ_SerialState */
    29be:	30 93 23 63 	sts	0x6323, r19	; 0x806323 <EP_MEM+0xd>
/Users/askn/Documents/Zinnia-tools/Products/software/UPDI4AVR-USB/src/usb.cpp:228
    EP_MEM.cci_header.wValue        = 0;
    29c2:	22 e0       	ldi	r18, 0x02	; 2
    29c4:	30 e0       	ldi	r19, 0x00	; 0
    29c6:	20 93 24 63 	sts	0x6324, r18	; 0x806324 <EP_MEM+0xe>
/Users/askn/Documents/Zinnia-tools/Products/software/UPDI4AVR-USB/src/usb.cpp:229
    EP_MEM.cci_header.wIndex        = 1;    /* Interface#1 */
    29ca:	30 93 25 63 	sts	0x6325, r19	; 0x806325 <EP_MEM+0xf>
cci_interrupt():
    29ce:	90 e0       	ldi	r25, 0x00	; 0
    29d0:	80 93 26 63 	sts	0x6326, r24	; 0x806326 <EP_MEM+0x10>
    29d4:	90 93 27 63 	sts	0x6327, r25	; 0x806327 <EP_MEM+0x11>
/Users/askn/Documents/Zinnia-tools/Products/software/UPDI4AVR-USB/src/usb.cpp:230
    EP_MEM.cci_header.wLength       = 2;
    29d8:	8c e6       	ldi	r24, 0x6C	; 108
    29da:	98 e0       	ldi	r25, 0x08	; 8
    29dc:	9f 93       	push	r25
    29de:	8f 93       	push	r24
    29e0:	8d e8       	ldi	r24, 0x8D	; 141
/Users/askn/Documents/Zinnia-tools/Products/software/UPDI4AVR-USB/src/usb.cpp:423
    if (bit_is_set(RXSTAT, USART_FERR_bp))   _value.bFraming = true;
    if (bit_is_set(RXSTAT, USART_PERR_bp))   _value.bParity  = true;
    if (bit_is_set(RXSTAT, USART_BUFOVF_bp)) _value.bOverRun = true;
    RXSTAT = 0;
    if (bit_is_set(GPCONF, GPCONF_OPN_bp) && _set_serial_state != _value.bValue) {
      set_cci_data(_value.bValue);
    29e2:	90 e6       	ldi	r25, 0x60	; 96
    29e4:	9f 93       	push	r25
    29e6:	8f 93       	push	r24
    29e8:	0e 94 2e 0a 	call	0x145c	; 0x145c <Print::printf(PGM_t const*, ...) [clone .constprop.21]>
/Users/askn/Documents/Zinnia-tools/Products/software/UPDI4AVR-USB/src/usb.cpp:424
      D1PRINTF(" CCI=");
    29ec:	6a e0       	ldi	r22, 0x0A	; 10
    29ee:	70 e0       	ldi	r23, 0x00	; 0
    29f0:	8e e1       	ldi	r24, 0x1E	; 30
    29f2:	93 e6       	ldi	r25, 0x63	; 99
    29f4:	0e 94 bc 09 	call	0x1378	; 0x1378 <Print::printHex(void const*, unsigned int, char, unsigned int, char const*) [clone .constprop.18]>
    29f8:	0e 94 22 0a 	call	0x1444	; 0x1444 <Print::ln()>
    29fc:	80 91 66 64 	lds	r24, 0x6466	; 0x806466 <EP_TABLE+0x30>
/Users/askn/Documents/Zinnia-tools/Products/software/UPDI4AVR-USB/src/usb.cpp:425
      D1PRINTHEX(&EP_MEM.cci_data, 10);
    2a00:	0f 90       	pop	r0
    2a02:	0f 90       	pop	r0
    2a04:	0f 90       	pop	r0
    2a06:	0f 90       	pop	r0
    2a08:	81 fd       	sbrc	r24, 1
    2a0a:	0e 94 44 05 	call	0xa88	; 0xa88 <USB::ep_cci_listen()>
__vector_19():
    2a0e:	ff 91       	pop	r31
/Users/askn/Documents/Zinnia-tools/Products/software/UPDI4AVR-USB/src/usb.cpp:426
      if (bit_is_set(EP_CCI.STATUS, USB_BUSNAK_bp)) ep_cci_listen();
    2a10:	ef 91       	pop	r30
    2a12:	cf 91       	pop	r28
    2a14:	bf 91       	pop	r27
    2a16:	af 91       	pop	r26
    2a18:	9f 91       	pop	r25
    2a1a:	8f 91       	pop	r24
    2a1c:	7f 91       	pop	r23
    2a1e:	6f 91       	pop	r22
    2a20:	5f 91       	pop	r21
/Users/askn/Documents/Zinnia-tools/Products/software/UPDI4AVR-USB/src/usart.cpp:228
#if defined(CONFIG_VCP_9BIT_SUPPORT)
  usart_receiver();
#else
  USB::vcp_receiver();
#endif
}
    2a22:	4f 91       	pop	r20
    2a24:	3f 91       	pop	r19
    2a26:	2f 91       	pop	r18
    2a28:	0f 90       	pop	r0
    2a2a:	0f be       	out	0x3f, r0	; 63
    2a2c:	0f 90       	pop	r0
    2a2e:	1f 90       	pop	r1
    2a30:	18 95       	reti
    2a32:	8e ee       	ldi	r24, 0xEE	; 238
    2a34:	93 e6       	ldi	r25, 0x63	; 99
    2a36:	8a cf       	rjmp	.-236    	; 0x294c <__vector_19+0x3a>
write_byte():
    2a38:	0e 94 10 05 	call	0xa20	; 0xa20 <USB::ep_cdi_listen()>
    2a3c:	99 cf       	rjmp	.-206    	; 0x2970 <__vector_19+0x5e>

00002a3e <__vector_15>:
__vector_15():
    2a3e:	11 24       	eor	r1, r1
    2a40:	8d b7       	in	r24, 0x3d	; 61
    2a42:	9e b7       	in	r25, 0x3e	; 62
    2a44:	80 93 4c 01 	sts	0x014C, r24	; 0x80014c <__TEXT_REGION_LENGTH__+0x7f014c>
/Users/askn/Documents/Zinnia-tools/Products/software/UPDI4AVR-USB/src/usb.cpp:434
  }

  void write_byte (const uint8_t _c) {
    /* The double buffer consists of two blocks. */
    uint8_t* _buf = bit_is_set(GPCONF, GPCONF_DBL_bp)
      ? &EP_MEM.cdi_data[64]
    2a48:	90 93 4d 01 	sts	0x014D, r25	; 0x80014d <__TEXT_REGION_LENGTH__+0x7f014d>
/Users/askn/Documents/Zinnia-tools/Products/software/UPDI4AVR-USB/src/usb.cpp:438
      : &EP_MEM.cdi_data[0];
    _buf[_send_count++] = _c;
    if (_send_count < 64) _sof_count = 30;
    else ep_cdi_listen();
    2a4c:	10 92 00 0b 	sts	0x0B00, r1	; 0x800b00 <__TEXT_REGION_LENGTH__+0x7f0b00>
    2a50:	81 e0       	ldi	r24, 0x01	; 1
/Users/askn/Documents/Zinnia-tools/Products/software/UPDI4AVR-USB/src/timeout.cpp:102
ISR(TCB0_INT_vect, ISR_NAKED) {
  /***
    This interrupt is a global escape due to timeout.
    There is no return to the source of the interrupt.
  ***/
  __asm__ __volatile__ ("EOR R1,R1");
    2a52:	80 93 06 0b 	sts	0x0B06, r24	; 0x800b06 <__TEXT_REGION_LENGTH__+0x7f0b06>
/Users/askn/Documents/Zinnia-tools/Products/software/UPDI4AVR-USB/src/timeout.cpp:104
#if defined(DEBUG)
  RTC_CMP = SP;
    2a56:	62 e0       	ldi	r22, 0x02	; 2
    2a58:	70 e0       	ldi	r23, 0x00	; 0
    2a5a:	80 e8       	ldi	r24, 0x80	; 128
    2a5c:	94 e6       	ldi	r25, 0x64	; 100
    2a5e:	0e 94 97 21 	call	0x432e	; 0x432e <longjmp>

00002a62 <Timeout::stop()>:
_ZN7Timeout4stopEv():
/Users/askn/Documents/Zinnia-tools/Products/software/UPDI4AVR-USB/src/timeout.cpp:106
#endif
  TCB0_CTRLA = 0;
    2a62:	8f b7       	in	r24, 0x3f	; 63
__iCliRetVal():
/Users/askn/Documents/Zinnia-tools/Products/software/UPDI4AVR-USB/src/timeout.cpp:107
  TCB0_INTFLAGS = TCB_CAPT_bm;
    2a64:	f8 94       	cli
_ZN7Timeout4stopEv():
    2a66:	10 92 00 0b 	sts	0x0B00, r1	; 0x800b00 <__TEXT_REGION_LENGTH__+0x7f0b00>
/Users/askn/Documents/Zinnia-tools/Products/software/UPDI4AVR-USB/src/timeout.cpp:108
  longjmp(TIMEOUT_CONTEXT, 2);
    2a6a:	91 e0       	ldi	r25, 0x01	; 1
    2a6c:	90 93 06 0b 	sts	0x0B06, r25	; 0x800b06 <__TEXT_REGION_LENGTH__+0x7f0b06>
__iRestore():
    2a70:	8f bf       	out	0x3f, r24	; 63
_ZN7Timeout4stopEv():
    2a72:	18 95       	reti

00002a74 <Timeout::command(unsigned int (*)(), unsigned int) [clone .constprop.16]>:
command():
    2a74:	0f 93       	push	r16
/Users/askn/Documents/Zinnia-tools/Products/software/UPDI4AVR-USB/src/timeout.cpp:53
   * Exit from the timeout block.
   * The last RETI is required.
   */
  __attribute__((used, naked, noinline))
  void stop (void) {
    ATOMIC_BLOCK(ATOMIC_RESTORESTATE) {
    2a76:	1f 93       	push	r17
/Users/askn/Library/Arduino15/packages/MultiX-Zinnia/tools/avr-gcc/7.3.0-avr8-gnu-toolchain/avr/include/util/atomic.h:50
    return 1;
}

static __inline__ uint8_t __iCliRetVal(void)
{
    cli();
    2a78:	cf 93       	push	r28
/Users/askn/Documents/Zinnia-tools/Products/software/UPDI4AVR-USB/src/timeout.cpp:54
      TCB0_CTRLA = 0;
    2a7a:	df 93       	push	r29
    2a7c:	00 d0       	rcall	.+0      	; 0x2a7e <Timeout::command(unsigned int (*)(), unsigned int) [clone .constprop.16]+0xa>
/Users/askn/Documents/Zinnia-tools/Products/software/UPDI4AVR-USB/src/timeout.cpp:55
      TCB0_INTFLAGS = TCB_CAPT_bm;
    2a7e:	00 d0       	rcall	.+0      	; 0x2a80 <Timeout::command(unsigned int (*)(), unsigned int) [clone .constprop.16]+0xc>
    2a80:	cd b7       	in	r28, 0x3d	; 61
    2a82:	de b7       	in	r29, 0x3e	; 62
/Users/askn/Library/Arduino15/packages/MultiX-Zinnia/tools/avr-gcc/7.3.0-avr8-gnu-toolchain/avr/include/util/atomic.h:70
    (void)__s;
}

static __inline__ void __iRestore(const  uint8_t *__s)
{
    SREG = *__s;
    2a84:	8b 83       	std	Y+3, r24	; 0x03
/Users/askn/Documents/Zinnia-tools/Products/software/UPDI4AVR-USB/src/timeout.cpp:57
    }
    reti();
    2a86:	9c 83       	std	Y+4, r25	; 0x04
/Users/askn/Documents/Zinnia-tools/Products/software/UPDI4AVR-USB/src/timeout.cpp:74
  /*
   * Timeout block.
   * Does not work with interrupts disabled.
   * RETI must be called after the interrupt is suspended.
   */
  size_t command (size_t (*func_p)(void), uint16_t _ms) {
    2a88:	19 82       	std	Y+1, r1	; 0x01
    2a8a:	1a 82       	std	Y+2, r1	; 0x02
    2a8c:	80 e8       	ldi	r24, 0x80	; 128
    2a8e:	94 e6       	ldi	r25, 0x64	; 100
    2a90:	0e 94 77 21 	call	0x42ee	; 0x42ee <setjmp>
    2a94:	89 2b       	or	r24, r25
    2a96:	31 f5       	brne	.+76     	; 0x2ae4 <Timeout::command(unsigned int (*)(), unsigned int) [clone .constprop.16]+0x70>
start():
    2a98:	9f b7       	in	r25, 0x3f	; 63
__iCliRetVal():
    2a9a:	f8 94       	cli
start():
/Users/askn/Documents/Zinnia-tools/Products/software/UPDI4AVR-USB/src/timeout.cpp:75
    volatile size_t _result = 0;
    2a9c:	10 92 0a 0b 	sts	0x0B0A, r1	; 0x800b0a <__TEXT_REGION_LENGTH__+0x7f0b0a>
/Users/askn/Documents/Zinnia-tools/Products/software/UPDI4AVR-USB/src/timeout.cpp:76
    if (setjmp(TIMEOUT_CONTEXT) == 0) {
    2aa0:	10 92 0b 0b 	sts	0x0B0B, r1	; 0x800b0b <__TEXT_REGION_LENGTH__+0x7f0b0b>
    2aa4:	20 e2       	ldi	r18, 0x20	; 32
    2aa6:	33 e0       	ldi	r19, 0x03	; 3
    2aa8:	20 93 0c 0b 	sts	0x0B0C, r18	; 0x800b0c <__TEXT_REGION_LENGTH__+0x7f0b0c>
/Users/askn/Documents/Zinnia-tools/Products/software/UPDI4AVR-USB/src/timeout.cpp:38
  /*
   * Timeout after the specified time.
   * To be precise, in 1/1024 sec units.
   */
  void start (uint16_t _ms) {
    ATOMIC_BLOCK(ATOMIC_RESTORESTATE) {
    2aac:	30 93 0d 0b 	sts	0x0B0D, r19	; 0x800b0d <__TEXT_REGION_LENGTH__+0x7f0b0d>
/Users/askn/Documents/Zinnia-tools/Products/software/UPDI4AVR-USB/src/timeout.cpp:39
      TCB0_CNT = 0;
    2ab0:	81 e0       	ldi	r24, 0x01	; 1
    2ab2:	80 93 05 0b 	sts	0x0B05, r24	; 0x800b05 <__TEXT_REGION_LENGTH__+0x7f0b05>
    2ab6:	80 93 06 0b 	sts	0x0B06, r24	; 0x800b06 <__TEXT_REGION_LENGTH__+0x7f0b06>
/Users/askn/Documents/Zinnia-tools/Products/software/UPDI4AVR-USB/src/timeout.cpp:40
      TCB0_CCMP = _ms;
    2aba:	8f e0       	ldi	r24, 0x0F	; 15
    2abc:	80 93 00 0b 	sts	0x0B00, r24	; 0x800b00 <__TEXT_REGION_LENGTH__+0x7f0b00>
__iRestore():
    2ac0:	9f bf       	out	0x3f, r25	; 63
command():
    2ac2:	eb 81       	ldd	r30, Y+3	; 0x03
/Users/askn/Documents/Zinnia-tools/Products/software/UPDI4AVR-USB/src/timeout.cpp:41
      TCB0_INTCTRL = TCB_CAPT_bm;
    2ac4:	fc 81       	ldd	r31, Y+4	; 0x04
    2ac6:	09 95       	icall
    2ac8:	89 83       	std	Y+1, r24	; 0x01
/Users/askn/Documents/Zinnia-tools/Products/software/UPDI4AVR-USB/src/timeout.cpp:42
      TCB0_INTFLAGS = TCB_CAPT_bm;
    2aca:	9a 83       	std	Y+2, r25	; 0x02
    2acc:	ef 98       	cbi	0x1d, 7	; 29
/Users/askn/Documents/Zinnia-tools/Products/software/UPDI4AVR-USB/src/timeout.cpp:43
      TCB0_CTRLA = TCB_ENABLE_bm | TCB_CLKSEL_EVENT_gc; /* for EVSYS_USERTCB0COUNT */
    2ace:	c9 df       	rcall	.-110    	; 0x2a62 <Timeout::stop()>
    2ad0:	89 81       	ldd	r24, Y+1	; 0x01
    2ad2:	9a 81       	ldd	r25, Y+2	; 0x02
/Users/askn/Library/Arduino15/packages/MultiX-Zinnia/tools/avr-gcc/7.3.0-avr8-gnu-toolchain/avr/include/util/atomic.h:70
    2ad4:	24 96       	adiw	r28, 0x04	; 4
/Users/askn/Documents/Zinnia-tools/Products/software/UPDI4AVR-USB/src/timeout.cpp:78
   */
  size_t command (size_t (*func_p)(void), uint16_t _ms) {
    volatile size_t _result = 0;
    if (setjmp(TIMEOUT_CONTEXT) == 0) {
      Timeout::start(_ms);
      _result = (*func_p)();
    2ad6:	cd bf       	out	0x3d, r28	; 61
    2ad8:	de bf       	out	0x3e, r29	; 62
    2ada:	df 91       	pop	r29
    2adc:	cf 91       	pop	r28
    2ade:	1f 91       	pop	r17
/Users/askn/Documents/Zinnia-tools/Products/software/UPDI4AVR-USB/src/timeout.cpp:79
      bit_clear(PGCONF, PGCONF_FAIL_bp);
    2ae0:	0f 91       	pop	r16
/Users/askn/Documents/Zinnia-tools/Products/software/UPDI4AVR-USB/src/timeout.cpp:87
      /* Stack dump. */
      /* An unused register is borrowed to store the SP. */
      D1PRINTF("\r\n!TIMEOUT:%04X>", RTC_CMP);
      D1PRINTHEX((const void*)(RTC_CMP + 1), 16);
    }
    Timeout::stop();
    2ae2:	08 95       	ret
    2ae4:	0c e4       	ldi	r16, 0x4C	; 76
/Users/askn/Documents/Zinnia-tools/Products/software/UPDI4AVR-USB/src/timeout.cpp:88
    return _result;
    2ae6:	11 e0       	ldi	r17, 0x01	; 1
    2ae8:	f8 01       	movw	r30, r16
/Users/askn/Documents/Zinnia-tools/Products/software/UPDI4AVR-USB/src/timeout.cpp:89
  }
    2aea:	80 81       	ld	r24, Z
    2aec:	91 81       	ldd	r25, Z+1	; 0x01
    2aee:	9f 93       	push	r25
    2af0:	8f 93       	push	r24
    2af2:	86 ec       	ldi	r24, 0xC6	; 198
    2af4:	98 e0       	ldi	r25, 0x08	; 8
    2af6:	9f 93       	push	r25
    2af8:	8f 93       	push	r24
/Users/askn/Documents/Zinnia-tools/Products/software/UPDI4AVR-USB/src/timeout.cpp:84
      bit_clear(PGCONF, PGCONF_FAIL_bp);
    }
    else {
      /* Stack dump. */
      /* An unused register is borrowed to store the SP. */
      D1PRINTF("\r\n!TIMEOUT:%04X>", RTC_CMP);
    2afa:	8d e8       	ldi	r24, 0x8D	; 141
    2afc:	90 e6       	ldi	r25, 0x60	; 96
    2afe:	9f 93       	push	r25
    2b00:	8f 93       	push	r24
    2b02:	0e 94 2e 0a 	call	0x145c	; 0x145c <Print::printf(PGM_t const*, ...) [clone .constprop.21]>
    2b06:	0f 90       	pop	r0
    2b08:	0f 90       	pop	r0
    2b0a:	0f 90       	pop	r0
    2b0c:	0f 90       	pop	r0
    2b0e:	0f 90       	pop	r0
    2b10:	0f 90       	pop	r0
    2b12:	f8 01       	movw	r30, r16
    2b14:	80 81       	ld	r24, Z
    2b16:	91 81       	ldd	r25, Z+1	; 0x01
    2b18:	60 e1       	ldi	r22, 0x10	; 16
    2b1a:	70 e0       	ldi	r23, 0x00	; 0
    2b1c:	01 96       	adiw	r24, 0x01	; 1
    2b1e:	0e 94 bc 09 	call	0x1378	; 0x1378 <Print::printHex(void const*, unsigned int, char, unsigned int, char const*) [clone .constprop.18]>
    2b22:	0e 94 22 0a 	call	0x1444	; 0x1444 <Print::ln()>
    2b26:	d3 cf       	rjmp	.-90     	; 0x2ace <Timeout::command(unsigned int (*)(), unsigned int) [clone .constprop.16]+0x5a>

00002b28 <__vector_6>:
__vector_6():
/Users/askn/Documents/Zinnia-tools/Products/software/UPDI4AVR-USB/src/timeout.cpp:85
      D1PRINTHEX((const void*)(RTC_CMP + 1), 16);
    2b28:	1f 92       	push	r1
    2b2a:	0f 92       	push	r0
    2b2c:	0f b6       	in	r0, 0x3f	; 63
    2b2e:	0f 92       	push	r0
    2b30:	11 24       	eor	r1, r1
    2b32:	8f 93       	push	r24
    2b34:	8f ef       	ldi	r24, 0xFF	; 255
    2b36:	80 93 c7 01 	sts	0x01C7, r24	; 0x8001c7 <__TEXT_REGION_LENGTH__+0x7f01c7>
    2b3a:	e7 9a       	sbi	0x1c, 7	; 28
    2b3c:	8f 91       	pop	r24
/Users/askn/Documents/Zinnia-tools/Products/software/UPDI4AVR-USB/src/sys.cpp:358
  /* SW0 Raising Interrupt */
  vportRegister(PIN_SYS_SW0).INTFLAGS = ~0;
  bit_set(GPCONF, GPCONF_RIS_bp);
}

ISR(CCL_CCL_vect) {
    2b3e:	0f 90       	pop	r0
    2b40:	0f be       	out	0x3f, r0	; 63
    2b42:	0f 90       	pop	r0
    2b44:	1f 90       	pop	r1
    2b46:	18 95       	reti

00002b48 <__vector_24>:
__vector_24():
    2b48:	1f 92       	push	r1
/Users/askn/Documents/Zinnia-tools/Products/software/UPDI4AVR-USB/src/sys.cpp:360
  /* SW0 Falling Intrrupt */
  CCL_INTFLAGS = ~0;
    2b4a:	0f 92       	push	r0
    2b4c:	0f b6       	in	r0, 0x3f	; 63
    2b4e:	0f 92       	push	r0
/Users/askn/Documents/Zinnia-tools/Products/software/UPDI4AVR-USB/src/sys.cpp:361
  bit_set(GPCONF, GPCONF_FAL_bp);
    2b50:	11 24       	eor	r1, r1
/Users/askn/Documents/Zinnia-tools/Products/software/UPDI4AVR-USB/src/sys.cpp:362
}
    2b52:	8f 93       	push	r24
    2b54:	8f ef       	ldi	r24, 0xFF	; 255
    2b56:	87 bb       	out	0x17, r24	; 23
    2b58:	e6 9a       	sbi	0x1c, 6	; 28
    2b5a:	8f 91       	pop	r24
    2b5c:	0f 90       	pop	r0
/Users/askn/Documents/Zinnia-tools/Products/software/UPDI4AVR-USB/src/sys.cpp:352

};

#if defined(PIN_SYS_SW0)
/* If the level is not maintained for a sufficient period of time it will not function properly. */
ISR(portIntrruptVector(PIN_SYS_SW0)) {
    2b5e:	0f be       	out	0x3f, r0	; 63
    2b60:	0f 90       	pop	r0
    2b62:	1f 90       	pop	r1
    2b64:	18 95       	reti

00002b66 <_GLOBAL__sub_I_Serial0A>:
_ZN14UsartBaseClassC2EP12USART_struct():
    2b66:	ed e8       	ldi	r30, 0x8D	; 141
    2b68:	f0 e6       	ldi	r31, 0x60	; 96
/Users/askn/Documents/Zinnia-tools/Products/software/UPDI4AVR-USB/src/sys.cpp:354
  /* SW0 Raising Interrupt */
  vportRegister(PIN_SYS_SW0).INTFLAGS = ~0;
    2b6a:	80 e2       	ldi	r24, 0x20	; 32
    2b6c:	98 e0       	ldi	r25, 0x08	; 8
/Users/askn/Documents/Zinnia-tools/Products/software/UPDI4AVR-USB/src/sys.cpp:355
  bit_set(GPCONF, GPCONF_RIS_bp);
    2b6e:	82 83       	std	Z+2, r24	; 0x02
/Users/askn/Documents/Zinnia-tools/Products/software/UPDI4AVR-USB/src/sys.cpp:356
}
    2b70:	93 83       	std	Z+3, r25	; 0x03
_ZN14HarfUART_ClassC2EP12USART_structPK14UART_portmux_t():
    2b72:	8f e7       	ldi	r24, 0x7F	; 127
    2b74:	90 e6       	ldi	r25, 0x60	; 96
    2b76:	80 83       	st	Z, r24
    2b78:	91 83       	std	Z+1, r25	; 0x01
    2b7a:	8c eb       	ldi	r24, 0xBC	; 188
/Users/askn/Library/Arduino15/packages/MultiX-Zinnia/hardware/modernAVR/0.2.14/cores/modernAVR/api/HarfUART.h:28
private:
  const UART_portmux_t* portmux;

public:
  inline HarfUART_Class (USART_t* _usart, const UART_portmux_t* _portmux) :
    UsartBaseClass(_usart), portmux(_portmux) {}
    2b7c:	98 e0       	ldi	r25, 0x08	; 8
    2b7e:	85 83       	std	Z+5, r24	; 0x05
    2b80:	96 83       	std	Z+6, r25	; 0x06
_GLOBAL__sub_I_Serial0A():
/Users/askn/Library/Arduino15/packages/MultiX-Zinnia/hardware/modernAVR/0.2.14/cores/modernAVR/api/cpp/Portmux_USART.cpp:69
HarfUART_Class Serial1B {&USART1, &_portmux_usart1b};
#endif

#ifdef _PORTMUX_USART1C
const UART_portmux_t PROGMEM _portmux_usart1c = _PORTMUX_USART1C;
HarfUART_Class Serial1C {&USART1, &_portmux_usart1c};
    2b82:	08 95       	ret

00002b84 <main>:
main():
/Users/askn/Documents/Zinnia-tools/Products/software/UPDI4AVR-USB/src/main.cpp:83
} /* NAMELESS */;

__attribute__((used, naked, section(".init3")))
void setup_mcu (void) { initVariant(); }

int main (void) {
    2b84:	cf 93       	push	r28
    2b86:	df 93       	push	r29
    2b88:	cd b7       	in	r28, 0x3d	; 61
    2b8a:	de b7       	in	r29, 0x3e	; 62
    2b8c:	25 97       	sbiw	r28, 0x05	; 5
    2b8e:	cd bf       	out	0x3d, r28	; 61
    2b90:	de bf       	out	0x3e, r29	; 62
initiate():
/Users/askn/Library/Arduino15/packages/MultiX-Zinnia/hardware/modernAVR/0.2.14/cores/modernAVR/api/cpp/HarfUART.cpp:26
  uint8_t _baud2x = 0;
  if (_baudrate <= 63) {
    _baud2x = 1;
    _usart_ctrl_b = USART_RXEN_bm | USART_TXEN_bm | USART_RXMODE_CLK2X_gc;
  }
  const UART_portmux_t* _mux = portmux;
    2b92:	80 91 92 60 	lds	r24, 0x6092	; 0x806092 <Serial1C+0x5>
    2b96:	90 91 93 60 	lds	r25, 0x6093	; 0x806093 <Serial1C+0x6>
/Users/askn/Library/Arduino15/packages/MultiX-Zinnia/hardware/modernAVR/0.2.14/cores/modernAVR/api/cpp/HarfUART.cpp:27
  register8_t *_portmux = (register8_t*)pgm_read_ptr(&_mux->portmux_reg);
    2b9a:	fc 01       	movw	r30, r24
    2b9c:	a5 91       	lpm	r26, Z+
    2b9e:	b4 91       	lpm	r27, Z
/Users/askn/Library/Arduino15/packages/MultiX-Zinnia/hardware/modernAVR/0.2.14/cores/modernAVR/api/cpp/HarfUART.cpp:28
  *_portmux = (*_portmux & pgm_read_byte(&_mux->portmux_mask))
    2ba0:	2c 91       	ld	r18, X
    2ba2:	fc 01       	movw	r30, r24
    2ba4:	32 96       	adiw	r30, 0x02	; 2
    2ba6:	34 91       	lpm	r19, Z
/Users/askn/Library/Arduino15/packages/MultiX-Zinnia/hardware/modernAVR/0.2.14/cores/modernAVR/api/cpp/HarfUART.cpp:29
                         | pgm_read_byte(&_mux->portmux_set);
    2ba8:	31 96       	adiw	r30, 0x01	; 1
    2baa:	e4 91       	lpm	r30, Z
/Users/askn/Library/Arduino15/packages/MultiX-Zinnia/hardware/modernAVR/0.2.14/cores/modernAVR/api/cpp/HarfUART.cpp:28
    _baud2x = 1;
    _usart_ctrl_b = USART_RXEN_bm | USART_TXEN_bm | USART_RXMODE_CLK2X_gc;
  }
  const UART_portmux_t* _mux = portmux;
  register8_t *_portmux = (register8_t*)pgm_read_ptr(&_mux->portmux_reg);
  *_portmux = (*_portmux & pgm_read_byte(&_mux->portmux_mask))
    2bac:	23 23       	and	r18, r19
/Users/askn/Library/Arduino15/packages/MultiX-Zinnia/hardware/modernAVR/0.2.14/cores/modernAVR/api/cpp/HarfUART.cpp:29
                         | pgm_read_byte(&_mux->portmux_set);
    2bae:	2e 2b       	or	r18, r30
/Users/askn/Library/Arduino15/packages/MultiX-Zinnia/hardware/modernAVR/0.2.14/cores/modernAVR/api/cpp/HarfUART.cpp:28
    _baud2x = 1;
    _usart_ctrl_b = USART_RXEN_bm | USART_TXEN_bm | USART_RXMODE_CLK2X_gc;
  }
  const UART_portmux_t* _mux = portmux;
  register8_t *_portmux = (register8_t*)pgm_read_ptr(&_mux->portmux_reg);
  *_portmux = (*_portmux & pgm_read_byte(&_mux->portmux_mask))
    2bb0:	2c 93       	st	X, r18
/Users/askn/Library/Arduino15/packages/MultiX-Zinnia/hardware/modernAVR/0.2.14/cores/modernAVR/api/cpp/HarfUART.cpp:30
                         | pgm_read_byte(&_mux->portmux_set);
  PORT_t *_port = pgm_read_ptr(&_mux->port_reg);
    2bb2:	fc 01       	movw	r30, r24
    2bb4:	34 96       	adiw	r30, 0x04	; 4
    2bb6:	a5 91       	lpm	r26, Z+
    2bb8:	b4 91       	lpm	r27, Z
/Users/askn/Library/Arduino15/packages/MultiX-Zinnia/hardware/modernAVR/0.2.14/cores/modernAVR/api/cpp/HarfUART.cpp:31
  _port->DIRSET = pgm_read_byte(&_mux->tx_pin);
    2bba:	fc 01       	movw	r30, r24
    2bbc:	36 96       	adiw	r30, 0x06	; 6
    2bbe:	e4 91       	lpm	r30, Z
    2bc0:	11 96       	adiw	r26, 0x01	; 1
    2bc2:	ec 93       	st	X, r30
    2bc4:	11 97       	sbiw	r26, 0x01	; 1
/Users/askn/Library/Arduino15/packages/MultiX-Zinnia/hardware/modernAVR/0.2.14/cores/modernAVR/api/cpp/HarfUART.cpp:32
  _port->DIRCLR = pgm_read_byte(&_mux->rx_pin);
    2bc6:	fc 01       	movw	r30, r24
    2bc8:	37 96       	adiw	r30, 0x07	; 7
    2bca:	e4 91       	lpm	r30, Z
    2bcc:	12 96       	adiw	r26, 0x02	; 2
    2bce:	ec 93       	st	X, r30
/Users/askn/Library/Arduino15/packages/MultiX-Zinnia/hardware/modernAVR/0.2.14/cores/modernAVR/api/cpp/HarfUART.cpp:33
  (*(register8_t*)pgm_read_ptr(&_mux->rx_pin_ctrl)) = PORT_PULLUPEN_bm
    2bd0:	fc 01       	movw	r30, r24
    2bd2:	38 96       	adiw	r30, 0x08	; 8
    2bd4:	a5 91       	lpm	r26, Z+
    2bd6:	b4 91       	lpm	r27, Z
    2bd8:	18 e0       	ldi	r17, 0x08	; 8
    2bda:	1c 93       	st	X, r17
/Users/askn/Library/Arduino15/packages/MultiX-Zinnia/hardware/modernAVR/0.2.14/cores/modernAVR/api/cpp/HarfUART.cpp:35
                                                    | PORT_ISC_INTDISABLE_gc;
  USART_t* _usart = usart;
    2bdc:	e0 91 8f 60 	lds	r30, 0x608F	; 0x80608f <Serial1C+0x2>
    2be0:	f0 91 90 60 	lds	r31, 0x6090	; 0x806090 <Serial1C+0x3>
/Users/askn/Library/Arduino15/packages/MultiX-Zinnia/hardware/modernAVR/0.2.14/cores/modernAVR/api/cpp/HarfUART.cpp:36
  _usart->BAUD = (_baudrate << _baud2x);
    2be4:	80 ea       	ldi	r24, 0xA0	; 160
    2be6:	90 e0       	ldi	r25, 0x00	; 0
    2be8:	80 87       	std	Z+8, r24	; 0x08
    2bea:	91 87       	std	Z+9, r25	; 0x09
/Users/askn/Library/Arduino15/packages/MultiX-Zinnia/hardware/modernAVR/0.2.14/cores/modernAVR/api/cpp/HarfUART.cpp:37
  _usart->CTRLA = 0;
    2bec:	15 82       	std	Z+5, r1	; 0x05
/Users/askn/Library/Arduino15/packages/MultiX-Zinnia/hardware/modernAVR/0.2.14/cores/modernAVR/api/cpp/HarfUART.cpp:38
  _usart->CTRLC = USART_CHSIZE_8BIT_gc
    2bee:	03 e0       	ldi	r16, 0x03	; 3
    2bf0:	07 83       	std	Z+7, r16	; 0x07
/Users/askn/Library/Arduino15/packages/MultiX-Zinnia/hardware/modernAVR/0.2.14/cores/modernAVR/api/cpp/HarfUART.cpp:42
                | USART_PMODE_DISABLED_gc
                | USART_CMODE_ASYNCHRONOUS_gc
                | USART_SBMODE_1BIT_gc;
  _usart->CTRLB = _usart_ctrl_b;
    2bf2:	80 ec       	ldi	r24, 0xC0	; 192
    2bf4:	86 83       	std	Z+6, r24	; 0x06
println():
/Users/askn/Library/Arduino15/packages/MultiX-Zinnia/hardware/modernAVR/0.2.14/cores/modernAVR/api/Print.h:85
  inline Print& print (const PGM_t _str[]) { puts(_str); return *this; }

  inline Print& println (void) { return ln(); }
  inline Print& println (char _c) { write((uint8_t) _c); return ln(); }
  inline Print& println (const char _str[]) { puts(_str); return ln(); }
  inline Print& println (const PGM_t _str[]) { puts(_str); return ln(); }
    2bf6:	67 ec       	ldi	r22, 0xC7	; 199
    2bf8:	76 e0       	ldi	r23, 0x06	; 6
    2bfa:	8d e8       	ldi	r24, 0x8D	; 141
    2bfc:	90 e6       	ldi	r25, 0x60	; 96
    2bfe:	0e 94 04 0a 	call	0x1408	; 0x1408 <Print::puts(PGM_t const*)>
    2c02:	8d e8       	ldi	r24, 0x8D	; 141
    2c04:	90 e6       	ldi	r25, 0x60	; 96
    2c06:	0e 94 22 0a 	call	0x1444	; 0x1444 <Print::ln()>
_ZN5Print5printEPK5PGM_t():
/Users/askn/Library/Arduino15/packages/MultiX-Zinnia/hardware/modernAVR/0.2.14/cores/modernAVR/api/Print.h:80
  /* Print */

  inline Print& print (void) { return *this; }
  inline Print& print (const char _c) { write((uint8_t) _c); return *this; }
  inline Print& print (const char _str[]) { puts(_str); return *this; }
  inline Print& print (const PGM_t _str[]) { puts(_str); return *this; }
    2c0a:	6e eb       	ldi	r22, 0xBE	; 190
    2c0c:	76 e0       	ldi	r23, 0x06	; 6
    2c0e:	8d e8       	ldi	r24, 0x8D	; 141
    2c10:	90 e6       	ldi	r25, 0x60	; 96
    2c12:	0e 94 04 0a 	call	0x1408	; 0x1408 <Print::puts(PGM_t const*)>
print():
/Users/askn/Library/Arduino15/packages/MultiX-Zinnia/hardware/modernAVR/0.2.14/cores/modernAVR/api/cpp/Print_integer.cpp:88
  if (_base == DEC) _base = SPACE;
  return _print_integer ((uint32_t)((int32_t)_n), _base | _INT_, _dir, 16);
}
Print& Print::print (int32_t _n, uint8_t _base, int8_t _dir) {
  if (_base == DEC) _base = SPACE;
  return _print_integer ((uint32_t)_n, _base | _INT_, _dir, 32);
    2c16:	20 e2       	ldi	r18, 0x20	; 32
    2c18:	40 e4       	ldi	r20, 0x40	; 64
    2c1a:	60 e0       	ldi	r22, 0x00	; 0
    2c1c:	7d e2       	ldi	r23, 0x2D	; 45
    2c1e:	81 e3       	ldi	r24, 0x31	; 49
    2c20:	91 e0       	ldi	r25, 0x01	; 1
    2c22:	61 d8       	rcall	.-3902   	; 0x1ce6 <Print::_print_integer(unsigned long, unsigned char, signed char, signed char) [clone .constprop.14]>
println():
/Users/askn/Library/Arduino15/packages/MultiX-Zinnia/hardware/modernAVR/0.2.14/cores/modernAVR/api/Print.h:116
  inline Print& println (uint16_t _n, uint8_t _base = DEC, int8_t _dir = 0) { print((uint16_t) _n, _base, _dir); return ln(); }
  inline Print& println (uint32_t _n, uint8_t _base = DEC, int8_t _dir = 0) { print((uint32_t) _n, _base, _dir); return ln(); }

  inline Print& println ( int8_t _n, uint8_t _base, int8_t _dir = 0) { print((int8_t) _n, _base, _dir); return ln(); }
  inline Print& println (int16_t _n, uint8_t _base = DEC, int8_t _dir = 0) { print((int16_t) _n, _base, _dir); return ln(); }
  inline Print& println (int32_t _n, uint8_t _base = DEC, int8_t _dir = 0) { print((int32_t) _n, _base, _dir); return ln(); }
    2c24:	8d e8       	ldi	r24, 0x8D	; 141
    2c26:	90 e6       	ldi	r25, 0x60	; 96
    2c28:	0e 94 22 0a 	call	0x1444	; 0x1444 <Print::ln()>
_ZN5Print5printEPK5PGM_t():
/Users/askn/Library/Arduino15/packages/MultiX-Zinnia/hardware/modernAVR/0.2.14/cores/modernAVR/api/Print.h:80
  /* Print */

  inline Print& print (void) { return *this; }
  inline Print& print (const char _c) { write((uint8_t) _c); return *this; }
  inline Print& print (const char _str[]) { puts(_str); return *this; }
  inline Print& print (const PGM_t _str[]) { puts(_str); return *this; }
    2c2c:	6d ea       	ldi	r22, 0xAD	; 173
    2c2e:	76 e0       	ldi	r23, 0x06	; 6
    2c30:	8d e8       	ldi	r24, 0x8D	; 141
    2c32:	90 e6       	ldi	r25, 0x60	; 96
    2c34:	0e 94 04 0a 	call	0x1408	; 0x1408 <Print::puts(PGM_t const*)>
println():
/Users/askn/Library/Arduino15/packages/MultiX-Zinnia/hardware/modernAVR/0.2.14/cores/modernAVR/api/Print.h:85

  inline Print& println (void) { return ln(); }
  inline Print& println (char _c) { write((uint8_t) _c); return ln(); }
  inline Print& println (const char _str[]) { puts(_str); return ln(); }
  inline Print& println (const PGM_t _str[]) { puts(_str); return ln(); }
    2c38:	6f e9       	ldi	r22, 0x9F	; 159
    2c3a:	76 e0       	ldi	r23, 0x06	; 6
    2c3c:	8d e8       	ldi	r24, 0x8D	; 141
    2c3e:	90 e6       	ldi	r25, 0x60	; 96
    2c40:	0e 94 04 0a 	call	0x1408	; 0x1408 <Print::puts(PGM_t const*)>
    2c44:	8d e8       	ldi	r24, 0x8D	; 141
    2c46:	90 e6       	ldi	r25, 0x60	; 96
    2c48:	0e 94 22 0a 	call	0x1444	; 0x1444 <Print::ln()>
_ZN5Print5printEPK5PGM_t():
/Users/askn/Library/Arduino15/packages/MultiX-Zinnia/hardware/modernAVR/0.2.14/cores/modernAVR/api/Print.h:80
  /* Print */

  inline Print& print (void) { return *this; }
  inline Print& print (const char _c) { write((uint8_t) _c); return *this; }
  inline Print& print (const char _str[]) { puts(_str); return *this; }
  inline Print& print (const PGM_t _str[]) { puts(_str); return *this; }
    2c4c:	6f e8       	ldi	r22, 0x8F	; 143
    2c4e:	76 e0       	ldi	r23, 0x06	; 6
    2c50:	8d e8       	ldi	r24, 0x8D	; 141
    2c52:	90 e6       	ldi	r25, 0x60	; 96
    2c54:	0e 94 04 0a 	call	0x1408	; 0x1408 <Print::puts(PGM_t const*)>
print():
/Users/askn/Library/Arduino15/packages/MultiX-Zinnia/hardware/modernAVR/0.2.14/cores/modernAVR/api/cpp/Print_integer.cpp:84
  if (_base == DEC) _base = SPACE;
  return _print_integer ((uint32_t)((int32_t)_n), _base | _INT_, _dir, 8);
}
Print& Print::print (int16_t _n, uint8_t _base, int8_t _dir) {
  if (_base == DEC) _base = SPACE;
  return _print_integer ((uint32_t)((int32_t)_n), _base | _INT_, _dir, 16);
    2c58:	20 e1       	ldi	r18, 0x10	; 16
    2c5a:	40 e4       	ldi	r20, 0x40	; 64
    2c5c:	66 e6       	ldi	r22, 0x66	; 102
    2c5e:	70 e0       	ldi	r23, 0x00	; 0
    2c60:	80 e0       	ldi	r24, 0x00	; 0
    2c62:	90 e0       	ldi	r25, 0x00	; 0
    2c64:	40 d8       	rcall	.-3968   	; 0x1ce6 <Print::_print_integer(unsigned long, unsigned char, signed char, signed char) [clone .constprop.14]>
println():
/Users/askn/Library/Arduino15/packages/MultiX-Zinnia/hardware/modernAVR/0.2.14/cores/modernAVR/api/Print.h:115
  inline Print& println ( uint8_t _n, uint8_t _base, int8_t _dir = 0) { print((uint8_t) _n, _base, _dir); return ln(); }
  inline Print& println (uint16_t _n, uint8_t _base = DEC, int8_t _dir = 0) { print((uint16_t) _n, _base, _dir); return ln(); }
  inline Print& println (uint32_t _n, uint8_t _base = DEC, int8_t _dir = 0) { print((uint32_t) _n, _base, _dir); return ln(); }

  inline Print& println ( int8_t _n, uint8_t _base, int8_t _dir = 0) { print((int8_t) _n, _base, _dir); return ln(); }
  inline Print& println (int16_t _n, uint8_t _base = DEC, int8_t _dir = 0) { print((int16_t) _n, _base, _dir); return ln(); }
    2c66:	8d e8       	ldi	r24, 0x8D	; 141
    2c68:	90 e6       	ldi	r25, 0x60	; 96
    2c6a:	0e 94 22 0a 	call	0x1444	; 0x1444 <Print::ln()>
setup():
/Users/askn/Documents/Zinnia-tools/Products/software/UPDI4AVR-USB/src/sys.cpp:48
    /*
     * GPIO - VCP
     */

  #if defined(PIN_VCP_DTR)
    pinModeMacro(PIN_VCP_DTR, OUTPUT);
    2c6e:	64 9a       	sbi	0x0c, 4	; 12
    2c70:	10 92 74 04 	sts	0x0474, r1	; 0x800474 <__TEXT_REGION_LENGTH__+0x7f0474>
/Users/askn/Documents/Zinnia-tools/Products/software/UPDI4AVR-USB/src/sys.cpp:51
  #endif
  #if defined(PIN_VCP_RTS)
    pinModeMacro(PIN_VCP_RTS, OUTPUT);
    2c74:	65 9a       	sbi	0x0c, 5	; 12
    2c76:	10 92 75 04 	sts	0x0475, r1	; 0x800475 <__TEXT_REGION_LENGTH__+0x7f0475>
/Users/askn/Documents/Zinnia-tools/Products/software/UPDI4AVR-USB/src/sys.cpp:57
  #endif
  #if defined(PIN_VCP_CTS) && defined(CONFIG_VCP_CTS_ENABLE)
    pinControlRegister(PIN_VCP_CTS) = PORT_PULLUPEN_bm;
  #endif
  #if defined(PIN_VCP_DCD)
    pinControlRegister(PIN_VCP_DCD) = PORT_PULLUPEN_bm;
    2c7a:	10 93 70 04 	sts	0x0470, r17	; 0x800470 <__TEXT_REGION_LENGTH__+0x7f0470>
/Users/askn/Documents/Zinnia-tools/Products/software/UPDI4AVR-USB/src/sys.cpp:60
  #endif
  #if defined(PIN_VCP_DSR)
    pinControlRegister(PIN_VCP_DSR) = PORT_PULLUPEN_bm;
    2c7e:	10 93 71 04 	sts	0x0471, r17	; 0x800471 <__TEXT_REGION_LENGTH__+0x7f0471>
/Users/askn/Documents/Zinnia-tools/Products/software/UPDI4AVR-USB/src/sys.cpp:63
  #endif
  #if defined(PIN_VCP_RI)
    pinControlRegister(PIN_VCP_RI) = PORT_PULLUPEN_bm;
    2c82:	10 93 73 04 	sts	0x0473, r17	; 0x800473 <__TEXT_REGION_LENGTH__+0x7f0473>
/Users/askn/Documents/Zinnia-tools/Products/software/UPDI4AVR-USB/src/sys.cpp:90
    pinControlRegister(PIN_HV_SWITCH) = PORT_INVEN_bm;
    pinModeMacro(PIN_HV_SWITCH, OUTPUT);
  #endif
  #if defined(PIN_HV_POWER)
    /* Device power control: output positive logic */
    pinModeMacro(PIN_HV_POWER, OUTPUT);
    2c86:	06 9a       	sbi	0x00, 6	; 0
    2c88:	10 92 16 04 	sts	0x0416, r1	; 0x800416 <__TEXT_REGION_LENGTH__+0x7f0416>
/Users/askn/Documents/Zinnia-tools/Products/software/UPDI4AVR-USB/src/sys.cpp:91
    digitalWriteMacro(PIN_HV_POWER, HIGH);
    2c8c:	0e 9a       	sbi	0x01, 6	; 1
/Users/askn/Documents/Zinnia-tools/Products/software/UPDI4AVR-USB/src/sys.cpp:99
    /*
     * GPIO - USB
     */

  #if defined(PIN_USB_VDETECT)
    pinControlRegister(PIN_USB_VDETECT) = PORT_PULLUPEN_bm;
    2c8e:	10 93 b4 04 	sts	0x04B4, r17	; 0x8004b4 <__TEXT_REGION_LENGTH__+0x7f04b4>
/Users/askn/Documents/Zinnia-tools/Products/software/UPDI4AVR-USB/src/sys.cpp:110

  #if defined(PIN_SYS_SW0)
    /* SW0 detection: Input negative logic. */
    /* Use CCL in conjunction to separate the falling edge and rising edge interrupts. */
    /* For the falling edge, use the CCL filter function to remove chattering noise.   */
    pinControlRegister(PIN_SYS_SW0) = PORT_PULLUPEN_bm | PORT_ISC_RISING_gc;
    2c92:	8a e0       	ldi	r24, 0x0A	; 10
    2c94:	80 93 b6 04 	sts	0x04B6, r24	; 0x8004b6 <__TEXT_REGION_LENGTH__+0x7f04b6>
/Users/askn/Documents/Zinnia-tools/Products/software/UPDI4AVR-USB/src/sys.cpp:111
    portRegister(PIN_SYS_SW0).EVGENCTRLA = pinPosition(PIN_SYS_SW0);
    2c98:	96 e0       	ldi	r25, 0x06	; 6
    2c9a:	90 93 b8 04 	sts	0x04B8, r25	; 0x8004b8 <__TEXT_REGION_LENGTH__+0x7f04b8>
/Users/askn/Documents/Zinnia-tools/Products/software/UPDI4AVR-USB/src/sys.cpp:113
    #if (PIN_SYS_SW0 & 0xF0) == 176
    EVSYS_CHANNEL3 = EVSYS_CHANNEL_PORTF_EVGEN0_gc;
    2c9e:	8a e4       	ldi	r24, 0x4A	; 74
    2ca0:	80 93 13 02 	sts	0x0213, r24	; 0x800213 <__TEXT_REGION_LENGTH__+0x7f0213>
/Users/askn/Documents/Zinnia-tools/Products/software/UPDI4AVR-USB/src/sys.cpp:133
    CCL_TRUTH0    = CCL_TRUTH_1_bm | CCL_TRUTH_2_bm;
    CCL_LUT0CTRLB = CCL_INSEL0_TCA0_gc | CCL_INSEL1_TCB1_gc;
    CCL_LUT0CTRLA = CCL_ENABLE_bm | CCL_OUTEN_bm; /* PIN_PC3 */
  #elif (CONFIG_HAL_TYPE == HAL_CNANO)
    /* PORTMUX LUT0OUT -> EVSYSOUTF -> PIN_PF2 Invert */
    pinControlRegister(PIN_PF2) = PORT_INVEN_bm;
    2ca4:	20 e8       	ldi	r18, 0x80	; 128
    2ca6:	20 93 b2 04 	sts	0x04B2, r18	; 0x8004b2 <__TEXT_REGION_LENGTH__+0x7f04b2>
/Users/askn/Documents/Zinnia-tools/Products/software/UPDI4AVR-USB/src/sys.cpp:134
    EVSYS_CHANNEL0 = EVSYS_CHANNEL_CCL_LUT0_gc;
    2caa:	80 e1       	ldi	r24, 0x10	; 16
    2cac:	80 93 10 02 	sts	0x0210, r24	; 0x800210 <__TEXT_REGION_LENGTH__+0x7f0210>
/Users/askn/Documents/Zinnia-tools/Products/software/UPDI4AVR-USB/src/sys.cpp:135
    EVSYS_USEREVSYSEVOUTF = EVSYS_USER_CHANNEL0_gc;
    2cb0:	81 e0       	ldi	r24, 0x01	; 1
    2cb2:	80 93 2b 02 	sts	0x022B, r24	; 0x80022b <__TEXT_REGION_LENGTH__+0x7f022b>
/Users/askn/Documents/Zinnia-tools/Products/software/UPDI4AVR-USB/src/sys.cpp:137
    /* TRUTH0: 000 001 010 011 is ON */
    CCL_TRUTH0    = CCL_TRUTH_1_bm | CCL_TRUTH_2_bm;
    2cb6:	90 93 cb 01 	sts	0x01CB, r25	; 0x8001cb <__TEXT_REGION_LENGTH__+0x7f01cb>
/Users/askn/Documents/Zinnia-tools/Products/software/UPDI4AVR-USB/src/sys.cpp:138
    CCL_LUT0CTRLB = CCL_INSEL0_TCA0_gc | CCL_INSEL1_TCB1_gc;
    2cba:	99 ea       	ldi	r25, 0xA9	; 169
    2cbc:	90 93 c9 01 	sts	0x01C9, r25	; 0x8001c9 <__TEXT_REGION_LENGTH__+0x7f01c9>
/Users/askn/Documents/Zinnia-tools/Products/software/UPDI4AVR-USB/src/sys.cpp:139
    CCL_LUT0CTRLA = CCL_ENABLE_bm;
    2cc0:	80 93 c8 01 	sts	0x01C8, r24	; 0x8001c8 <__TEXT_REGION_LENGTH__+0x7f01c8>
/Users/askn/Documents/Zinnia-tools/Products/software/UPDI4AVR-USB/src/sys.cpp:151
    CCL_LUT1CTRLA = CCL_ENABLE_bm | CCL_OUTEN_bm; /* PIN_PA6 */
  #endif

  #if defined(PIN_SYS_SW0)
    /* SW0 -> CH3 -> LUT3OUT -> INTFLAGS:INT3 */
    EVSYS_USERCCLLUT3A = EVSYS_USER_CHANNEL3_gc;
    2cc4:	94 e0       	ldi	r25, 0x04	; 4
    2cc6:	90 93 26 02 	sts	0x0226, r25	; 0x800226 <__TEXT_REGION_LENGTH__+0x7f0226>
/Users/askn/Documents/Zinnia-tools/Products/software/UPDI4AVR-USB/src/sys.cpp:152
    CCL_TRUTH3    = CCL_TRUTH_1_bm;
    2cca:	92 e0       	ldi	r25, 0x02	; 2
    2ccc:	90 93 d7 01 	sts	0x01D7, r25	; 0x8001d7 <__TEXT_REGION_LENGTH__+0x7f01d7>
/Users/askn/Documents/Zinnia-tools/Products/software/UPDI4AVR-USB/src/sys.cpp:153
    CCL_LUT3CTRLB = CCL_INSEL0_EVENTA_gc;
    2cd0:	00 93 d5 01 	sts	0x01D5, r16	; 0x8001d5 <__TEXT_REGION_LENGTH__+0x7f01d5>
/Users/askn/Documents/Zinnia-tools/Products/software/UPDI4AVR-USB/src/sys.cpp:154
    CCL_LUT3CTRLA = CCL_ENABLE_bm | CCL_FILTSEL_FILTER_gc;
    2cd4:	31 e2       	ldi	r19, 0x21	; 33
    2cd6:	30 93 d4 01 	sts	0x01D4, r19	; 0x8001d4 <__TEXT_REGION_LENGTH__+0x7f01d4>
/Users/askn/Documents/Zinnia-tools/Products/software/UPDI4AVR-USB/src/sys.cpp:155
    CCL_INTCTRL0  = CCL_INTMODE3_FALLING_gc;
    2cda:	20 93 c5 01 	sts	0x01C5, r18	; 0x8001c5 <__TEXT_REGION_LENGTH__+0x7f01c5>
/Users/askn/Documents/Zinnia-tools/Products/software/UPDI4AVR-USB/src/sys.cpp:160
  #endif

    /*** CCL enable ***/
    /* One of the CCL's is the LED output control. */
    CCL_CTRLA = CCL_RUNSTDBY_bm | CCL_ENABLE_bm;
    2cde:	21 e4       	ldi	r18, 0x41	; 65
    2ce0:	20 93 c0 01 	sts	0x01C0, r18	; 0x8001c0 <__TEXT_REGION_LENGTH__+0x7f01c0>
/Users/askn/Documents/Zinnia-tools/Products/software/UPDI4AVR-USB/src/sys.cpp:167
    /*** TCA0 ***/
    /* TCA0 is split into two 8-bit timers. */
    /* The lower timer controls the blinking rate of the LED. */
    /* The top timer is used as a period timer */
    /* and as the output for the charge pump.  */
    TCA0_SPLIT_CTRLD = TCA_SPLIT_SPLITM_bm;
    2ce4:	80 93 03 0a 	sts	0x0A03, r24	; 0x800a03 <__TEXT_REGION_LENGTH__+0x7f0a03>
/Users/askn/Documents/Zinnia-tools/Products/software/UPDI4AVR-USB/src/sys.cpp:168
    TCA0_SPLIT_LPER  = TCA0_STEP - 2;
    2ce8:	23 ec       	ldi	r18, 0xC3	; 195
    2cea:	20 93 26 0a 	sts	0x0A26, r18	; 0x800a26 <__TEXT_REGION_LENGTH__+0x7f0a26>
/Users/askn/Documents/Zinnia-tools/Products/software/UPDI4AVR-USB/src/sys.cpp:169
    TCA0_SPLIT_LCMP0 = TCA0_STEP / 2;
    2cee:	22 e6       	ldi	r18, 0x62	; 98
    2cf0:	20 93 28 0a 	sts	0x0A28, r18	; 0x800a28 <__TEXT_REGION_LENGTH__+0x7f0a28>
/Users/askn/Documents/Zinnia-tools/Products/software/UPDI4AVR-USB/src/sys.cpp:176
    /*** TCB0 ***/
    /* The TCB0 timer is configured in the <timeout.cpp> module. */

    /*** TCB1 ***/
    /* TCB1 is used to control the LED blinking rate. */
    TCB1_CTRLB = TCB_ASYNC_bm | TCB_CNTMODE_PWM8_gc;
    2cf4:	27 e4       	ldi	r18, 0x47	; 71
    2cf6:	20 93 11 0b 	sts	0x0B11, r18	; 0x800b11 <__TEXT_REGION_LENGTH__+0x7f0b11>
/Users/askn/Documents/Zinnia-tools/Products/software/UPDI4AVR-USB/src/sys.cpp:177
    TCB1_CCMP  = TCB1_FLASH;
    2cfa:	29 ea       	ldi	r18, 0xA9	; 169
    2cfc:	35 e0       	ldi	r19, 0x05	; 5
    2cfe:	20 93 1c 0b 	sts	0x0B1C, r18	; 0x800b1c <__TEXT_REGION_LENGTH__+0x7f0b1c>
    2d02:	30 93 1d 0b 	sts	0x0B1D, r19	; 0x800b1d <__TEXT_REGION_LENGTH__+0x7f0b1d>
/Users/askn/Documents/Zinnia-tools/Products/software/UPDI4AVR-USB/src/sys.cpp:178
    TCB1_CTRLA = TCB_RUNSTDBY_bm | TCB_ENABLE_bm | TCB_CLKSEL_EVENT_gc;
    2d06:	2f e4       	ldi	r18, 0x4F	; 79
    2d08:	20 93 10 0b 	sts	0x0B10, r18	; 0x800b10 <__TEXT_REGION_LENGTH__+0x7f0b10>
/Users/askn/Documents/Zinnia-tools/Products/software/UPDI4AVR-USB/src/timeout.cpp:25
#include "prototype.h"

namespace Timeout {

  void setup (void) {
    RTC_PITEVGENCTRLA = RTC_EVGEN0SEL_DIV32_gc | RTC_EVGEN1SEL_DIV128_gc;
    2d0c:	24 e6       	ldi	r18, 0x64	; 100
    2d0e:	20 93 56 01 	sts	0x0156, r18	; 0x800156 <__TEXT_REGION_LENGTH__+0x7f0156>
/Users/askn/Documents/Zinnia-tools/Products/software/UPDI4AVR-USB/src/timeout.cpp:26
    EVSYS_CHANNEL1 = EVSYS_CHANNEL_RTC_EVGEN0_gc; /* 1024Hz periodic.  */
    2d12:	10 93 11 02 	sts	0x0211, r17	; 0x800211 <__TEXT_REGION_LENGTH__+0x7f0211>
/Users/askn/Documents/Zinnia-tools/Products/software/UPDI4AVR-USB/src/timeout.cpp:27
    EVSYS_CHANNEL2 = EVSYS_CHANNEL_RTC_EVGEN1_gc; /* 32Hz periodic.    */
    2d16:	29 e0       	ldi	r18, 0x09	; 9
    2d18:	20 93 12 02 	sts	0x0212, r18	; 0x800212 <__TEXT_REGION_LENGTH__+0x7f0212>
/Users/askn/Documents/Zinnia-tools/Products/software/UPDI4AVR-USB/src/timeout.cpp:28
    EVSYS_USERTCB0COUNT = EVSYS_USER_CHANNEL1_gc; /* TCB0_CLK = 1024Hz */
    2d1c:	90 93 31 02 	sts	0x0231, r25	; 0x800231 <__TEXT_REGION_LENGTH__+0x7f0231>
/Users/askn/Documents/Zinnia-tools/Products/software/UPDI4AVR-USB/src/timeout.cpp:29
    EVSYS_USERTCB1COUNT = EVSYS_USER_CHANNEL2_gc; /* TCB1_CLK = 32Hz   */
    2d20:	00 93 33 02 	sts	0x0233, r16	; 0x800233 <__TEXT_REGION_LENGTH__+0x7f0233>
/Users/askn/Documents/Zinnia-tools/Products/software/UPDI4AVR-USB/src/timeout.cpp:30
    RTC_PITCTRLA = RTC_PITEN_bm;
    2d24:	80 93 50 01 	sts	0x0150, r24	; 0x800150 <__TEXT_REGION_LENGTH__+0x7f0150>
main():
/Users/askn/Documents/Zinnia-tools/Products/software/UPDI4AVR-USB/src/main.cpp:94
  Serial.print(F("__AVR_ARCH__ = ")).println(__AVR_ARCH__, DEC);
#endif

  SYS::setup();
  Timeout::setup();
  USART::setup();
    2d28:	02 d9       	rcall	.-3580   	; 0x1f2e <USART::setup()>
/Users/askn/Documents/Zinnia-tools/Products/software/UPDI4AVR-USB/src/main.cpp:96

  loop_until_bit_is_clear(WDT_STATUS, WDT_SYNCBUSY_bp);
    2d2a:	80 91 01 01 	lds	r24, 0x0101	; 0x800101 <__TEXT_REGION_LENGTH__+0x7f0101>
    2d2e:	80 fd       	sbrc	r24, 0
    2d30:	fc cf       	rjmp	.-8      	; 0x2d2a <main+0x1a6>
/Users/askn/Documents/Zinnia-tools/Products/software/UPDI4AVR-USB/src/main.cpp:97
  _PROTECTED_WRITE(WDT_CTRLA, WDT_PERIOD_1KCLK_gc);
    2d32:	88 ed       	ldi	r24, 0xD8	; 216
    2d34:	98 e0       	ldi	r25, 0x08	; 8
    2d36:	84 bf       	out	0x34, r24	; 52
    2d38:	90 93 00 01 	sts	0x0100, r25	; 0x800100 <__TEXT_REGION_LENGTH__+0x7f0100>
/Users/askn/Documents/Zinnia-tools/Products/software/UPDI4AVR-USB/src/main.cpp:101

  #if defined(PIN_SYS_SW0)
  /* Clear the dirty flag before enabling interrupts. */
  vportRegister(PIN_SYS_SW0).INTFLAGS = ~0;
    2d3c:	8f ef       	ldi	r24, 0xFF	; 255
    2d3e:	87 bb       	out	0x17, r24	; 23
/Users/askn/Documents/Zinnia-tools/Products/software/UPDI4AVR-USB/src/main.cpp:102
  CCL_INTFLAGS = ~0;
    2d40:	80 93 c7 01 	sts	0x01C7, r24	; 0x8001c7 <__TEXT_REGION_LENGTH__+0x7f01c7>
/Users/askn/Documents/Zinnia-tools/Products/software/UPDI4AVR-USB/src/main.cpp:104
  #endif
  interrupts();
    2d44:	78 94       	sei
/Users/askn/Documents/Zinnia-tools/Products/software/UPDI4AVR-USB/src/main.cpp:111
  #if !defined(PIN_USB_VDETECT)
  /* If you do not use VBD, insert the shortest possible delay instead. */
  delay_millis(250);
  USB::setup_device(true);
  #else
  SYS::LED_Flash();
    2d46:	0e 94 8f 08 	call	0x111e	; 0x111e <SYS::LED_Flash()>
/Users/askn/Documents/Zinnia-tools/Products/software/UPDI4AVR-USB/src/main.cpp:115
  #endif

  /* From here on, it's an endless loop. */
  D1PRINTF("<WAITING>\r\n");
    2d4a:	83 e8       	ldi	r24, 0x83	; 131
    2d4c:	96 e0       	ldi	r25, 0x06	; 6
    2d4e:	9f 93       	push	r25
    2d50:	8f 93       	push	r24
    2d52:	8d e8       	ldi	r24, 0x8D	; 141
    2d54:	90 e6       	ldi	r25, 0x60	; 96
    2d56:	9f 93       	push	r25
    2d58:	8f 93       	push	r24
    2d5a:	0e 94 2e 0a 	call	0x145c	; 0x145c <Print::printf(PGM_t const*, ...) [clone .constprop.21]>
    2d5e:	0f 90       	pop	r0
    2d60:	0f 90       	pop	r0
    2d62:	0f 90       	pop	r0
    2d64:	0f 90       	pop	r0
handling_control_transactions():
/Users/askn/Documents/Zinnia-tools/Products/software/UPDI4AVR-USB/src/usb.cpp:658
  /* This process is equivalent to a endpoint interrupt. */
  /* The reason for using polling is to prioritize VCP performance. */
  void handling_control_transactions (void) {
    bool _listen = false;
    uint8_t bmRequestType = EP_MEM.req_data.bmRequestType;
    D1PRINTF("RQ=%02X:%04X:%02X:%02X:%04X:%04X:%04X\r\n",
    2d66:	0d e8       	ldi	r16, 0x8D	; 141
    2d68:	10 e6       	ldi	r17, 0x60	; 96
    2d6a:	1e 01       	movw	r2, r28
    2d6c:	25 e0       	ldi	r18, 0x05	; 5
    2d6e:	22 0e       	add	r2, r18
    2d70:	31 1c       	adc	r3, r1
request_class():
/Users/askn/Documents/Zinnia-tools/Products/software/UPDI4AVR-USB/src/usb.cpp:624
    else if (bRequest == 0x21) {  /* GET_LINE_ENCODING */
      memcpy(&EP_MEM.res_encoding, &_set_line_encoding, sizeof(LineEncoding_t));
      if (EP_MEM.res_encoding.dwDTERate == 0) {
        /* Parameters that, if incorrectly accepted,           */
        /* would result in division by zero must be corrected. */
        EP_MEM.res_encoding.dwDTERate = 9600UL;
    2d72:	30 e8       	ldi	r19, 0x80	; 128
    2d74:	83 2e       	mov	r8, r19
    2d76:	35 e2       	ldi	r19, 0x25	; 37
    2d78:	93 2e       	mov	r9, r19
    2d7a:	a1 2c       	mov	r10, r1
    2d7c:	b1 2c       	mov	r11, r1
request_standard():
/Users/askn/Documents/Zinnia-tools/Products/software/UPDI4AVR-USB/src/usb.cpp:579
    }
    else if (bRequest == 0x0A) {  /* GET_INTREFACE */
      /* It seems not to be used. */
      D1PRINTF("<SI:0>\r\n");
      EP_MEM.res_data[0] = 0;
      EP_RES.CNT = 1;
    2d7e:	66 24       	eor	r6, r6
    2d80:	63 94       	inc	r6
    2d82:	71 2c       	mov	r7, r1
main():
/Users/askn/Documents/Zinnia-tools/Products/software/UPDI4AVR-USB/src/main.cpp:117
  while (true) {
    wdt_reset();
    2d84:	a8 95       	wdr
handling_bus_events():
/Users/askn/Documents/Zinnia-tools/Products/software/UPDI4AVR-USB/src/usb.cpp:689

  /*** This process is equivalent to a bus interrupt. ***/
  /* The reason for using polling is to prioritize VCP performance. */
  /* The trade-off is that power standby is not available. */
  void handling_bus_events (void) {
    uint8_t busstate = USB0_INTFLAGSA;
    2d86:	f0 90 0a 0c 	lds	r15, 0x0C0A	; 0x800c0a <__TEXT_REGION_LENGTH__+0x7f0c0a>
/Users/askn/Documents/Zinnia-tools/Products/software/UPDI4AVR-USB/src/usb.cpp:690
    USB0_INTFLAGSA = busstate;
    2d8a:	f0 92 0a 0c 	sts	0x0C0A, r15	; 0x800c0a <__TEXT_REGION_LENGTH__+0x7f0c0a>
/Users/askn/Documents/Zinnia-tools/Products/software/UPDI4AVR-USB/src/usb.cpp:693
  #if defined(PIN_USB_VDETECT)
    /* This section is still experimental. */
    if (digitalReadMacro(PIN_USB_VDETECT)) {
    2d8e:	b4 9b       	sbis	0x16, 4	; 22
    2d90:	10 c0       	rjmp	.+32     	; 0x2db2 <main+0x22e>
/Users/askn/Documents/Zinnia-tools/Products/software/UPDI4AVR-USB/src/usb.cpp:694
      if (!USB0_CTRLA) {
    2d92:	80 91 00 0c 	lds	r24, 0x0C00	; 0x800c00 <__TEXT_REGION_LENGTH__+0x7f0c00>
    2d96:	81 11       	cpse	r24, r1
    2d98:	11 c0       	rjmp	.+34     	; 0x2dbc <main+0x238>
setup_device():
/Users/askn/Documents/Zinnia-tools/Products/software/UPDI4AVR-USB/src/usb.cpp:235
    EP_MEM.cci_header.wLength       = 2;
    EP_MEM.cci_wValue               = _state;
  }

  void setup_device (bool _force) {
    if (_led_mode != 3) SYS::LED_Flash();
    2d9a:	80 91 85 60 	lds	r24, 0x6085	; 0x806085 <_led_mode>
    2d9e:	83 30       	cpi	r24, 0x03	; 3
    2da0:	11 f0       	breq	.+4      	; 0x2da6 <main+0x222>
    2da2:	0e 94 8f 08 	call	0x111e	; 0x111e <SYS::LED_Flash()>
/Users/askn/Documents/Zinnia-tools/Products/software/UPDI4AVR-USB/src/usb.cpp:236
    USB0_ADDR = 0;
    2da6:	10 92 03 0c 	sts	0x0C03, r1	; 0x800c03 <__TEXT_REGION_LENGTH__+0x7f0c03>
/Users/askn/Documents/Zinnia-tools/Products/software/UPDI4AVR-USB/src/usb.cpp:237
    if (USB0_CTRLA || _force) {
    2daa:	80 91 00 0c 	lds	r24, 0x0C00	; 0x800c00 <__TEXT_REGION_LENGTH__+0x7f0c00>
    2dae:	57 d8       	rcall	.-3922   	; 0x1e5e <USB::setup_device(bool) [clone .part.2]>
    2db0:	31 c0       	rjmp	.+98     	; 0x2e14 <main+0x290>
handling_bus_events():
/Users/askn/Documents/Zinnia-tools/Products/software/UPDI4AVR-USB/src/usb.cpp:699
      if (!USB0_CTRLA) {
        setup_device(true);
        return;
      }
    }
    else if (USB0_CTRLA) {
    2db2:	80 91 00 0c 	lds	r24, 0x0C00	; 0x800c00 <__TEXT_REGION_LENGTH__+0x7f0c00>
    2db6:	81 11       	cpse	r24, r1
/Users/askn/Documents/Zinnia-tools/Products/software/UPDI4AVR-USB/src/usb.cpp:701
      /* System reboot */
      SYS::reboot();
    2db8:	0e 94 59 0e 	call	0x1cb2	; 0x1cb2 <SYS::reboot()>
/Users/askn/Documents/Zinnia-tools/Products/software/UPDI4AVR-USB/src/usb.cpp:715
    }
    if (bit_is_set(busstate, USB_RESUME_bp)) {
      D1PRINTF("<RESUME:%04X>\r\n", USB0_ADDR);
    }
  #endif
    if (bit_is_set(busstate, USB_SOF_bp)) {
    2dbc:	f7 fe       	sbrs	r15, 7
    2dbe:	14 c0       	rjmp	.+40     	; 0x2de8 <main+0x264>
/Users/askn/Documents/Zinnia-tools/Products/software/UPDI4AVR-USB/src/usb.cpp:717
      /* If there is deferred data for a block transfer, it is sent here. */
      if (_sof_count > 0 && 0 == (--_sof_count)) {
    2dc0:	80 91 2f 64 	lds	r24, 0x642F	; 0x80642f <_sof_count>
    2dc4:	88 23       	and	r24, r24
    2dc6:	81 f0       	breq	.+32     	; 0x2de8 <main+0x264>
    2dc8:	80 91 2f 64 	lds	r24, 0x642F	; 0x80642f <_sof_count>
    2dcc:	81 50       	subi	r24, 0x01	; 1
    2dce:	80 93 2f 64 	sts	0x642F, r24	; 0x80642f <_sof_count>
    2dd2:	81 11       	cpse	r24, r1
    2dd4:	09 c0       	rjmp	.+18     	; 0x2de8 <main+0x264>
/Users/askn/Documents/Zinnia-tools/Products/software/UPDI4AVR-USB/src/usb.cpp:718
        if (bit_is_set(EP_CDI.STATUS, USB_BUSNAK_bp) && _send_count > 0) {
    2dd6:	80 91 76 64 	lds	r24, 0x6476	; 0x806476 <EP_TABLE+0x40>
    2dda:	81 ff       	sbrs	r24, 1
    2ddc:	05 c0       	rjmp	.+10     	; 0x2de8 <main+0x264>
    2dde:	80 91 32 64 	lds	r24, 0x6432	; 0x806432 <_send_count>
    2de2:	81 11       	cpse	r24, r1
/Users/askn/Documents/Zinnia-tools/Products/software/UPDI4AVR-USB/src/usb.cpp:719
          ep_cdi_listen();
    2de4:	0e 94 10 05 	call	0xa20	; 0xa20 <USB::ep_cdi_listen()>
/Users/askn/Documents/Zinnia-tools/Products/software/UPDI4AVR-USB/src/usb.cpp:724
        }
      }
    }
    if (bit_is_set(busstate, USB_SUSPEND_bp)
     || bit_is_set(busstate, USB_RESUME_bp)) {
    2de8:	8f 2d       	mov	r24, r15
    2dea:	80 76       	andi	r24, 0x60	; 96
    2dec:	29 f0       	breq	.+10     	; 0x2df8 <main+0x274>
/Users/askn/Documents/Zinnia-tools/Products/software/UPDI4AVR-USB/src/usb.cpp:727
      /* This implementation does not transition to power saving mode. */
      /* This is only passed when the USB cable is unplugged. */
      if (bit_is_set(GPCONF, GPCONF_USB_bp)) {
    2dee:	e0 99       	sbic	0x1c, 0	; 28
/Users/askn/Documents/Zinnia-tools/Products/software/UPDI4AVR-USB/src/usb.cpp:729
        /* System reboot */
        SYS::reboot();
    2df0:	0e 94 59 0e 	call	0x1cb2	; 0x1cb2 <SYS::reboot()>
/Users/askn/Documents/Zinnia-tools/Products/software/UPDI4AVR-USB/src/usb.cpp:731
      }
      bit_set(busstate, USB_RESET_bp);
    2df4:	68 94       	set
    2df6:	f4 f8       	bld	r15, 4
/Users/askn/Documents/Zinnia-tools/Products/software/UPDI4AVR-USB/src/usb.cpp:733
    }
    if (bit_is_set(busstate, USB_RESET_bp)) {
    2df8:	f4 fe       	sbrs	r15, 4
    2dfa:	0c c0       	rjmp	.+24     	; 0x2e14 <main+0x290>
setup_device():
/Users/askn/Documents/Zinnia-tools/Products/software/UPDI4AVR-USB/src/usb.cpp:235
    EP_MEM.cci_header.wLength       = 2;
    EP_MEM.cci_wValue               = _state;
  }

  void setup_device (bool _force) {
    if (_led_mode != 3) SYS::LED_Flash();
    2dfc:	80 91 85 60 	lds	r24, 0x6085	; 0x806085 <_led_mode>
    2e00:	83 30       	cpi	r24, 0x03	; 3
    2e02:	11 f0       	breq	.+4      	; 0x2e08 <main+0x284>
    2e04:	0e 94 8f 08 	call	0x111e	; 0x111e <SYS::LED_Flash()>
/Users/askn/Documents/Zinnia-tools/Products/software/UPDI4AVR-USB/src/usb.cpp:236
    USB0_ADDR = 0;
    2e08:	10 92 03 0c 	sts	0x0C03, r1	; 0x800c03 <__TEXT_REGION_LENGTH__+0x7f0c03>
/Users/askn/Documents/Zinnia-tools/Products/software/UPDI4AVR-USB/src/usb.cpp:237
    if (USB0_CTRLA || _force) {
    2e0c:	80 91 00 0c 	lds	r24, 0x0C00	; 0x800c00 <__TEXT_REGION_LENGTH__+0x7f0c00>
    2e10:	81 11       	cpse	r24, r1
    2e12:	cd cf       	rjmp	.-102    	; 0x2dae <main+0x22a>
is_ep_setup():
/Users/askn/Documents/Zinnia-tools/Products/software/UPDI4AVR-USB/src/usb.cpp:256
      set_cci_data(0x00);
      USB0_CTRLA = USB_ENABLE_bm | (USB_ENDPOINTS_MAX - 1);
    }
  }

  bool is_ep_setup (void) { return bit_is_set(EP_REQ.STATUS, USB_EPSETUP_bp); }
    2e14:	80 91 3e 64 	lds	r24, 0x643E	; 0x80643e <EP_TABLE+0x8>
main():
/Users/askn/Documents/Zinnia-tools/Products/software/UPDI4AVR-USB/src/main.cpp:121

    /*** USB control handling ***/
    USB::handling_bus_events();
    if (USB::is_ep_setup()) USB::handling_control_transactions();
    2e18:	84 ff       	sbrs	r24, 4
    2e1a:	4c c0       	rjmp	.+152    	; 0x2eb4 <main+0x330>
handling_control_transactions():
/Users/askn/Documents/Zinnia-tools/Products/software/UPDI4AVR-USB/src/usb.cpp:657
  /*** Accept the EP0 setup packet. ***/
  /* This process is equivalent to a endpoint interrupt. */
  /* The reason for using polling is to prioritize VCP performance. */
  void handling_control_transactions (void) {
    bool _listen = false;
    uint8_t bmRequestType = EP_MEM.req_data.bmRequestType;
    2e1c:	f0 90 16 63 	lds	r15, 0x6316	; 0x806316 <EP_MEM>
/Users/askn/Documents/Zinnia-tools/Products/software/UPDI4AVR-USB/src/usb.cpp:658
    D1PRINTF("RQ=%02X:%04X:%02X:%02X:%04X:%04X:%04X\r\n",
    2e20:	80 91 40 64 	lds	r24, 0x6440	; 0x806440 <EP_TABLE+0xa>
    2e24:	90 91 41 64 	lds	r25, 0x6441	; 0x806441 <EP_TABLE+0xb>
    2e28:	20 91 3e 64 	lds	r18, 0x643E	; 0x80643e <EP_TABLE+0x8>
    2e2c:	30 91 1d 63 	lds	r19, 0x631D	; 0x80631d <EP_MEM+0x7>
    2e30:	3f 93       	push	r19
    2e32:	30 91 1c 63 	lds	r19, 0x631C	; 0x80631c <EP_MEM+0x6>
    2e36:	3f 93       	push	r19
    2e38:	30 91 1b 63 	lds	r19, 0x631B	; 0x80631b <EP_MEM+0x5>
    2e3c:	3f 93       	push	r19
    2e3e:	30 91 1a 63 	lds	r19, 0x631A	; 0x80631a <EP_MEM+0x4>
    2e42:	3f 93       	push	r19
    2e44:	30 91 19 63 	lds	r19, 0x6319	; 0x806319 <EP_MEM+0x3>
    2e48:	3f 93       	push	r19
    2e4a:	30 91 18 63 	lds	r19, 0x6318	; 0x806318 <EP_MEM+0x2>
    2e4e:	3f 93       	push	r19
    2e50:	30 91 17 63 	lds	r19, 0x6317	; 0x806317 <EP_MEM+0x1>
    2e54:	1f 92       	push	r1
    2e56:	3f 93       	push	r19
    2e58:	1f 92       	push	r1
    2e5a:	ff 92       	push	r15
    2e5c:	9f 93       	push	r25
    2e5e:	8f 93       	push	r24
    2e60:	1f 92       	push	r1
    2e62:	2f 93       	push	r18
    2e64:	81 e7       	ldi	r24, 0x71	; 113
    2e66:	92 e0       	ldi	r25, 0x02	; 2
    2e68:	9f 93       	push	r25
    2e6a:	8f 93       	push	r24
    2e6c:	1f 93       	push	r17
    2e6e:	0f 93       	push	r16
    2e70:	0e 94 2e 0a 	call	0x145c	; 0x145c <Print::printf(PGM_t const*, ...) [clone .constprop.21]>
/Users/askn/Documents/Zinnia-tools/Products/software/UPDI4AVR-USB/src/usb.cpp:662
      EP_REQ.STATUS, EP_REQ.CNT, EP_MEM.req_data.bmRequestType, EP_MEM.req_data.bRequest,
      EP_MEM.req_data.wValue, EP_MEM.req_data.wIndex, EP_MEM.req_data.wLength);
    /* Accepts subsequent EP0_DATA packets as needed. */
    if (bit_is_clear(bmRequestType, 7)) ep_req_listen();
    2e74:	cd bf       	out	0x3d, r28	; 61
    2e76:	de bf       	out	0x3e, r29	; 62
    2e78:	f7 fe       	sbrs	r15, 7
    2e7a:	0e 94 62 05 	call	0xac4	; 0xac4 <USB::ep_req_listen()>
/Users/askn/Documents/Zinnia-tools/Products/software/UPDI4AVR-USB/src/usb.cpp:663
    bmRequestType &= (3 << 5);
    2e7e:	8f 2d       	mov	r24, r15
    2e80:	80 76       	andi	r24, 0x60	; 96
/Users/askn/Documents/Zinnia-tools/Products/software/UPDI4AVR-USB/src/usb.cpp:664
    if (bmRequestType == (0 << 5)) {
    2e82:	09 f0       	breq	.+2      	; 0x2e86 <main+0x302>
    2e84:	a8 c2       	rjmp	.+1360   	; 0x33d6 <main+0x852>
request_standard():
/Users/askn/Documents/Zinnia-tools/Products/software/UPDI4AVR-USB/src/usb.cpp:526
  }

  /*** USB Standard Request Enumeration. ***/
  bool request_standard (void) {
    bool _listen = true;
    uint8_t bRequest = EP_MEM.req_data.bRequest;
    2e86:	80 91 17 63 	lds	r24, 0x6317	; 0x806317 <EP_MEM+0x1>
/Users/askn/Documents/Zinnia-tools/Products/software/UPDI4AVR-USB/src/usb.cpp:527
    if (bRequest == 0x00) {       /* GET_STATUS */
    2e8a:	81 11       	cpse	r24, r1
    2e8c:	9b c0       	rjmp	.+310    	; 0x2fc4 <main+0x440>
/Users/askn/Documents/Zinnia-tools/Products/software/UPDI4AVR-USB/src/usb.cpp:528
      EP_MEM.res_data[0] = 0;
    2e8e:	10 92 1e 63 	sts	0x631E, r1	; 0x80631e <EP_MEM+0x8>
/Users/askn/Documents/Zinnia-tools/Products/software/UPDI4AVR-USB/src/usb.cpp:529
      EP_MEM.res_data[1] = 0;
    2e92:	10 92 1f 63 	sts	0x631F, r1	; 0x80631f <EP_MEM+0x9>
/Users/askn/Documents/Zinnia-tools/Products/software/UPDI4AVR-USB/src/usb.cpp:530
      EP_RES.CNT = 2;
    2e96:	82 e0       	ldi	r24, 0x02	; 2
    2e98:	90 e0       	ldi	r25, 0x00	; 0
    2e9a:	80 93 48 64 	sts	0x6448, r24	; 0x806448 <EP_TABLE+0x12>
    2e9e:	90 93 49 64 	sts	0x6449, r25	; 0x806449 <EP_TABLE+0x13>
handling_control_transactions():
/Users/askn/Documents/Zinnia-tools/Products/software/UPDI4AVR-USB/src/usb.cpp:676
    else if (bmRequestType == (2 << 5)) {
      _listen = request_vendor();
    }
  #endif
    if (_listen) {
      ep_res_listen();
    2ea2:	0e 94 56 05 	call	0xaac	; 0xaac <USB::ep_res_listen()>
/Users/askn/Documents/Zinnia-tools/Products/software/UPDI4AVR-USB/src/usb.cpp:677
      ep_req_listen();
    2ea6:	0e 94 62 05 	call	0xac4	; 0xac4 <USB::ep_req_listen()>
/Users/askn/Documents/Zinnia-tools/Products/software/UPDI4AVR-USB/src/usb.cpp:682
    }
    else {
      ep0_stalled();
    }
    USB0_INTFLAGSB |= USB_EPSETUP_bp;
    2eaa:	80 91 0b 0c 	lds	r24, 0x0C0B	; 0x800c0b <__TEXT_REGION_LENGTH__+0x7f0c0b>
    2eae:	84 60       	ori	r24, 0x04	; 4
    2eb0:	80 93 0b 0c 	sts	0x0C0B, r24	; 0x800c0b <__TEXT_REGION_LENGTH__+0x7f0c0b>
main():
/Users/askn/Documents/Zinnia-tools/Products/software/UPDI4AVR-USB/src/main.cpp:124

    /* If SW0 was used, work here. */
    if (bit_is_clear(PGCONF, PGCONF_UPDI_bp)) {
    2eb4:	e8 99       	sbic	0x1d, 0	; 29
    2eb6:	2d c0       	rjmp	.+90     	; 0x2f12 <main+0x38e>
/Users/askn/Documents/Zinnia-tools/Products/software/UPDI4AVR-USB/src/main.cpp:125
      if      (bit_is_set(GPCONF, GPCONF_FAL_bp)) SYS::reset_enter();
    2eb8:	e7 9b       	sbis	0x1c, 7	; 28
    2eba:	79 c3       	rjmp	.+1778   	; 0x35ae <main+0xa2a>
LED_TCB1():
/Users/askn/Documents/Zinnia-tools/Products/software/UPDI4AVR-USB/src/sys.cpp:198
      _led_mode = 1;
    }
  }

  void LED_TCB1 (uint8_t _mode, uint16_t _ccmp) {
    if (_led_mode != _mode) {
    2ebc:	80 91 85 60 	lds	r24, 0x6085	; 0x806085 <_led_mode>
    2ec0:	83 30       	cpi	r24, 0x03	; 3
    2ec2:	81 f0       	breq	.+32     	; 0x2ee4 <main+0x360>
/Users/askn/Documents/Zinnia-tools/Products/software/UPDI4AVR-USB/src/sys.cpp:199
      TCA0_SPLIT_CTRLA = 0;
    2ec4:	10 92 00 0a 	sts	0x0A00, r1	; 0x800a00 <__TEXT_REGION_LENGTH__+0x7f0a00>
/Users/askn/Documents/Zinnia-tools/Products/software/UPDI4AVR-USB/src/sys.cpp:200
      TCB1_CNTL = 0;
    2ec8:	10 92 1a 0b 	sts	0x0B1A, r1	; 0x800b1a <__TEXT_REGION_LENGTH__+0x7f0b1a>
/Users/askn/Documents/Zinnia-tools/Products/software/UPDI4AVR-USB/src/sys.cpp:201
      TCB1_CCMP = _ccmp;
    2ecc:	89 ea       	ldi	r24, 0xA9	; 169
    2ece:	95 e5       	ldi	r25, 0x55	; 85
    2ed0:	80 93 1c 0b 	sts	0x0B1C, r24	; 0x800b1c <__TEXT_REGION_LENGTH__+0x7f0b1c>
    2ed4:	90 93 1d 0b 	sts	0x0B1D, r25	; 0x800b1d <__TEXT_REGION_LENGTH__+0x7f0b1d>
/Users/askn/Documents/Zinnia-tools/Products/software/UPDI4AVR-USB/src/sys.cpp:202
      TCB1_CTRLA = TCB_RUNSTDBY_bm | TCB_ENABLE_bm | TCB_CLKSEL_EVENT_gc;
    2ed8:	8f e4       	ldi	r24, 0x4F	; 79
    2eda:	80 93 10 0b 	sts	0x0B10, r24	; 0x800b10 <__TEXT_REGION_LENGTH__+0x7f0b10>
/Users/askn/Documents/Zinnia-tools/Products/software/UPDI4AVR-USB/src/sys.cpp:203
      _led_mode = _mode;
    2ede:	83 e0       	ldi	r24, 0x03	; 3
    2ee0:	80 93 85 60 	sts	0x6085, r24	; 0x806085 <_led_mode>
reset_enter():
/Users/askn/Documents/Zinnia-tools/Products/software/UPDI4AVR-USB/src/sys.cpp:256
   * Executed when SW0 is detected as being pressed.
   * May be called multiple times due to chattering.
   */
  void reset_enter (void) {
    LED_Blink();
    if (_jtag_arch == 5) {
    2ee4:	80 91 98 60 	lds	r24, 0x6098	; 0x806098 <_jtag_arch>
    2ee8:	85 30       	cpi	r24, 0x05	; 5
    2eea:	29 f4       	brne	.+10     	; 0x2ef6 <main+0x372>
/Users/askn/Documents/Zinnia-tools/Products/software/UPDI4AVR-USB/src/sys.cpp:262
      /* 
       * Puts a tinyAVR-0 which does not have a reset pad into reset state.
       * This applies to all chips which have an enabled UPDI pad.
       * Does not affect TPI/PDI types.
       */
      _updi_bitmap[10] = 0x59; /* SYSRST */
    2eec:	89 e5       	ldi	r24, 0x59	; 89
    2eee:	80 93 24 60 	sts	0x6024, r24	; 0x806024 <SYS::_updi_bitmap+0xa>
/Users/askn/Documents/Zinnia-tools/Products/software/UPDI4AVR-USB/src/sys.cpp:263
      send_bitmap(_updi_bitmap, sizeof(_updi_bitmap) * 8);
    2ef2:	0e 94 b7 04 	call	0x96e	; 0x96e <SYS::send_bitmap(unsigned char const*, unsigned int) [clone .constprop.9]>
/Users/askn/Documents/Zinnia-tools/Products/software/UPDI4AVR-USB/src/sys.cpp:265
    }
    openDrainWriteMacro(PIN_PG_TRST, LOW);
    2ef6:	01 9a       	sbi	0x00, 1	; 0
/Users/askn/Documents/Zinnia-tools/Products/software/UPDI4AVR-USB/src/sys.cpp:266
    D1PRINTF("<RST:IN>\r\n");
    2ef8:	89 e9       	ldi	r24, 0x99	; 153
    2efa:	92 e0       	ldi	r25, 0x02	; 2
    2efc:	9f 93       	push	r25
    2efe:	8f 93       	push	r24
    2f00:	1f 93       	push	r17
    2f02:	0f 93       	push	r16
    2f04:	0e 94 2e 0a 	call	0x145c	; 0x145c <Print::printf(PGM_t const*, ...) [clone .constprop.21]>
/Users/askn/Documents/Zinnia-tools/Products/software/UPDI4AVR-USB/src/sys.cpp:267
    bit_clear(GPCONF, GPCONF_FAL_bp);
    2f08:	e7 98       	cbi	0x1c, 7	; 28
    2f0a:	0f 90       	pop	r0
    2f0c:	0f 90       	pop	r0
    2f0e:	0f 90       	pop	r0
    2f10:	0f 90       	pop	r0
main():
/Users/askn/Documents/Zinnia-tools/Products/software/UPDI4AVR-USB/src/main.cpp:130
      else if (bit_is_set(GPCONF, GPCONF_RIS_bp)) SYS::reset_leave();
    }

    /* If the USB port is not open, go back to the loop beginning. */
    if (bit_is_clear(GPCONF, GPCONF_USB_bp)) continue;
    2f12:	e0 9b       	sbis	0x1c, 0	; 28
    2f14:	37 cf       	rjmp	.-402    	; 0x2d84 <main+0x200>
/Users/askn/Documents/Zinnia-tools/Products/software/UPDI4AVR-USB/src/main.cpp:140
    /* character arrives every 400 clocks on a 20MHz reference. */
    /* So we avoid using interrupts here and use polling to gain speed. */
  #if defined(CONFIG_VCP_9BIT_SUPPORT)
    if (bit_is_set(GPCONF, GPCONF_VCP_bp)) usart_transmitter();
  #else
    if (bit_is_set(GPCONF, GPCONF_VCP_bp)) USB::vcp_transceiver();
    2f16:	e1 9b       	sbis	0x1c, 1	; 28
    2f18:	9a c3       	rjmp	.+1844   	; 0x364e <main+0xaca>
vcp_transceiver():
/Users/askn/Documents/Zinnia-tools/Products/software/UPDI4AVR-USB/src/usb.cpp:502
    if (bit_is_clear(GPCONF, GPCONF_BRK_bp)
  #if defined(CONFIG_VCP_CTS_ENABLE)
     && !digitalReadMacro(PIN_VCP_CTS)
  #endif
     && bit_is_set(USART0_STATUS, USART_DREIF_bp)
     && read_available()) {
    2f1a:	e3 99       	sbic	0x1c, 3	; 28
    2f1c:	14 c0       	rjmp	.+40     	; 0x2f46 <main+0x3c2>
/Users/askn/Documents/Zinnia-tools/Products/software/UPDI4AVR-USB/src/usb.cpp:501
  void vcp_transceiver (void) {
    if (bit_is_clear(GPCONF, GPCONF_BRK_bp)
  #if defined(CONFIG_VCP_CTS_ENABLE)
     && !digitalReadMacro(PIN_VCP_CTS)
  #endif
     && bit_is_set(USART0_STATUS, USART_DREIF_bp)
    2f1e:	80 91 04 08 	lds	r24, 0x0804	; 0x800804 <__TEXT_REGION_LENGTH__+0x7f0804>
    2f22:	85 ff       	sbrs	r24, 5
    2f24:	10 c0       	rjmp	.+32     	; 0x2f46 <main+0x3c2>
read_available():
/Users/askn/Documents/Zinnia-tools/Products/software/UPDI4AVR-USB/src/usb.cpp:458
    return _c;
  }

  bool read_available (void) {
    uint8_t _s = 0;
    if (bit_is_set(EP_CDO.STATUS, USB_BUSNAK_bp) && bit_is_set(GPCONF, GPCONF_VCP_bp)) {
    2f26:	80 91 6e 64 	lds	r24, 0x646E	; 0x80646e <EP_TABLE+0x38>
    2f2a:	81 ff       	sbrs	r24, 1
    2f2c:	0c c0       	rjmp	.+24     	; 0x2f46 <main+0x3c2>
    2f2e:	e1 9b       	sbis	0x1c, 1	; 28
    2f30:	0a c0       	rjmp	.+20     	; 0x2f46 <main+0x3c2>
/Users/askn/Documents/Zinnia-tools/Products/software/UPDI4AVR-USB/src/usb.cpp:459
      _s = EP_CDO.CNT - _recv_count;
    2f32:	20 91 70 64 	lds	r18, 0x6470	; 0x806470 <EP_TABLE+0x3a>
    2f36:	30 91 71 64 	lds	r19, 0x6471	; 0x806471 <EP_TABLE+0x3b>
    2f3a:	80 91 31 64 	lds	r24, 0x6431	; 0x806431 <_recv_count>
/Users/askn/Documents/Zinnia-tools/Products/software/UPDI4AVR-USB/src/usb.cpp:460
      if (_s == 0) ep_cdo_listen();
    2f3e:	82 13       	cpse	r24, r18
    2f40:	67 c3       	rjmp	.+1742   	; 0x3610 <main+0xa8c>
    2f42:	0e 94 ff 04 	call	0x9fe	; 0x9fe <USB::ep_cdo_listen()>
main():
/Users/askn/Documents/Zinnia-tools/Products/software/UPDI4AVR-USB/src/main.cpp:145
  #endif
    else USB::read_drop();

    /*** If the break value is between 1 and 65534, it will count down. ***/
    if (bit_is_set(GPCONF, GPCONF_BRK_bp)) USB::cci_break_count();
    2f46:	e3 9b       	sbis	0x1c, 3	; 28
    2f48:	18 c0       	rjmp	.+48     	; 0x2f7a <main+0x3f6>
cci_break_count():
/Users/askn/Documents/Zinnia-tools/Products/software/UPDI4AVR-USB/src/usb.cpp:397
    bit_clear(GPCONF, GPCONF_BRK_bp);
  }

  void cci_break_count (void) {
    /* If the break value is between 1 and 65534, it will count down. */
    if ((_send_break + 1) > 1) {
    2f4a:	80 91 33 64 	lds	r24, 0x6433	; 0x806433 <_send_break>
    2f4e:	90 91 34 64 	lds	r25, 0x6434	; 0x806434 <_send_break+0x1>
    2f52:	9c 01       	movw	r18, r24
    2f54:	2f 5f       	subi	r18, 0xFF	; 255
    2f56:	3f 4f       	sbci	r19, 0xFF	; 255
    2f58:	22 30       	cpi	r18, 0x02	; 2
    2f5a:	31 05       	cpc	r19, r1
    2f5c:	70 f0       	brcs	.+28     	; 0x2f7a <main+0x3f6>
/Users/askn/Documents/Zinnia-tools/Products/software/UPDI4AVR-USB/src/usb.cpp:398
      if (_send_break > USB_CCI_INTERVAL) {
    2f5e:	85 30       	cpi	r24, 0x05	; 5
    2f60:	91 05       	cpc	r25, r1
    2f62:	08 f4       	brcc	.+2      	; 0x2f66 <main+0x3e2>
    2f64:	79 c3       	rjmp	.+1778   	; 0x3658 <main+0xad4>
/Users/askn/Documents/Zinnia-tools/Products/software/UPDI4AVR-USB/src/usb.cpp:399
        _send_break -= USB_CCI_INTERVAL;
    2f66:	04 97       	sbiw	r24, 0x04	; 4
    2f68:	80 93 33 64 	sts	0x6433, r24	; 0x806433 <_send_break>
    2f6c:	90 93 34 64 	sts	0x6434, r25	; 0x806434 <_send_break+0x1>
/Users/askn/Documents/Zinnia-tools/Products/software/UPDI4AVR-USB/src/usb.cpp:400
        if (bit_is_set(EP_CCI.STATUS, USB_BUSNAK_bp))
    2f70:	80 91 66 64 	lds	r24, 0x6466	; 0x806466 <EP_TABLE+0x30>
    2f74:	81 fd       	sbrc	r24, 1
/Users/askn/Documents/Zinnia-tools/Products/software/UPDI4AVR-USB/src/usb.cpp:401
          ep_cci_listen();
    2f76:	0e 94 44 05 	call	0xa88	; 0xa88 <USB::ep_cci_listen()>
is_not_dap():
/Users/askn/Documents/Zinnia-tools/Products/software/UPDI4AVR-USB/src/usb.cpp:257
      USB0_CTRLA = USB_ENABLE_bm | (USB_ENDPOINTS_MAX - 1);
    }
  }

  bool is_ep_setup (void) { return bit_is_set(EP_REQ.STATUS, USB_EPSETUP_bp); }
  bool is_not_dap (void) { return bit_is_clear(EP_DPO.STATUS, USB_BUSNAK_bp); }
    2f7a:	80 91 5e 64 	lds	r24, 0x645E	; 0x80645e <EP_TABLE+0x28>
main():
/Users/askn/Documents/Zinnia-tools/Products/software/UPDI4AVR-USB/src/main.cpp:148

    /*** If CMSIS-DAP is not received, return to the top. ***/
    if (USB::is_not_dap()) continue;
    2f7e:	81 ff       	sbrs	r24, 1
    2f80:	fe ce       	rjmp	.-516    	; 0x2d7e <main+0x1fa>
dap_command_check():
/Users/askn/Documents/Zinnia-tools/Products/software/UPDI4AVR-USB/src/jtag.cpp:52
   * Command numbers 0x80 and above are vendor extensions, EDBG Payload uses 0x80 and x81.
   * Additionally, 0x82 is reserved for device event notification.
   */
  bool dap_command_check (void) {
    bool _result = false;
    uint8_t _cmd = EP_MEM.dap_data[0];
    2f82:	90 91 2e 63 	lds	r25, 0x632E	; 0x80632e <EP_MEM+0x18>
/Users/askn/Documents/Zinnia-tools/Products/software/UPDI4AVR-USB/src/jtag.cpp:53
    uint8_t _sub = EP_MEM.dap_data[1];
    2f86:	80 91 2f 63 	lds	r24, 0x632F	; 0x80632f <EP_MEM+0x19>
ep_dpi_pending():
/Users/askn/Documents/Zinnia-tools/Products/software/UPDI4AVR-USB/src/usb.cpp:260
  void ep_req_pending (void) { loop_until_bit_is_set(EP_REQ.STATUS, USB_BUSNAK_bp); }
  void ep_res_pending (void) { loop_until_bit_is_set(EP_RES.STATUS, USB_BUSNAK_bp); }
  void ep_dpi_pending (void) { loop_until_bit_is_set(EP_DPI.STATUS, USB_BUSNAK_bp); }
    2f8a:	20 91 56 64 	lds	r18, 0x6456	; 0x806456 <EP_TABLE+0x20>
    2f8e:	21 ff       	sbrs	r18, 1
    2f90:	fc cf       	rjmp	.-8      	; 0x2f8a <main+0x406>
dap_command_check():
/Users/askn/Documents/Zinnia-tools/Products/software/UPDI4AVR-USB/src/jtag.cpp:65
     * and the data is sent and received with a fixed length of 64 bytes,
     * determined by the value specified in the HID Report.
     * A maximum of 15 chunks is possible,
     * resulting in a maximum payload length of 900 bytes.
     */
    if (_cmd == 0x80) {             /* DAP_EDBG_VENDOR_AVR_CMD */
    2f92:	90 38       	cpi	r25, 0x80	; 128
    2f94:	09 f0       	breq	.+2      	; 0x2f98 <main+0x414>
    2f96:	3a c4       	rjmp	.+2164   	; 0x380c <main+0xc88>
/Users/askn/Documents/Zinnia-tools/Products/software/UPDI4AVR-USB/src/jtag.cpp:66
      uint8_t _endf = _sub & 0x0F;
    2f98:	f8 2f       	mov	r31, r24
    2f9a:	ff 70       	andi	r31, 0x0F	; 15
    2f9c:	6f 2e       	mov	r6, r31
/Users/askn/Documents/Zinnia-tools/Products/software/UPDI4AVR-USB/src/jtag.cpp:70
      uint8_t _frag = _sub >> 4;
      uint8_t _size = EP_MEM.dap_data[3];
      size_t  _ofst = (_frag - 1) * 60;
      if (_endf >= 10) {
    2f9e:	29 e0       	ldi	r18, 0x09	; 9
    2fa0:	2f 17       	cp	r18, r31
    2fa2:	08 f0       	brcs	.+2      	; 0x2fa6 <main+0x422>
    2fa4:	60 c3       	rjmp	.+1728   	; 0x3666 <main+0xae2>
/Users/askn/Documents/Zinnia-tools/Products/software/UPDI4AVR-USB/src/jtag.cpp:72
        /* Only a maximum of 540 bytes : 9 fragment records is accepted. */
        D1PRINTF("<EDBG_FAIL>\r\n");
    2fa6:	8d ec       	ldi	r24, 0xCD	; 205
    2fa8:	92 e0       	ldi	r25, 0x02	; 2
/Users/askn/Documents/Zinnia-tools/Products/software/UPDI4AVR-USB/src/jtag.cpp:94
            _packet_endfrag = 0;
            _result = true;
          }
          else {
            /* A missing chunk is detected, so an error is returned. */
            D1PRINTF("<EDBG_FAIL>\r\n");
    2faa:	9f 93       	push	r25
    2fac:	8f 93       	push	r24
    2fae:	1f 93       	push	r17
    2fb0:	0f 93       	push	r16
    2fb2:	0e 94 2e 0a 	call	0x145c	; 0x145c <Print::printf(PGM_t const*, ...) [clone .constprop.21]>
/Users/askn/Documents/Zinnia-tools/Products/software/UPDI4AVR-USB/src/jtag.cpp:95
            EP_MEM.dap_data[1] = 0x00;  /* EDBG_RSP_FAIL */
    2fb6:	10 92 2f 63 	sts	0x632F, r1	; 0x80632f <EP_MEM+0x19>
/Users/askn/Documents/Zinnia-tools/Products/software/UPDI4AVR-USB/src/jtag.cpp:105
    else if (_cmd == 0x81) {        /* DAP_EDBG_VENDOR_AVR_RSP */
      EP_MEM.dap_data[2] = 0;       /* Always zero */
      if (_packet_endfrag == 0) {
        D1PRINTF("<EDBG_EMPTY>\r\n");
        EP_MEM.dap_data[1] = 0;
        EP_MEM.dap_data[3] = 0;
    2fba:	0f 90       	pop	r0
    2fbc:	0f 90       	pop	r0
    2fbe:	0f 90       	pop	r0
    2fc0:	0f 90       	pop	r0
    2fc2:	79 c3       	rjmp	.+1778   	; 0x36b6 <main+0xb32>
request_standard():
/Users/askn/Documents/Zinnia-tools/Products/software/UPDI4AVR-USB/src/usb.cpp:532
    if (bRequest == 0x00) {       /* GET_STATUS */
      EP_MEM.res_data[0] = 0;
      EP_MEM.res_data[1] = 0;
      EP_RES.CNT = 2;
    }
    else if (bRequest == 0x01) {  /* CLEAR_FEATURE */
    2fc4:	81 30       	cpi	r24, 0x01	; 1
    2fc6:	79 f5       	brne	.+94     	; 0x3026 <main+0x4a2>
/Users/askn/Documents/Zinnia-tools/Products/software/UPDI4AVR-USB/src/usb.cpp:533
      D1PRINTF(" CF=%02X:%02X\r\n", EP_MEM.req_data.wValue, EP_MEM.req_data.wIndex);
    2fc8:	80 91 1b 63 	lds	r24, 0x631B	; 0x80631b <EP_MEM+0x5>
    2fcc:	8f 93       	push	r24
    2fce:	80 91 1a 63 	lds	r24, 0x631A	; 0x80631a <EP_MEM+0x4>
    2fd2:	8f 93       	push	r24
    2fd4:	80 91 19 63 	lds	r24, 0x6319	; 0x806319 <EP_MEM+0x3>
    2fd8:	8f 93       	push	r24
    2fda:	80 91 18 63 	lds	r24, 0x6318	; 0x806318 <EP_MEM+0x2>
    2fde:	8f 93       	push	r24
    2fe0:	86 e2       	ldi	r24, 0x26	; 38
    2fe2:	92 e0       	ldi	r25, 0x02	; 2
    2fe4:	9f 93       	push	r25
    2fe6:	8f 93       	push	r24
    2fe8:	1f 93       	push	r17
    2fea:	0f 93       	push	r16
    2fec:	0e 94 2e 0a 	call	0x145c	; 0x145c <Print::printf(PGM_t const*, ...) [clone .constprop.21]>
/Users/askn/Documents/Zinnia-tools/Products/software/UPDI4AVR-USB/src/usb.cpp:534
      if (0 == (uint8_t)EP_MEM.req_data.wValue) {
    2ff0:	cd bf       	out	0x3d, r28	; 61
    2ff2:	de bf       	out	0x3e, r29	; 62
    2ff4:	80 91 18 63 	lds	r24, 0x6318	; 0x806318 <EP_MEM+0x2>
    2ff8:	81 11       	cpse	r24, r1
    2ffa:	10 c0       	rjmp	.+32     	; 0x301c <main+0x498>
/Users/askn/Documents/Zinnia-tools/Products/software/UPDI4AVR-USB/src/usb.cpp:537
        /* Expects an endpoint number to be passed in. Swaps the high and low */
        /* nibbles to make it a representation of the USB controller. */
        uint8_t _EP = USB_EP_ID_SWAP(EP_MEM.req_data.wIndex);
    2ffc:	e0 91 1a 63 	lds	r30, 0x631A	; 0x80631a <EP_MEM+0x4>
    3000:	e2 95       	swap	r30
/Users/askn/Documents/Zinnia-tools/Products/software/UPDI4AVR-USB/src/usb.cpp:538
        loop_until_bit_is_clear(USB0_INTFLAGSB, USB_RMWBUSY_bp);
    3002:	80 91 0b 0c 	lds	r24, 0x0C0B	; 0x800c0b <__TEXT_REGION_LENGTH__+0x7f0c0b>
    3006:	82 fd       	sbrc	r24, 2
    3008:	fc cf       	rjmp	.-8      	; 0x3002 <main+0x47e>
/Users/askn/Documents/Zinnia-tools/Products/software/UPDI4AVR-USB/src/usb.cpp:539
        USB_EP_STATUS_CLR(_EP) = USB_STALLED_bm | USB_BUSNAK_bm | USB_TOGGLE_bm;
    300a:	f0 e0       	ldi	r31, 0x00	; 0
    300c:	f5 95       	asr	r31
    300e:	e7 95       	ror	r30
    3010:	f5 95       	asr	r31
    3012:	e7 95       	ror	r30
    3014:	e0 5c       	subi	r30, 0xC0	; 192
    3016:	f3 4f       	sbci	r31, 0xF3	; 243
    3018:	8b e0       	ldi	r24, 0x0B	; 11
    301a:	80 83       	st	Z, r24
request_class():
/Users/askn/Documents/Zinnia-tools/Products/software/UPDI4AVR-USB/src/usb.cpp:644
      /* Nothing else is used unless programmed by the application. */
      D1PRINTF(" SB=%04X\r\n", EP_MEM.req_data.wValue);
      _send_break = EP_MEM.req_data.wValue;
      if (_send_break) break_on();
      else break_off();
      EP_RES.CNT = 0;
    301c:	10 92 48 64 	sts	0x6448, r1	; 0x806448 <EP_TABLE+0x12>
    3020:	10 92 49 64 	sts	0x6449, r1	; 0x806449 <EP_TABLE+0x13>
    3024:	3e cf       	rjmp	.-388    	; 0x2ea2 <main+0x31e>
request_standard():
/Users/askn/Documents/Zinnia-tools/Products/software/UPDI4AVR-USB/src/usb.cpp:543
        loop_until_bit_is_clear(USB0_INTFLAGSB, USB_RMWBUSY_bp);
        USB_EP_STATUS_CLR(_EP) = USB_STALLED_bm | USB_BUSNAK_bm | USB_TOGGLE_bm;
      }
      EP_RES.CNT = 0;
    }
    else if (bRequest == 0x04) {  /* SET_FEATURE */
    3026:	84 30       	cpi	r24, 0x04	; 4
    3028:	d9 f4       	brne	.+54     	; 0x3060 <main+0x4dc>
/Users/askn/Documents/Zinnia-tools/Products/software/UPDI4AVR-USB/src/usb.cpp:545
      /* If used, it will be ignored. */
      D1PRINTF(" SF=%02X:%02X\r\n", EP_MEM.req_data.wValue, EP_MEM.req_data.wIndex);
    302a:	80 91 1b 63 	lds	r24, 0x631B	; 0x80631b <EP_MEM+0x5>
    302e:	8f 93       	push	r24
    3030:	80 91 1a 63 	lds	r24, 0x631A	; 0x80631a <EP_MEM+0x4>
    3034:	8f 93       	push	r24
    3036:	80 91 19 63 	lds	r24, 0x6319	; 0x806319 <EP_MEM+0x3>
    303a:	8f 93       	push	r24
    303c:	80 91 18 63 	lds	r24, 0x6318	; 0x806318 <EP_MEM+0x2>
    3040:	8f 93       	push	r24
    3042:	86 e1       	ldi	r24, 0x16	; 22
    3044:	92 e0       	ldi	r25, 0x02	; 2
    3046:	9f 93       	push	r25
    3048:	8f 93       	push	r24
    304a:	1f 93       	push	r17
    304c:	0f 93       	push	r16
    304e:	0e 94 2e 0a 	call	0x145c	; 0x145c <Print::printf(PGM_t const*, ...) [clone .constprop.21]>
/Users/askn/Documents/Zinnia-tools/Products/software/UPDI4AVR-USB/src/usb.cpp:546
      EP_RES.CNT = 0;
    3052:	10 92 48 64 	sts	0x6448, r1	; 0x806448 <EP_TABLE+0x12>
    3056:	10 92 49 64 	sts	0x6449, r1	; 0x806449 <EP_TABLE+0x13>
    305a:	cd bf       	out	0x3d, r28	; 61
    305c:	de bf       	out	0x3e, r29	; 62
    305e:	21 cf       	rjmp	.-446    	; 0x2ea2 <main+0x31e>
/Users/askn/Documents/Zinnia-tools/Products/software/UPDI4AVR-USB/src/usb.cpp:548
    }
    else if (bRequest == 0x05) {  /* SET_ADDRESS */
    3060:	85 30       	cpi	r24, 0x05	; 5
    3062:	e1 f4       	brne	.+56     	; 0x309c <main+0x518>
/Users/askn/Documents/Zinnia-tools/Products/software/UPDI4AVR-USB/src/usb.cpp:549
      uint8_t _addr = EP_MEM.req_data.wValue & 0x7F;
    3064:	80 91 18 63 	lds	r24, 0x6318	; 0x806318 <EP_MEM+0x2>
    3068:	f8 2e       	mov	r15, r24
    306a:	e8 94       	clt
    306c:	f7 f8       	bld	r15, 7
/Users/askn/Documents/Zinnia-tools/Products/software/UPDI4AVR-USB/src/usb.cpp:550
      ep_res_listen();
    306e:	0e 94 56 05 	call	0xaac	; 0xaac <USB::ep_res_listen()>
ep_res_pending():
/Users/askn/Documents/Zinnia-tools/Products/software/UPDI4AVR-USB/src/usb.cpp:259
  }

  bool is_ep_setup (void) { return bit_is_set(EP_REQ.STATUS, USB_EPSETUP_bp); }
  bool is_not_dap (void) { return bit_is_clear(EP_DPO.STATUS, USB_BUSNAK_bp); }
  void ep_req_pending (void) { loop_until_bit_is_set(EP_REQ.STATUS, USB_BUSNAK_bp); }
  void ep_res_pending (void) { loop_until_bit_is_set(EP_RES.STATUS, USB_BUSNAK_bp); }
    3072:	80 91 46 64 	lds	r24, 0x6446	; 0x806446 <EP_TABLE+0x10>
    3076:	81 ff       	sbrs	r24, 1
    3078:	fc cf       	rjmp	.-8      	; 0x3072 <main+0x4ee>
request_standard():
/Users/askn/Documents/Zinnia-tools/Products/software/UPDI4AVR-USB/src/usb.cpp:552
    }
    else if (bRequest == 0x05) {  /* SET_ADDRESS */
      uint8_t _addr = EP_MEM.req_data.wValue & 0x7F;
      ep_res_listen();
      ep_res_pending();
      USB0_ADDR = _addr;
    307a:	f0 92 03 0c 	sts	0x0C03, r15	; 0x800c03 <__TEXT_REGION_LENGTH__+0x7f0c03>
/Users/askn/Documents/Zinnia-tools/Products/software/UPDI4AVR-USB/src/usb.cpp:553
      D1PRINTF(" USB0_ADDR=%d\r\n", _addr);
    307e:	1f 92       	push	r1
    3080:	ff 92       	push	r15
    3082:	86 e0       	ldi	r24, 0x06	; 6
    3084:	92 e0       	ldi	r25, 0x02	; 2
/Users/askn/Documents/Zinnia-tools/Products/software/UPDI4AVR-USB/src/usb.cpp:572
    else if (bRequest == 0x09) {  /* SET_CONFIGURATION */
      /* Once the USB connection is fully initiated, it will go through here. */
      _set_config = (uint8_t)EP_MEM.req_data.wValue;
      bit_set(GPCONF, GPCONF_USB_bp);
      SYS::LED_HeartBeat();
      D1PRINTF("<SC:%02X>\r\n", _set_config);
    3086:	9f 93       	push	r25
/Users/askn/Documents/Zinnia-tools/Products/software/UPDI4AVR-USB/src/usb.cpp:583
      EP_MEM.res_data[0] = 0;
      EP_RES.CNT = 1;
    }
    else if (bRequest == 0x0B) {  /* SET_INTREFACE */
      /* It seems not to be used. */
      D1PRINTF("<GI:%02X>\r\n", EP_MEM.req_data.wValue);
    3088:	8f 93       	push	r24
    308a:	1f 93       	push	r17
    308c:	0f 93       	push	r16
    308e:	0e 94 2e 0a 	call	0x145c	; 0x145c <Print::printf(PGM_t const*, ...) [clone .constprop.21]>
/Users/askn/Documents/Zinnia-tools/Products/software/UPDI4AVR-USB/src/usb.cpp:584
      EP_RES.CNT = 0;
    3092:	10 92 48 64 	sts	0x6448, r1	; 0x806448 <EP_TABLE+0x12>
    3096:	10 92 49 64 	sts	0x6449, r1	; 0x806449 <EP_TABLE+0x13>
    309a:	64 c1       	rjmp	.+712    	; 0x3364 <main+0x7e0>
/Users/askn/Documents/Zinnia-tools/Products/software/UPDI4AVR-USB/src/usb.cpp:556
      ep_res_pending();
      USB0_ADDR = _addr;
      D1PRINTF(" USB0_ADDR=%d\r\n", _addr);
      EP_RES.CNT = 0;
    }
    else if (bRequest == 0x06) {  /* GET_DESCRIPTOR */
    309c:	86 30       	cpi	r24, 0x06	; 6
    309e:	09 f0       	breq	.+2      	; 0x30a2 <main+0x51e>
    30a0:	4d c1       	rjmp	.+666    	; 0x333c <main+0x7b8>
/Users/askn/Documents/Zinnia-tools/Products/software/UPDI4AVR-USB/src/usb.cpp:557
      size_t _length = EP_MEM.req_data.wLength;
    30a2:	40 90 1c 63 	lds	r4, 0x631C	; 0x80631c <EP_MEM+0x6>
    30a6:	f0 91 1d 63 	lds	r31, 0x631D	; 0x80631d <EP_MEM+0x7>
    30aa:	fd 83       	std	Y+5, r31	; 0x05
/Users/askn/Documents/Zinnia-tools/Products/software/UPDI4AVR-USB/src/usb.cpp:558
      size_t _size = get_descriptor((uint8_t*)&EP_MEM.res_data, EP_MEM.req_data.wValue);
    30ac:	80 91 18 63 	lds	r24, 0x6318	; 0x806318 <EP_MEM+0x2>
    30b0:	90 91 19 63 	lds	r25, 0x6319	; 0x806319 <EP_MEM+0x3>
get_descriptor():
/Users/askn/Documents/Zinnia-tools/Products/software/UPDI4AVR-USB/src/usb.cpp:154

  size_t get_descriptor (uint8_t* _buffer, uint16_t _index) {
    uint8_t* _pgmem = 0;
    size_t   _size = 0;
    uint8_t  _type = _index >> 8;
    if (_type == 0x01) {          /* DEVICE */
    30b4:	91 30       	cpi	r25, 0x01	; 1
    30b6:	09 f0       	breq	.+2      	; 0x30ba <main+0x536>
    30b8:	61 c0       	rjmp	.+194    	; 0x317c <main+0x5f8>
/Users/askn/Documents/Zinnia-tools/Products/software/UPDI4AVR-USB/src/usb.cpp:157
      _pgmem = (uint8_t*)&device_descriptor;
      _size = sizeof(device_descriptor);
      memcpy_P(_buffer, _pgmem, _size);
    30ba:	42 e1       	ldi	r20, 0x12	; 18
    30bc:	50 e0       	ldi	r21, 0x00	; 0
    30be:	67 ec       	ldi	r22, 0xC7	; 199
    30c0:	71 e0       	ldi	r23, 0x01	; 1
    30c2:	8e e1       	ldi	r24, 0x1E	; 30
    30c4:	93 e6       	ldi	r25, 0x63	; 99
    30c6:	0e 94 b7 21 	call	0x436e	; 0x436e <memcpy_P>
/Users/askn/Documents/Zinnia-tools/Products/software/UPDI4AVR-USB/src/usb.cpp:158
      uint32_t _vidpid = *((uint32_t*)EEPROM_START);
    30ca:	80 91 00 14 	lds	r24, 0x1400	; 0x801400 <__TEXT_REGION_LENGTH__+0x7f1400>
    30ce:	90 91 01 14 	lds	r25, 0x1401	; 0x801401 <__TEXT_REGION_LENGTH__+0x7f1401>
    30d2:	a0 91 02 14 	lds	r26, 0x1402	; 0x801402 <__TEXT_REGION_LENGTH__+0x7f1402>
    30d6:	b0 91 03 14 	lds	r27, 0x1403	; 0x801403 <__TEXT_REGION_LENGTH__+0x7f1403>
/Users/askn/Documents/Zinnia-tools/Products/software/UPDI4AVR-USB/src/usb.cpp:159
      if (_vidpid + 1) _CAPS32(_buffer[8])->dword = _vidpid;
    30da:	8f 3f       	cpi	r24, 0xFF	; 255
    30dc:	2f ef       	ldi	r18, 0xFF	; 255
    30de:	92 07       	cpc	r25, r18
    30e0:	a2 07       	cpc	r26, r18
    30e2:	b2 07       	cpc	r27, r18
    30e4:	41 f0       	breq	.+16     	; 0x30f6 <main+0x572>
    30e6:	80 93 26 63 	sts	0x6326, r24	; 0x806326 <EP_MEM+0x10>
    30ea:	90 93 27 63 	sts	0x6327, r25	; 0x806327 <EP_MEM+0x11>
    30ee:	a0 93 28 63 	sts	0x6328, r26	; 0x806328 <EP_MEM+0x12>
    30f2:	b0 93 29 63 	sts	0x6329, r27	; 0x806329 <EP_MEM+0x13>
/Users/askn/Documents/Zinnia-tools/Products/software/UPDI4AVR-USB/src/usb.cpp:160
      D1PRINTF(" VID:PID=%04X:%04X\r\n", _CAPS16(_buffer[8])->word, _CAPS16(_buffer[10])->word);
    30f6:	80 91 29 63 	lds	r24, 0x6329	; 0x806329 <EP_MEM+0x13>
    30fa:	8f 93       	push	r24
    30fc:	80 91 28 63 	lds	r24, 0x6328	; 0x806328 <EP_MEM+0x12>
    3100:	8f 93       	push	r24
    3102:	80 91 27 63 	lds	r24, 0x6327	; 0x806327 <EP_MEM+0x11>
    3106:	8f 93       	push	r24
    3108:	80 91 26 63 	lds	r24, 0x6326	; 0x806326 <EP_MEM+0x10>
    310c:	8f 93       	push	r24
    310e:	82 eb       	ldi	r24, 0xB2	; 178
    3110:	91 e0       	ldi	r25, 0x01	; 1
    3112:	9f 93       	push	r25
    3114:	8f 93       	push	r24
    3116:	1f 93       	push	r17
    3118:	0f 93       	push	r16
    311a:	0e 94 2e 0a 	call	0x145c	; 0x145c <Print::printf(PGM_t const*, ...) [clone .constprop.21]>
    311e:	cd bf       	out	0x3d, r28	; 61
    3120:	de bf       	out	0x3e, r29	; 62
main():
/Users/askn/Documents/Zinnia-tools/Products/software/UPDI4AVR-USB/src/usb.cpp:161
      return _size;
    3122:	82 e1       	ldi	r24, 0x12	; 18
    3124:	e8 2e       	mov	r14, r24
    3126:	f1 2c       	mov	r15, r1
    3128:	84 2d       	mov	r24, r4
    312a:	9d 81       	ldd	r25, Y+5	; 0x05
    312c:	e8 16       	cp	r14, r24
    312e:	f9 06       	cpc	r15, r25
    3130:	08 f4       	brcc	.+2      	; 0x3134 <main+0x5b0>
    3132:	c7 01       	movw	r24, r14
/Users/askn/Documents/Zinnia-tools/Products/software/UPDI4AVR-USB/src/usb.cpp:185
      _size = 4;
      *_buffer++ = 4;
      *_buffer++ = 3;
      *_buffer++ = 0x09;
      *_buffer++ = 0x04;
      return _size;
    3134:	97 01       	movw	r18, r14
    3136:	7c 01       	movw	r14, r24
request_standard():
/Users/askn/Documents/Zinnia-tools/Products/software/UPDI4AVR-USB/src/usb.cpp:559
      EP_RES.CNT = 0;
    }
    else if (bRequest == 0x06) {  /* GET_DESCRIPTOR */
      size_t _length = EP_MEM.req_data.wLength;
      size_t _size = get_descriptor((uint8_t*)&EP_MEM.res_data, EP_MEM.req_data.wValue);
      EP_RES.CNT = (_size > _length) ? _length : _size;
    3138:	e0 92 48 64 	sts	0x6448, r14	; 0x806448 <EP_TABLE+0x12>
    313c:	f0 92 49 64 	sts	0x6449, r15	; 0x806449 <EP_TABLE+0x13>
handling_control_transactions():
/Users/askn/Documents/Zinnia-tools/Products/software/UPDI4AVR-USB/src/usb.cpp:675
  #ifdef _Not_being_used_STUB_
    else if (bmRequestType == (2 << 5)) {
      _listen = request_vendor();
    }
  #endif
    if (_listen) {
    3140:	23 2b       	or	r18, r19
    3142:	09 f0       	breq	.+2      	; 0x3146 <main+0x5c2>
    3144:	ae ce       	rjmp	.-676    	; 0x2ea2 <main+0x31e>
ep0_stalled():
/Users/askn/Documents/Zinnia-tools/Products/software/UPDI4AVR-USB/src/usb.cpp:359
    loop_until_bit_is_clear(USB0_INTFLAGSB, USB_RMWBUSY_bp);
    USB_EP_STATUS_CLR(USB_EP_CDO) = ~USB_TOGGLE_bm;
  }

  void ep0_stalled (void) {
    D1PRINTF("[STALLED]\r\n");
    3146:	85 e6       	ldi	r24, 0x65	; 101
    3148:	92 e0       	ldi	r25, 0x02	; 2
    314a:	9f 93       	push	r25
    314c:	8f 93       	push	r24
    314e:	1f 93       	push	r17
    3150:	0f 93       	push	r16
    3152:	0e 94 2e 0a 	call	0x145c	; 0x145c <Print::printf(PGM_t const*, ...) [clone .constprop.21]>
    3156:	0f 90       	pop	r0
    3158:	0f 90       	pop	r0
    315a:	0f 90       	pop	r0
    315c:	0f 90       	pop	r0
/Users/askn/Documents/Zinnia-tools/Products/software/UPDI4AVR-USB/src/usb.cpp:360
    loop_until_bit_is_clear(USB0_INTFLAGSB, USB_RMWBUSY_bp);
    315e:	80 91 0b 0c 	lds	r24, 0x0C0B	; 0x800c0b <__TEXT_REGION_LENGTH__+0x7f0c0b>
    3162:	82 fd       	sbrc	r24, 2
    3164:	fc cf       	rjmp	.-8      	; 0x315e <main+0x5da>
/Users/askn/Documents/Zinnia-tools/Products/software/UPDI4AVR-USB/src/usb.cpp:361
    USB_EP_STATUS_SET(USB_EP_RES) = USB_STALLED_bm;
    3166:	88 e0       	ldi	r24, 0x08	; 8
    3168:	80 93 43 0c 	sts	0x0C43, r24	; 0x800c43 <__TEXT_REGION_LENGTH__+0x7f0c43>
/Users/askn/Documents/Zinnia-tools/Products/software/UPDI4AVR-USB/src/usb.cpp:362
    loop_until_bit_is_clear(USB0_INTFLAGSB, USB_RMWBUSY_bp);
    316c:	80 91 0b 0c 	lds	r24, 0x0C0B	; 0x800c0b <__TEXT_REGION_LENGTH__+0x7f0c0b>
    3170:	82 fd       	sbrc	r24, 2
    3172:	fc cf       	rjmp	.-8      	; 0x316c <main+0x5e8>
/Users/askn/Documents/Zinnia-tools/Products/software/UPDI4AVR-USB/src/usb.cpp:363
    USB_EP_STATUS_SET(USB_EP_REQ) = USB_STALLED_bm;
    3174:	88 e0       	ldi	r24, 0x08	; 8
    3176:	80 93 41 0c 	sts	0x0C41, r24	; 0x800c41 <__TEXT_REGION_LENGTH__+0x7f0c41>
    317a:	97 ce       	rjmp	.-722    	; 0x2eaa <main+0x326>
get_descriptor():
/Users/askn/Documents/Zinnia-tools/Products/software/UPDI4AVR-USB/src/usb.cpp:163
      uint32_t _vidpid = *((uint32_t*)EEPROM_START);
      if (_vidpid + 1) _CAPS32(_buffer[8])->dword = _vidpid;
      D1PRINTF(" VID:PID=%04X:%04X\r\n", _CAPS16(_buffer[8])->word, _CAPS16(_buffer[10])->word);
      return _size;
    }
    else if (_type == 0x02) {     /* CONFIGURATION */
    317c:	92 30       	cpi	r25, 0x02	; 2
    317e:	09 f4       	brne	.+2      	; 0x3182 <main+0x5fe>
    3180:	c0 c0       	rjmp	.+384    	; 0x3302 <main+0x77e>
/Users/askn/Documents/Zinnia-tools/Products/software/UPDI4AVR-USB/src/usb.cpp:167
      _pgmem = (uint8_t*)&current_descriptor;
      _size = sizeof(current_descriptor);
    }
    else if (_type == 0x06) {     /* QUALIFIER */
    3182:	96 30       	cpi	r25, 0x06	; 6
    3184:	09 f4       	brne	.+2      	; 0x3188 <main+0x604>
    3186:	c8 c0       	rjmp	.+400    	; 0x3318 <main+0x794>
/Users/askn/Documents/Zinnia-tools/Products/software/UPDI4AVR-USB/src/usb.cpp:171
      _pgmem = (uint8_t*)&qualifier_descriptor;
      _size = sizeof(qualifier_descriptor);
    }
    else if (_type == 0x21) {     /* HID */
    3188:	91 32       	cpi	r25, 0x21	; 33
    318a:	09 f4       	brne	.+2      	; 0x318e <main+0x60a>
    318c:	cb c0       	rjmp	.+406    	; 0x3324 <main+0x7a0>
/Users/askn/Documents/Zinnia-tools/Products/software/UPDI4AVR-USB/src/usb.cpp:175
      _pgmem = (uint8_t*)&current_descriptor + 18;
      _size = 9;
    }
    else if (_type == 0x22) {     /* REPORT */
    318e:	92 32       	cpi	r25, 0x22	; 34
    3190:	09 f4       	brne	.+2      	; 0x3194 <main+0x610>
    3192:	ce c0       	rjmp	.+412    	; 0x3330 <main+0x7ac>
/Users/askn/Documents/Zinnia-tools/Products/software/UPDI4AVR-USB/src/usb.cpp:179
      _pgmem = (uint8_t*)&report_descriptor;
      _size = sizeof(report_descriptor);
    }
    else if (_index == 0x0300) {  /* LANGUAGE */
    3194:	81 15       	cp	r24, r1
    3196:	e3 e0       	ldi	r30, 0x03	; 3
    3198:	9e 07       	cpc	r25, r30
    319a:	79 f4       	brne	.+30     	; 0x31ba <main+0x636>
/Users/askn/Documents/Zinnia-tools/Products/software/UPDI4AVR-USB/src/usb.cpp:181
      _size = 4;
      *_buffer++ = 4;
    319c:	84 e0       	ldi	r24, 0x04	; 4
    319e:	80 93 1e 63 	sts	0x631E, r24	; 0x80631e <EP_MEM+0x8>
/Users/askn/Documents/Zinnia-tools/Products/software/UPDI4AVR-USB/src/usb.cpp:182
      *_buffer++ = 3;
    31a2:	93 e0       	ldi	r25, 0x03	; 3
    31a4:	90 93 1f 63 	sts	0x631F, r25	; 0x80631f <EP_MEM+0x9>
/Users/askn/Documents/Zinnia-tools/Products/software/UPDI4AVR-USB/src/usb.cpp:183
      *_buffer++ = 0x09;
    31a8:	99 e0       	ldi	r25, 0x09	; 9
    31aa:	90 93 20 63 	sts	0x6320, r25	; 0x806320 <EP_MEM+0xa>
/Users/askn/Documents/Zinnia-tools/Products/software/UPDI4AVR-USB/src/usb.cpp:184
      *_buffer++ = 0x04;
    31ae:	80 93 21 63 	sts	0x6321, r24	; 0x806321 <EP_MEM+0xb>
main():
/Users/askn/Documents/Zinnia-tools/Products/software/UPDI4AVR-USB/src/usb.cpp:185
      return _size;
    31b2:	b4 e0       	ldi	r27, 0x04	; 4
    31b4:	eb 2e       	mov	r14, r27
    31b6:	f1 2c       	mov	r15, r1
    31b8:	b7 cf       	rjmp	.-146    	; 0x3128 <main+0x5a4>
get_descriptor():
/Users/askn/Documents/Zinnia-tools/Products/software/UPDI4AVR-USB/src/usb.cpp:188
    }
    else {
      switch (_index) {
    31ba:	82 30       	cpi	r24, 0x02	; 2
    31bc:	f3 e0       	ldi	r31, 0x03	; 3
    31be:	9f 07       	cpc	r25, r31
    31c0:	31 f1       	breq	.+76     	; 0x320e <main+0x68a>
    31c2:	48 f4       	brcc	.+18     	; 0x31d6 <main+0x652>
    31c4:	81 30       	cpi	r24, 0x01	; 1
    31c6:	93 40       	sbci	r25, 0x03	; 3
    31c8:	09 f4       	brne	.+2      	; 0x31cc <main+0x648>
    31ca:	95 c0       	rjmp	.+298    	; 0x32f6 <main+0x772>
main():
/Users/askn/Documents/Zinnia-tools/Products/software/UPDI4AVR-USB/src/usb.cpp:152
    { /* FRAMENUM */ }
  };

  size_t get_descriptor (uint8_t* _buffer, uint16_t _index) {
    uint8_t* _pgmem = 0;
    size_t   _size = 0;
    31cc:	f1 2c       	mov	r15, r1
    31ce:	e1 2c       	mov	r14, r1
/Users/askn/Documents/Zinnia-tools/Products/software/UPDI4AVR-USB/src/usb.cpp:151
    },
    { /* FRAMENUM */ }
  };

  size_t get_descriptor (uint8_t* _buffer, uint16_t _index) {
    uint8_t* _pgmem = 0;
    31d0:	70 e0       	ldi	r23, 0x00	; 0
    31d2:	60 e0       	ldi	r22, 0x00	; 0
    31d4:	0b c0       	rjmp	.+22     	; 0x31ec <main+0x668>
get_descriptor():
/Users/askn/Documents/Zinnia-tools/Products/software/UPDI4AVR-USB/src/usb.cpp:188
      *_buffer++ = 0x09;
      *_buffer++ = 0x04;
      return _size;
    }
    else {
      switch (_index) {
    31d6:	83 30       	cpi	r24, 0x03	; 3
    31d8:	98 07       	cpc	r25, r24
    31da:	f9 f0       	breq	.+62     	; 0x321a <main+0x696>
main():
/Users/askn/Documents/Zinnia-tools/Products/software/UPDI4AVR-USB/src/usb.cpp:191
        case 0x0301: _pgmem = (uint8_t*)&vstring; _size = sizeof(vstring); break;
        case 0x0302: _pgmem = (uint8_t*)&mstring; _size = sizeof(mstring); break;
        case 0x0304: _pgmem = (uint8_t*)&istring; _size = sizeof(istring); break;
    31dc:	f8 e1       	ldi	r31, 0x18	; 24
    31de:	ef 2e       	mov	r14, r31
    31e0:	f1 2c       	mov	r15, r1
    31e2:	68 e8       	ldi	r22, 0x88	; 136
    31e4:	70 e0       	ldi	r23, 0x00	; 0
get_descriptor():
/Users/askn/Documents/Zinnia-tools/Products/software/UPDI4AVR-USB/src/usb.cpp:188
      *_buffer++ = 0x09;
      *_buffer++ = 0x04;
      return _size;
    }
    else {
      switch (_index) {
    31e6:	84 30       	cpi	r24, 0x04	; 4
    31e8:	93 40       	sbci	r25, 0x03	; 3
    31ea:	81 f7       	brne	.-32     	; 0x31cc <main+0x648>
/Users/askn/Documents/Zinnia-tools/Products/software/UPDI4AVR-USB/src/usb.cpp:215
            *_buffer++ = btoh(_c     ); *_buffer++ = 0;
          }
          return 22;
        }
      }
      *_buffer++ = (uint8_t)_size;
    31ec:	e0 92 1e 63 	sts	0x631E, r14	; 0x80631e <EP_MEM+0x8>
/Users/askn/Documents/Zinnia-tools/Products/software/UPDI4AVR-USB/src/usb.cpp:216
      *_buffer++ = 3;
    31f0:	83 e0       	ldi	r24, 0x03	; 3
    31f2:	80 93 1f 63 	sts	0x631F, r24	; 0x80631f <EP_MEM+0x9>
/Users/askn/Documents/Zinnia-tools/Products/software/UPDI4AVR-USB/src/usb.cpp:217
      if (_size) memcpy_P(_buffer, _pgmem, _size - 2);
    31f6:	a7 01       	movw	r20, r14
    31f8:	42 50       	subi	r20, 0x02	; 2
    31fa:	51 09       	sbc	r21, r1
    31fc:	80 e2       	ldi	r24, 0x20	; 32
    31fe:	93 e6       	ldi	r25, 0x63	; 99
    3200:	e1 14       	cp	r14, r1
    3202:	f1 04       	cpc	r15, r1
    3204:	09 f0       	breq	.+2      	; 0x3208 <main+0x684>
    3206:	85 c0       	rjmp	.+266    	; 0x3312 <main+0x78e>
    3208:	30 e0       	ldi	r19, 0x00	; 0
    320a:	20 e0       	ldi	r18, 0x00	; 0
    320c:	95 cf       	rjmp	.-214    	; 0x3138 <main+0x5b4>
main():
/Users/askn/Documents/Zinnia-tools/Products/software/UPDI4AVR-USB/src/usb.cpp:190
      return _size;
    }
    else {
      switch (_index) {
        case 0x0301: _pgmem = (uint8_t*)&vstring; _size = sizeof(vstring); break;
        case 0x0302: _pgmem = (uint8_t*)&mstring; _size = sizeof(mstring); break;
    320e:	a6 e4       	ldi	r26, 0x46	; 70
    3210:	ea 2e       	mov	r14, r26
    3212:	f1 2c       	mov	r15, r1
    3214:	60 ea       	ldi	r22, 0xA0	; 160
    3216:	70 e0       	ldi	r23, 0x00	; 0
    3218:	e9 cf       	rjmp	.-46     	; 0x31ec <main+0x668>
get_descriptor():
/Users/askn/Documents/Zinnia-tools/Products/software/UPDI4AVR-USB/src/usb.cpp:201
           *
           * If the 4 bytes from offset 4 of the EEPROM are anything other
           * than 0xFFFF:FFFF, use them, otherwise generate a 32-bit random
           * serial number using CRC32 from the factory information.
           */
          uint32_t _sn = ((User_EEP_t*)EEPROM_START)->dwSerialNumber;
    321a:	40 91 04 14 	lds	r20, 0x1404	; 0x801404 <__TEXT_REGION_LENGTH__+0x7f1404>
    321e:	50 91 05 14 	lds	r21, 0x1405	; 0x801405 <__TEXT_REGION_LENGTH__+0x7f1405>
    3222:	60 91 06 14 	lds	r22, 0x1406	; 0x801406 <__TEXT_REGION_LENGTH__+0x7f1406>
    3226:	70 91 07 14 	lds	r23, 0x1407	; 0x801407 <__TEXT_REGION_LENGTH__+0x7f1407>
    322a:	49 83       	std	Y+1, r20	; 0x01
    322c:	5a 83       	std	Y+2, r21	; 0x02
    322e:	6b 83       	std	Y+3, r22	; 0x03
    3230:	7c 83       	std	Y+4, r23	; 0x04
/Users/askn/Documents/Zinnia-tools/Products/software/UPDI4AVR-USB/src/usb.cpp:202
          if (!(_sn + 1)) _sn = crc32((uint8_t*)SIGNATURES_START, 32);
    3232:	4f 3f       	cpi	r20, 0xFF	; 255
    3234:	ff ef       	ldi	r31, 0xFF	; 255
    3236:	5f 07       	cpc	r21, r31
    3238:	6f 07       	cpc	r22, r31
    323a:	7f 07       	cpc	r23, r31
    323c:	51 f5       	brne	.+84     	; 0x3292 <main+0x70e>
main():
/Users/askn/Library/Arduino15/packages/MultiX-Zinnia/hardware/modernAVR/0.2.14/cores/modernAVR/api/cpp/btools.cpp:210
  return _crc;
}

uint32_t crc32 (void* _data, size_t _len) {
  uint32_t _crc = ~0;
  uint8_t* _p = (uint8_t*)_data;
    323e:	e0 e8       	ldi	r30, 0x80	; 128
    3240:	f0 e1       	ldi	r31, 0x10	; 16
crc32():
/Users/askn/Library/Arduino15/packages/MultiX-Zinnia/hardware/modernAVR/0.2.14/cores/modernAVR/api/cpp/btools.cpp:211
  while (_len--) _crc = _crc32_update(_crc, *_p++);
    3242:	cf 01       	movw	r24, r30
    3244:	01 96       	adiw	r24, 0x01	; 1
_crc32_update():
/Users/askn/Library/Arduino15/packages/MultiX-Zinnia/hardware/modernAVR/0.2.14/cores/modernAVR/api/cpp/btools.cpp:201
}

/* x32 + x26 + x23 + x22 + x16 + x12 + x11 + x10 + x8 + x7 + x5 + x4 + x2 + x + 1 */
/* (0xEDB88320 rev) init -1 */
uint32_t _crc32_update (uint32_t _crc, uint8_t _data) {
  _crc ^= _data;
    3246:	20 81       	ld	r18, Z
    3248:	42 27       	eor	r20, r18
    324a:	28 e0       	ldi	r18, 0x08	; 8
/Users/askn/Library/Arduino15/packages/MultiX-Zinnia/hardware/modernAVR/0.2.14/cores/modernAVR/api/cpp/btools.cpp:203
  for (uint8_t j = 0; j < 8; j++) {
    _crc = (_crc >> 1) ^ (0xEDB88320UL & -(_crc & 1));
    324c:	6a 01       	movw	r12, r20
    324e:	7b 01       	movw	r14, r22
    3250:	f6 94       	lsr	r15
    3252:	e7 94       	ror	r14
    3254:	d7 94       	ror	r13
    3256:	c7 94       	ror	r12
    3258:	41 70       	andi	r20, 0x01	; 1
    325a:	55 27       	eor	r21, r21
    325c:	66 27       	eor	r22, r22
    325e:	77 27       	eor	r23, r23
    3260:	70 95       	com	r23
    3262:	60 95       	com	r22
    3264:	50 95       	com	r21
    3266:	41 95       	neg	r20
    3268:	5f 4f       	sbci	r21, 0xFF	; 255
    326a:	6f 4f       	sbci	r22, 0xFF	; 255
    326c:	7f 4f       	sbci	r23, 0xFF	; 255
    326e:	40 72       	andi	r20, 0x20	; 32
    3270:	53 78       	andi	r21, 0x83	; 131
    3272:	68 7b       	andi	r22, 0xB8	; 184
    3274:	7d 7e       	andi	r23, 0xED	; 237
    3276:	4c 25       	eor	r20, r12
    3278:	5d 25       	eor	r21, r13
    327a:	6e 25       	eor	r22, r14
    327c:	7f 25       	eor	r23, r15
    327e:	21 50       	subi	r18, 0x01	; 1
/Users/askn/Library/Arduino15/packages/MultiX-Zinnia/hardware/modernAVR/0.2.14/cores/modernAVR/api/cpp/btools.cpp:202

/* x32 + x26 + x23 + x22 + x16 + x12 + x11 + x10 + x8 + x7 + x5 + x4 + x2 + x + 1 */
/* (0xEDB88320 rev) init -1 */
uint32_t _crc32_update (uint32_t _crc, uint8_t _data) {
  _crc ^= _data;
  for (uint8_t j = 0; j < 8; j++) {
    3280:	29 f7       	brne	.-54     	; 0x324c <main+0x6c8>
    3282:	fc 01       	movw	r30, r24
crc32():
/Users/askn/Library/Arduino15/packages/MultiX-Zinnia/hardware/modernAVR/0.2.14/cores/modernAVR/api/cpp/btools.cpp:211
}

uint32_t crc32 (void* _data, size_t _len) {
  uint32_t _crc = ~0;
  uint8_t* _p = (uint8_t*)_data;
  while (_len--) _crc = _crc32_update(_crc, *_p++);
    3284:	80 3a       	cpi	r24, 0xA0	; 160
    3286:	90 41       	sbci	r25, 0x10	; 16
    3288:	e1 f6       	brne	.-72     	; 0x3242 <main+0x6be>
get_descriptor():
/Users/askn/Documents/Zinnia-tools/Products/software/UPDI4AVR-USB/src/usb.cpp:202
    328a:	49 83       	std	Y+1, r20	; 0x01
    328c:	5a 83       	std	Y+2, r21	; 0x02
    328e:	6b 83       	std	Y+3, r22	; 0x03
    3290:	7c 83       	std	Y+4, r23	; 0x04
/Users/askn/Documents/Zinnia-tools/Products/software/UPDI4AVR-USB/src/usb.cpp:204
          uint8_t* _p = (uint8_t*)&_sn;
          *_buffer++ = 22;  *_buffer++ = 3;
    3292:	86 e1       	ldi	r24, 0x16	; 22
    3294:	80 93 1e 63 	sts	0x631E, r24	; 0x80631e <EP_MEM+0x8>
    3298:	83 e0       	ldi	r24, 0x03	; 3
    329a:	80 93 1f 63 	sts	0x631F, r24	; 0x80631f <EP_MEM+0x9>
/Users/askn/Documents/Zinnia-tools/Products/software/UPDI4AVR-USB/src/usb.cpp:205
          *_buffer++ = 'M'; *_buffer++ = 0;
    329e:	8d e4       	ldi	r24, 0x4D	; 77
    32a0:	80 93 20 63 	sts	0x6320, r24	; 0x806320 <EP_MEM+0xa>
    32a4:	10 92 21 63 	sts	0x6321, r1	; 0x806321 <EP_MEM+0xb>
/Users/askn/Documents/Zinnia-tools/Products/software/UPDI4AVR-USB/src/usb.cpp:206
          *_buffer++ = 'X'; *_buffer++ = 0;
    32a8:	88 e5       	ldi	r24, 0x58	; 88
    32aa:	80 93 22 63 	sts	0x6322, r24	; 0x806322 <EP_MEM+0xc>
    32ae:	10 92 23 63 	sts	0x6323, r1	; 0x806323 <EP_MEM+0xd>
    32b2:	34 e2       	ldi	r19, 0x24	; 36
    32b4:	e3 2e       	mov	r14, r19
    32b6:	33 e6       	ldi	r19, 0x63	; 99
    32b8:	f3 2e       	mov	r15, r19
    32ba:	ce 01       	movw	r24, r28
    32bc:	01 96       	adiw	r24, 0x01	; 1
    32be:	6c 01       	movw	r12, r24
/Users/askn/Documents/Zinnia-tools/Products/software/UPDI4AVR-USB/src/usb.cpp:208
          for (uint8_t _i = 0; _i < 4; _i++) {
            uint8_t _c = *_p++;
    32c0:	f6 01       	movw	r30, r12
    32c2:	51 90       	ld	r5, Z+
    32c4:	6f 01       	movw	r12, r30
/Users/askn/Documents/Zinnia-tools/Products/software/UPDI4AVR-USB/src/usb.cpp:209
            *_buffer++ = btoh(_c >> 4); *_buffer++ = 0;
    32c6:	85 2d       	mov	r24, r5
    32c8:	82 95       	swap	r24
    32ca:	8f 70       	andi	r24, 0x0F	; 15
    32cc:	0e 94 e5 04 	call	0x9ca	; 0x9ca <btoh>
    32d0:	f7 01       	movw	r30, r14
    32d2:	80 83       	st	Z, r24
    32d4:	11 82       	std	Z+1, r1	; 0x01
/Users/askn/Documents/Zinnia-tools/Products/software/UPDI4AVR-USB/src/usb.cpp:210
            *_buffer++ = btoh(_c     ); *_buffer++ = 0;
    32d6:	85 2d       	mov	r24, r5
    32d8:	0e 94 e5 04 	call	0x9ca	; 0x9ca <btoh>
    32dc:	f7 01       	movw	r30, r14
    32de:	82 83       	std	Z+2, r24	; 0x02
    32e0:	13 82       	std	Z+3, r1	; 0x03
    32e2:	f4 e0       	ldi	r31, 0x04	; 4
    32e4:	ef 0e       	add	r14, r31
    32e6:	f1 1c       	adc	r15, r1
/Users/askn/Documents/Zinnia-tools/Products/software/UPDI4AVR-USB/src/usb.cpp:207
          if (!(_sn + 1)) _sn = crc32((uint8_t*)SIGNATURES_START, 32);
          uint8_t* _p = (uint8_t*)&_sn;
          *_buffer++ = 22;  *_buffer++ = 3;
          *_buffer++ = 'M'; *_buffer++ = 0;
          *_buffer++ = 'X'; *_buffer++ = 0;
          for (uint8_t _i = 0; _i < 4; _i++) {
    32e8:	2c 14       	cp	r2, r12
    32ea:	3d 04       	cpc	r3, r13
    32ec:	49 f7       	brne	.-46     	; 0x32c0 <main+0x73c>
main():
/Users/askn/Documents/Zinnia-tools/Products/software/UPDI4AVR-USB/src/usb.cpp:212
            uint8_t _c = *_p++;
            *_buffer++ = btoh(_c >> 4); *_buffer++ = 0;
            *_buffer++ = btoh(_c     ); *_buffer++ = 0;
          }
          return 22;
    32ee:	26 e1       	ldi	r18, 0x16	; 22
    32f0:	e2 2e       	mov	r14, r18
    32f2:	f1 2c       	mov	r15, r1
    32f4:	19 cf       	rjmp	.-462    	; 0x3128 <main+0x5a4>
/Users/askn/Documents/Zinnia-tools/Products/software/UPDI4AVR-USB/src/usb.cpp:189
      *_buffer++ = 0x04;
      return _size;
    }
    else {
      switch (_index) {
        case 0x0301: _pgmem = (uint8_t*)&vstring; _size = sizeof(vstring); break;
    32f6:	94 e3       	ldi	r25, 0x34	; 52
    32f8:	e9 2e       	mov	r14, r25
    32fa:	f1 2c       	mov	r15, r1
    32fc:	66 ee       	ldi	r22, 0xE6	; 230
    32fe:	70 e0       	ldi	r23, 0x00	; 0
    3300:	75 cf       	rjmp	.-278    	; 0x31ec <main+0x668>
/Users/askn/Documents/Zinnia-tools/Products/software/UPDI4AVR-USB/src/usb.cpp:165
      D1PRINTF(" VID:PID=%04X:%04X\r\n", _CAPS16(_buffer[8])->word, _CAPS16(_buffer[10])->word);
      return _size;
    }
    else if (_type == 0x02) {     /* CONFIGURATION */
      _pgmem = (uint8_t*)&current_descriptor;
      _size = sizeof(current_descriptor);
    3302:	8b e6       	ldi	r24, 0x6B	; 107
    3304:	e8 2e       	mov	r14, r24
    3306:	f1 2c       	mov	r15, r1
/Users/askn/Documents/Zinnia-tools/Products/software/UPDI4AVR-USB/src/usb.cpp:164
      if (_vidpid + 1) _CAPS32(_buffer[8])->dword = _vidpid;
      D1PRINTF(" VID:PID=%04X:%04X\r\n", _CAPS16(_buffer[8])->word, _CAPS16(_buffer[10])->word);
      return _size;
    }
    else if (_type == 0x02) {     /* CONFIGURATION */
      _pgmem = (uint8_t*)&current_descriptor;
    3308:	6d e3       	ldi	r22, 0x3D	; 61
    330a:	71 e0       	ldi	r23, 0x01	; 1
get_descriptor():
/Users/askn/Documents/Zinnia-tools/Products/software/UPDI4AVR-USB/src/usb.cpp:220
      *_buffer++ = (uint8_t)_size;
      *_buffer++ = 3;
      if (_size) memcpy_P(_buffer, _pgmem, _size - 2);
      return _size;
    }
    if (_size) memcpy_P(_buffer, _pgmem, _size);
    330c:	a7 01       	movw	r20, r14
    330e:	8e e1       	ldi	r24, 0x1E	; 30
    3310:	93 e6       	ldi	r25, 0x63	; 99
    3312:	0e 94 b7 21 	call	0x436e	; 0x436e <memcpy_P>
    3316:	08 cf       	rjmp	.-496    	; 0x3128 <main+0x5a4>
main():
/Users/askn/Documents/Zinnia-tools/Products/software/UPDI4AVR-USB/src/usb.cpp:169
      _pgmem = (uint8_t*)&current_descriptor;
      _size = sizeof(current_descriptor);
    }
    else if (_type == 0x06) {     /* QUALIFIER */
      _pgmem = (uint8_t*)&qualifier_descriptor;
      _size = sizeof(qualifier_descriptor);
    3318:	ba e0       	ldi	r27, 0x0A	; 10
    331a:	eb 2e       	mov	r14, r27
    331c:	f1 2c       	mov	r15, r1
/Users/askn/Documents/Zinnia-tools/Products/software/UPDI4AVR-USB/src/usb.cpp:168
    else if (_type == 0x02) {     /* CONFIGURATION */
      _pgmem = (uint8_t*)&current_descriptor;
      _size = sizeof(current_descriptor);
    }
    else if (_type == 0x06) {     /* QUALIFIER */
      _pgmem = (uint8_t*)&qualifier_descriptor;
    331e:	68 ea       	ldi	r22, 0xA8	; 168
    3320:	71 e0       	ldi	r23, 0x01	; 1
    3322:	f4 cf       	rjmp	.-24     	; 0x330c <main+0x788>
/Users/askn/Documents/Zinnia-tools/Products/software/UPDI4AVR-USB/src/usb.cpp:173
      _size = sizeof(qualifier_descriptor);
    }
    else if (_type == 0x21) {     /* HID */
      _pgmem = (uint8_t*)&current_descriptor + 18;
      _size = 9;
    3324:	a9 e0       	ldi	r26, 0x09	; 9
    3326:	ea 2e       	mov	r14, r26
    3328:	f1 2c       	mov	r15, r1
/Users/askn/Documents/Zinnia-tools/Products/software/UPDI4AVR-USB/src/usb.cpp:172
    else if (_type == 0x06) {     /* QUALIFIER */
      _pgmem = (uint8_t*)&qualifier_descriptor;
      _size = sizeof(qualifier_descriptor);
    }
    else if (_type == 0x21) {     /* HID */
      _pgmem = (uint8_t*)&current_descriptor + 18;
    332a:	6f e4       	ldi	r22, 0x4F	; 79
    332c:	71 e0       	ldi	r23, 0x01	; 1
    332e:	ee cf       	rjmp	.-36     	; 0x330c <main+0x788>
/Users/askn/Documents/Zinnia-tools/Products/software/UPDI4AVR-USB/src/usb.cpp:177
      _size = 9;
    }
    else if (_type == 0x22) {     /* REPORT */
      _pgmem = (uint8_t*)&report_descriptor;
      _size = sizeof(report_descriptor);
    3330:	f3 e2       	ldi	r31, 0x23	; 35
    3332:	ef 2e       	mov	r14, r31
    3334:	f1 2c       	mov	r15, r1
/Users/askn/Documents/Zinnia-tools/Products/software/UPDI4AVR-USB/src/usb.cpp:176
    else if (_type == 0x21) {     /* HID */
      _pgmem = (uint8_t*)&current_descriptor + 18;
      _size = 9;
    }
    else if (_type == 0x22) {     /* REPORT */
      _pgmem = (uint8_t*)&report_descriptor;
    3336:	6a e1       	ldi	r22, 0x1A	; 26
    3338:	71 e0       	ldi	r23, 0x01	; 1
    333a:	e8 cf       	rjmp	.-48     	; 0x330c <main+0x788>
request_standard():
/Users/askn/Documents/Zinnia-tools/Products/software/UPDI4AVR-USB/src/usb.cpp:562
      size_t _length = EP_MEM.req_data.wLength;
      size_t _size = get_descriptor((uint8_t*)&EP_MEM.res_data, EP_MEM.req_data.wValue);
      EP_RES.CNT = (_size > _length) ? _length : _size;
      _listen = !!_size;
    }
    else if (bRequest == 0x08) {  /* GET_CONFIGURATION */
    333c:	88 30       	cpi	r24, 0x08	; 8
    333e:	c9 f4       	brne	.+50     	; 0x3372 <main+0x7ee>
/Users/askn/Documents/Zinnia-tools/Products/software/UPDI4AVR-USB/src/usb.cpp:563
      EP_MEM.res_data[0] = _set_config;
    3340:	80 91 30 64 	lds	r24, 0x6430	; 0x806430 <_set_config>
    3344:	80 93 1e 63 	sts	0x631E, r24	; 0x80631e <EP_MEM+0x8>
/Users/askn/Documents/Zinnia-tools/Products/software/UPDI4AVR-USB/src/usb.cpp:564
      D1PRINTF("<GC:%02X>\r\n", _set_config);
    3348:	1f 92       	push	r1
    334a:	8f 93       	push	r24
    334c:	8a ef       	ldi	r24, 0xFA	; 250
    334e:	91 e0       	ldi	r25, 0x01	; 1
    3350:	9f 93       	push	r25
    3352:	8f 93       	push	r24
    3354:	1f 93       	push	r17
    3356:	0f 93       	push	r16
    3358:	0e 94 2e 0a 	call	0x145c	; 0x145c <Print::printf(PGM_t const*, ...) [clone .constprop.21]>
/Users/askn/Documents/Zinnia-tools/Products/software/UPDI4AVR-USB/src/usb.cpp:565
      EP_RES.CNT = 1;
    335c:	60 92 48 64 	sts	0x6448, r6	; 0x806448 <EP_TABLE+0x12>
    3360:	70 92 49 64 	sts	0x6449, r7	; 0x806449 <EP_TABLE+0x13>
    3364:	0f 90       	pop	r0
    3366:	0f 90       	pop	r0
    3368:	0f 90       	pop	r0
    336a:	0f 90       	pop	r0
    336c:	0f 90       	pop	r0
    336e:	0f 90       	pop	r0
    3370:	98 cd       	rjmp	.-1232   	; 0x2ea2 <main+0x31e>
/Users/askn/Documents/Zinnia-tools/Products/software/UPDI4AVR-USB/src/usb.cpp:567
    }
    else if (bRequest == 0x09) {  /* SET_CONFIGURATION */
    3372:	89 30       	cpi	r24, 0x09	; 9
    3374:	71 f4       	brne	.+28     	; 0x3392 <main+0x80e>
/Users/askn/Documents/Zinnia-tools/Products/software/UPDI4AVR-USB/src/usb.cpp:569
      /* Once the USB connection is fully initiated, it will go through here. */
      _set_config = (uint8_t)EP_MEM.req_data.wValue;
    3376:	80 91 18 63 	lds	r24, 0x6318	; 0x806318 <EP_MEM+0x2>
    337a:	80 93 30 64 	sts	0x6430, r24	; 0x806430 <_set_config>
/Users/askn/Documents/Zinnia-tools/Products/software/UPDI4AVR-USB/src/usb.cpp:570
      bit_set(GPCONF, GPCONF_USB_bp);
    337e:	e0 9a       	sbi	0x1c, 0	; 28
/Users/askn/Documents/Zinnia-tools/Products/software/UPDI4AVR-USB/src/usb.cpp:571
      SYS::LED_HeartBeat();
    3380:	0e 94 a4 08 	call	0x1148	; 0x1148 <SYS::LED_HeartBeat()>
/Users/askn/Documents/Zinnia-tools/Products/software/UPDI4AVR-USB/src/usb.cpp:572
      D1PRINTF("<SC:%02X>\r\n", _set_config);
    3384:	80 91 30 64 	lds	r24, 0x6430	; 0x806430 <_set_config>
    3388:	1f 92       	push	r1
    338a:	8f 93       	push	r24
    338c:	8e ee       	ldi	r24, 0xEE	; 238
    338e:	91 e0       	ldi	r25, 0x01	; 1
    3390:	7a ce       	rjmp	.-780    	; 0x3086 <main+0x502>
/Users/askn/Documents/Zinnia-tools/Products/software/UPDI4AVR-USB/src/usb.cpp:575
      EP_RES.CNT = 0;
    }
    else if (bRequest == 0x0A) {  /* GET_INTREFACE */
    3392:	8a 30       	cpi	r24, 0x0A	; 10
    3394:	99 f4       	brne	.+38     	; 0x33bc <main+0x838>
/Users/askn/Documents/Zinnia-tools/Products/software/UPDI4AVR-USB/src/usb.cpp:577
      /* It seems not to be used. */
      D1PRINTF("<SI:0>\r\n");
    3396:	25 ee       	ldi	r18, 0xE5	; 229
    3398:	31 e0       	ldi	r19, 0x01	; 1
    339a:	3f 93       	push	r19
    339c:	2f 93       	push	r18
    339e:	1f 93       	push	r17
    33a0:	0f 93       	push	r16
    33a2:	0e 94 2e 0a 	call	0x145c	; 0x145c <Print::printf(PGM_t const*, ...) [clone .constprop.21]>
/Users/askn/Documents/Zinnia-tools/Products/software/UPDI4AVR-USB/src/usb.cpp:578
      EP_MEM.res_data[0] = 0;
    33a6:	10 92 1e 63 	sts	0x631E, r1	; 0x80631e <EP_MEM+0x8>
/Users/askn/Documents/Zinnia-tools/Products/software/UPDI4AVR-USB/src/usb.cpp:579
      EP_RES.CNT = 1;
    33aa:	60 92 48 64 	sts	0x6448, r6	; 0x806448 <EP_TABLE+0x12>
    33ae:	70 92 49 64 	sts	0x6449, r7	; 0x806449 <EP_TABLE+0x13>
request_class():
/Users/askn/Documents/Zinnia-tools/Products/software/UPDI4AVR-USB/src/usb.cpp:629
        EP_MEM.res_encoding.dwDTERate = 9600UL;
        EP_MEM.res_encoding.bDataBits = 8;
      }
      D1PRINTF(" GLE=");
      D1PRINTHEX(&EP_MEM.res_encoding, sizeof(LineEncoding_t));
      EP_RES.CNT = sizeof(LineEncoding_t);
    33b2:	0f 90       	pop	r0
    33b4:	0f 90       	pop	r0
    33b6:	0f 90       	pop	r0
    33b8:	0f 90       	pop	r0
    33ba:	73 cd       	rjmp	.-1306   	; 0x2ea2 <main+0x31e>
request_standard():
/Users/askn/Documents/Zinnia-tools/Products/software/UPDI4AVR-USB/src/usb.cpp:581
      /* It seems not to be used. */
      D1PRINTF("<SI:0>\r\n");
      EP_MEM.res_data[0] = 0;
      EP_RES.CNT = 1;
    }
    else if (bRequest == 0x0B) {  /* SET_INTREFACE */
    33bc:	8b 30       	cpi	r24, 0x0B	; 11
    33be:	09 f0       	breq	.+2      	; 0x33c2 <main+0x83e>
    33c0:	c2 ce       	rjmp	.-636    	; 0x3146 <main+0x5c2>
/Users/askn/Documents/Zinnia-tools/Products/software/UPDI4AVR-USB/src/usb.cpp:583
      /* It seems not to be used. */
      D1PRINTF("<GI:%02X>\r\n", EP_MEM.req_data.wValue);
    33c2:	80 91 19 63 	lds	r24, 0x6319	; 0x806319 <EP_MEM+0x3>
    33c6:	8f 93       	push	r24
    33c8:	80 91 18 63 	lds	r24, 0x6318	; 0x806318 <EP_MEM+0x2>
    33cc:	8f 93       	push	r24
    33ce:	89 ed       	ldi	r24, 0xD9	; 217
    33d0:	91 e0       	ldi	r25, 0x01	; 1
    33d2:	9f 93       	push	r25
    33d4:	59 ce       	rjmp	.-846    	; 0x3088 <main+0x504>
handling_control_transactions():
/Users/askn/Documents/Zinnia-tools/Products/software/UPDI4AVR-USB/src/usb.cpp:667
    if (bit_is_clear(bmRequestType, 7)) ep_req_listen();
    bmRequestType &= (3 << 5);
    if (bmRequestType == (0 << 5)) {
      _listen = request_standard();
    }
    else if (bmRequestType == (1 << 5)) {
    33d6:	80 32       	cpi	r24, 0x20	; 32
    33d8:	09 f0       	breq	.+2      	; 0x33dc <main+0x858>
    33da:	b5 ce       	rjmp	.-662    	; 0x3146 <main+0x5c2>
request_class():
/Users/askn/Documents/Zinnia-tools/Products/software/UPDI4AVR-USB/src/usb.cpp:595
  }

  /*** CDC-ACM request processing. ***/
  bool request_class (void) {
    bool _listen = true;
    uint8_t bRequest = EP_MEM.req_data.bRequest;
    33dc:	80 91 17 63 	lds	r24, 0x6317	; 0x806317 <EP_MEM+0x1>
/Users/askn/Documents/Zinnia-tools/Products/software/UPDI4AVR-USB/src/usb.cpp:596
    if (bRequest == 0x0A) {       /* SET_IDLE */
    33e0:	8a 30       	cpi	r24, 0x0A	; 10
    33e2:	61 f4       	brne	.+24     	; 0x33fc <main+0x878>
/Users/askn/Documents/Zinnia-tools/Products/software/UPDI4AVR-USB/src/usb.cpp:599
      /* This is a HID Compliance Class Request. */
      /* It is called but not used. */
      D1PRINTF(" IDL=%02X\r\n", (uint8_t)EP_MEM.req_data.wValue);
    33e4:	80 91 18 63 	lds	r24, 0x6318	; 0x806318 <EP_MEM+0x2>
    33e8:	90 91 19 63 	lds	r25, 0x6319	; 0x806319 <EP_MEM+0x3>
    33ec:	99 27       	eor	r25, r25
    33ee:	9f 93       	push	r25
    33f0:	8f 93       	push	r24
    33f2:	29 e5       	ldi	r18, 0x59	; 89
    33f4:	32 e0       	ldi	r19, 0x02	; 2
    33f6:	3f 93       	push	r19
    33f8:	2f 93       	push	r18
    33fa:	47 ce       	rjmp	.-882    	; 0x308a <main+0x506>
/Users/askn/Documents/Zinnia-tools/Products/software/UPDI4AVR-USB/src/usb.cpp:602
      EP_RES.CNT = 0;
    }
    else if (bRequest == 0x20) {  /* SET_LINE_ENCODING */
    33fc:	80 32       	cpi	r24, 0x20	; 32
    33fe:	e1 f5       	brne	.+120    	; 0x3478 <main+0x8f4>
ep_req_pending():
/Users/askn/Documents/Zinnia-tools/Products/software/UPDI4AVR-USB/src/usb.cpp:258
    }
  }

  bool is_ep_setup (void) { return bit_is_set(EP_REQ.STATUS, USB_EPSETUP_bp); }
  bool is_not_dap (void) { return bit_is_clear(EP_DPO.STATUS, USB_BUSNAK_bp); }
  void ep_req_pending (void) { loop_until_bit_is_set(EP_REQ.STATUS, USB_BUSNAK_bp); }
    3400:	80 91 3e 64 	lds	r24, 0x643E	; 0x80643e <EP_TABLE+0x8>
    3404:	81 ff       	sbrs	r24, 1
    3406:	fc cf       	rjmp	.-8      	; 0x3400 <main+0x87c>
set_line_encoding():
/Users/askn/Documents/Zinnia-tools/Products/software/UPDI4AVR-USB/src/usart.cpp:175
      SYS::LED_Flash();
  }

  void set_line_encoding (LineEncoding_t* _buff) {
    /* The USART will not change unless a different setting is given. */
    if (0 == memcmp(&_set_line_encoding, _buff, sizeof(LineEncoding_t))) return;
    3408:	47 e0       	ldi	r20, 0x07	; 7
    340a:	50 e0       	ldi	r21, 0x00	; 0
    340c:	6e e1       	ldi	r22, 0x1E	; 30
    340e:	73 e6       	ldi	r23, 0x63	; 99
    3410:	86 e8       	ldi	r24, 0x86	; 134
    3412:	90 e6       	ldi	r25, 0x60	; 96
    3414:	0e 94 cd 24 	call	0x499a	; 0x499a <memcmp>
    3418:	89 2b       	or	r24, r25
    341a:	91 f0       	breq	.+36     	; 0x3440 <main+0x8bc>
read_drop():
/Users/askn/Documents/Zinnia-tools/Products/software/UPDI4AVR-USB/src/usb.cpp:466
    }
    return _s != 0;
  }

  void read_drop (void) {
    if (bit_is_set(EP_CDO.STATUS, USB_BUSNAK_bp)) ep_cdo_listen();
    341c:	80 91 6e 64 	lds	r24, 0x646E	; 0x80646e <EP_TABLE+0x38>
    3420:	81 fd       	sbrc	r24, 1
    3422:	0e 94 ff 04 	call	0x9fe	; 0x9fe <USB::ep_cdo_listen()>
set_line_encoding():
/Users/askn/Documents/Zinnia-tools/Products/software/UPDI4AVR-USB/src/usart.cpp:177
    USB::read_drop();
    USART::setup();
    3426:	0e 94 97 0f 	call	0x1f2e	; 0x1f2e <USART::setup()>
/Users/askn/Documents/Zinnia-tools/Products/software/UPDI4AVR-USB/src/usart.cpp:178
    memcpy(&_set_line_encoding, _buff, sizeof(LineEncoding_t));
    342a:	87 e0       	ldi	r24, 0x07	; 7
    342c:	ee e1       	ldi	r30, 0x1E	; 30
    342e:	f3 e6       	ldi	r31, 0x63	; 99
    3430:	a6 e8       	ldi	r26, 0x86	; 134
    3432:	b0 e6       	ldi	r27, 0x60	; 96
    3434:	01 90       	ld	r0, Z+
    3436:	0d 92       	st	X+, r0
    3438:	8a 95       	dec	r24
    343a:	e1 f7       	brne	.-8      	; 0x3434 <main+0x8b0>
/Users/askn/Documents/Zinnia-tools/Products/software/UPDI4AVR-USB/src/usart.cpp:179
    change_vcp();
    343c:	0e 94 52 0a 	call	0x14a4	; 0x14a4 <USART::change_vcp()>
request_class():
/Users/askn/Documents/Zinnia-tools/Products/software/UPDI4AVR-USB/src/usb.cpp:611
      /* In any case, this isn't a one-off thing. */
      /* If the same parameter settings persist,  */
      /* it's probably best to do nothing.        */
      ep_req_pending();
      USART::set_line_encoding(&EP_MEM.res_encoding);
      D1PRINTF(" SLE=");
    3440:	83 e5       	ldi	r24, 0x53	; 83
    3442:	92 e0       	ldi	r25, 0x02	; 2
    3444:	9f 93       	push	r25
    3446:	8f 93       	push	r24
    3448:	1f 93       	push	r17
    344a:	0f 93       	push	r16
    344c:	0e 94 2e 0a 	call	0x145c	; 0x145c <Print::printf(PGM_t const*, ...) [clone .constprop.21]>
/Users/askn/Documents/Zinnia-tools/Products/software/UPDI4AVR-USB/src/usb.cpp:612
      D1PRINTHEX(&_set_line_encoding, sizeof(LineEncoding_t));
    3450:	67 e0       	ldi	r22, 0x07	; 7
    3452:	70 e0       	ldi	r23, 0x00	; 0
    3454:	86 e8       	ldi	r24, 0x86	; 134
    3456:	90 e6       	ldi	r25, 0x60	; 96
    3458:	0e 94 bc 09 	call	0x1378	; 0x1378 <Print::printHex(void const*, unsigned int, char, unsigned int, char const*) [clone .constprop.18]>
    345c:	0e 94 22 0a 	call	0x1444	; 0x1444 <Print::ln()>
/Users/askn/Documents/Zinnia-tools/Products/software/UPDI4AVR-USB/src/usb.cpp:613
      bit_set(GPCONF, GPCONF_OPN_bp);
    3460:	e4 9a       	sbi	0x1c, 4	; 28
/Users/askn/Documents/Zinnia-tools/Products/software/UPDI4AVR-USB/src/usb.cpp:614
      _send_count = 0;
    3462:	10 92 32 64 	sts	0x6432, r1	; 0x806432 <_send_count>
/Users/askn/Documents/Zinnia-tools/Products/software/UPDI4AVR-USB/src/usb.cpp:615
      _recv_count = 0;
    3466:	10 92 31 64 	sts	0x6431, r1	; 0x806431 <_recv_count>
/Users/askn/Documents/Zinnia-tools/Products/software/UPDI4AVR-USB/src/usb.cpp:616
      _sof_count = 0;
    346a:	10 92 2f 64 	sts	0x642F, r1	; 0x80642f <_sof_count>
/Users/askn/Documents/Zinnia-tools/Products/software/UPDI4AVR-USB/src/usb.cpp:617
      EP_RES.CNT = 0;
    346e:	10 92 48 64 	sts	0x6448, r1	; 0x806448 <EP_TABLE+0x12>
    3472:	10 92 49 64 	sts	0x6449, r1	; 0x806449 <EP_TABLE+0x13>
    3476:	9d cf       	rjmp	.-198    	; 0x33b2 <main+0x82e>
/Users/askn/Documents/Zinnia-tools/Products/software/UPDI4AVR-USB/src/usb.cpp:619
    }
    else if (bRequest == 0x21) {  /* GET_LINE_ENCODING */
    3478:	81 32       	cpi	r24, 0x21	; 33
    347a:	b9 f5       	brne	.+110    	; 0x34ea <main+0x966>
/Users/askn/Documents/Zinnia-tools/Products/software/UPDI4AVR-USB/src/usb.cpp:620
      memcpy(&EP_MEM.res_encoding, &_set_line_encoding, sizeof(LineEncoding_t));
    347c:	87 e0       	ldi	r24, 0x07	; 7
    347e:	e6 e8       	ldi	r30, 0x86	; 134
    3480:	f0 e6       	ldi	r31, 0x60	; 96
    3482:	ae e1       	ldi	r26, 0x1E	; 30
    3484:	b3 e6       	ldi	r27, 0x63	; 99
    3486:	01 90       	ld	r0, Z+
    3488:	0d 92       	st	X+, r0
    348a:	8a 95       	dec	r24
    348c:	e1 f7       	brne	.-8      	; 0x3486 <main+0x902>
/Users/askn/Documents/Zinnia-tools/Products/software/UPDI4AVR-USB/src/usb.cpp:621
      if (EP_MEM.res_encoding.dwDTERate == 0) {
    348e:	80 91 1e 63 	lds	r24, 0x631E	; 0x80631e <EP_MEM+0x8>
    3492:	90 91 1f 63 	lds	r25, 0x631F	; 0x80631f <EP_MEM+0x9>
    3496:	a0 91 20 63 	lds	r26, 0x6320	; 0x806320 <EP_MEM+0xa>
    349a:	b0 91 21 63 	lds	r27, 0x6321	; 0x806321 <EP_MEM+0xb>
    349e:	89 2b       	or	r24, r25
    34a0:	8a 2b       	or	r24, r26
    34a2:	8b 2b       	or	r24, r27
    34a4:	59 f4       	brne	.+22     	; 0x34bc <main+0x938>
/Users/askn/Documents/Zinnia-tools/Products/software/UPDI4AVR-USB/src/usb.cpp:624
        /* Parameters that, if incorrectly accepted,           */
        /* would result in division by zero must be corrected. */
        EP_MEM.res_encoding.dwDTERate = 9600UL;
    34a6:	80 92 1e 63 	sts	0x631E, r8	; 0x80631e <EP_MEM+0x8>
    34aa:	90 92 1f 63 	sts	0x631F, r9	; 0x80631f <EP_MEM+0x9>
    34ae:	a0 92 20 63 	sts	0x6320, r10	; 0x806320 <EP_MEM+0xa>
    34b2:	b0 92 21 63 	sts	0x6321, r11	; 0x806321 <EP_MEM+0xb>
/Users/askn/Documents/Zinnia-tools/Products/software/UPDI4AVR-USB/src/usb.cpp:625
        EP_MEM.res_encoding.bDataBits = 8;
    34b6:	88 e0       	ldi	r24, 0x08	; 8
    34b8:	80 93 24 63 	sts	0x6324, r24	; 0x806324 <EP_MEM+0xe>
/Users/askn/Documents/Zinnia-tools/Products/software/UPDI4AVR-USB/src/usb.cpp:627
      }
      D1PRINTF(" GLE=");
    34bc:	2d e4       	ldi	r18, 0x4D	; 77
    34be:	32 e0       	ldi	r19, 0x02	; 2
    34c0:	3f 93       	push	r19
    34c2:	2f 93       	push	r18
    34c4:	1f 93       	push	r17
    34c6:	0f 93       	push	r16
    34c8:	0e 94 2e 0a 	call	0x145c	; 0x145c <Print::printf(PGM_t const*, ...) [clone .constprop.21]>
/Users/askn/Documents/Zinnia-tools/Products/software/UPDI4AVR-USB/src/usb.cpp:628
      D1PRINTHEX(&EP_MEM.res_encoding, sizeof(LineEncoding_t));
    34cc:	67 e0       	ldi	r22, 0x07	; 7
    34ce:	70 e0       	ldi	r23, 0x00	; 0
    34d0:	8e e1       	ldi	r24, 0x1E	; 30
    34d2:	93 e6       	ldi	r25, 0x63	; 99
    34d4:	0e 94 bc 09 	call	0x1378	; 0x1378 <Print::printHex(void const*, unsigned int, char, unsigned int, char const*) [clone .constprop.18]>
    34d8:	0e 94 22 0a 	call	0x1444	; 0x1444 <Print::ln()>
/Users/askn/Documents/Zinnia-tools/Products/software/UPDI4AVR-USB/src/usb.cpp:629
      EP_RES.CNT = sizeof(LineEncoding_t);
    34dc:	87 e0       	ldi	r24, 0x07	; 7
    34de:	90 e0       	ldi	r25, 0x00	; 0
    34e0:	80 93 48 64 	sts	0x6448, r24	; 0x806448 <EP_TABLE+0x12>
    34e4:	90 93 49 64 	sts	0x6449, r25	; 0x806449 <EP_TABLE+0x13>
    34e8:	64 cf       	rjmp	.-312    	; 0x33b2 <main+0x82e>
/Users/askn/Documents/Zinnia-tools/Products/software/UPDI4AVR-USB/src/usb.cpp:631
    }
    else if (bRequest == 0x22) {  /* SET_LINE_STATE */
    34ea:	82 32       	cpi	r24, 0x22	; 34
    34ec:	71 f5       	brne	.+92     	; 0x354a <main+0x9c6>
/Users/askn/Documents/Zinnia-tools/Products/software/UPDI4AVR-USB/src/usb.cpp:633
      /* This includes the DTR and RTS settings. */
      D1PRINTF(" SLS=%02X\r\n", (uint8_t)EP_MEM.req_data.wValue);
    34ee:	80 91 18 63 	lds	r24, 0x6318	; 0x806318 <EP_MEM+0x2>
    34f2:	90 91 19 63 	lds	r25, 0x6319	; 0x806319 <EP_MEM+0x3>
    34f6:	99 27       	eor	r25, r25
    34f8:	9f 93       	push	r25
    34fa:	8f 93       	push	r24
    34fc:	81 e4       	ldi	r24, 0x41	; 65
    34fe:	92 e0       	ldi	r25, 0x02	; 2
    3500:	9f 93       	push	r25
    3502:	8f 93       	push	r24
    3504:	1f 93       	push	r17
    3506:	0f 93       	push	r16
    3508:	0e 94 2e 0a 	call	0x145c	; 0x145c <Print::printf(PGM_t const*, ...) [clone .constprop.21]>
/Users/askn/Documents/Zinnia-tools/Products/software/UPDI4AVR-USB/src/usb.cpp:634
      USART::set_line_state((uint8_t)EP_MEM.req_data.wValue);
    350c:	80 91 18 63 	lds	r24, 0x6318	; 0x806318 <EP_MEM+0x2>
set_line_state():
/Users/askn/Documents/Zinnia-tools/Products/software/UPDI4AVR-USB/src/usart.cpp:191
  void set_line_state (uint8_t _line_state) {

    /* If a physical port exists, it reflects DTR/RTS. */

  #if defined(PIN_VCP_DTR)
    if (bit_is_set(_line_state, 0))
    3510:	0f 90       	pop	r0
    3512:	0f 90       	pop	r0
    3514:	0f 90       	pop	r0
    3516:	0f 90       	pop	r0
    3518:	0f 90       	pop	r0
    351a:	0f 90       	pop	r0
    351c:	98 2f       	mov	r25, r24
    351e:	91 70       	andi	r25, 0x01	; 1
    3520:	80 ff       	sbrs	r24, 0
    3522:	0f c0       	rjmp	.+30     	; 0x3542 <main+0x9be>
/Users/askn/Documents/Zinnia-tools/Products/software/UPDI4AVR-USB/src/usart.cpp:192
      digitalWriteMacro(PIN_VCP_DTR, LOW);
    3524:	6c 98       	cbi	0x0d, 4	; 13
/Users/askn/Documents/Zinnia-tools/Products/software/UPDI4AVR-USB/src/usart.cpp:198
    else
      digitalWriteMacro(PIN_VCP_DTR, HIGH);
  #endif

  #if defined(PIN_VCP_RTS)
    if (bit_is_set(_line_state, 1))
    3526:	81 ff       	sbrs	r24, 1
    3528:	0e c0       	rjmp	.+28     	; 0x3546 <main+0x9c2>
/Users/askn/Documents/Zinnia-tools/Products/software/UPDI4AVR-USB/src/usart.cpp:199
      digitalWriteMacro(PIN_VCP_RTS, LOW);
    352a:	6d 98       	cbi	0x0d, 5	; 13
/Users/askn/Documents/Zinnia-tools/Products/software/UPDI4AVR-USB/src/usart.cpp:206
      digitalWriteMacro(PIN_VCP_RTS, HIGH);
  #endif

  #if defined(CONFIG_VCP_DTR_RESET)
    /* If DTR is set, the device will reboot assuming the host has opened the port. */
    if (!_set_line_state.bStateDTR && bit_is_set(_line_state, 0)) {
    352c:	20 91 84 60 	lds	r18, 0x6084	; 0x806084 <__data_end>
    3530:	20 fd       	sbrc	r18, 0
    3532:	04 c0       	rjmp	.+8      	; 0x353c <main+0x9b8>
    3534:	99 23       	and	r25, r25
    3536:	11 f0       	breq	.+4      	; 0x353c <main+0x9b8>
/Users/askn/Documents/Zinnia-tools/Products/software/UPDI4AVR-USB/src/usart.cpp:207
      bit_set(GPCONF, GPCONF_FAL_bp);
    3538:	e7 9a       	sbi	0x1c, 7	; 28
/Users/askn/Documents/Zinnia-tools/Products/software/UPDI4AVR-USB/src/usart.cpp:208
      bit_set(GPCONF, GPCONF_RIS_bp);
    353a:	e6 9a       	sbi	0x1c, 6	; 28
/Users/askn/Documents/Zinnia-tools/Products/software/UPDI4AVR-USB/src/usart.cpp:212
    }
  #endif

    _set_line_state.bValue = _line_state;
    353c:	80 93 84 60 	sts	0x6084, r24	; 0x806084 <__data_end>
    3540:	6d cd       	rjmp	.-1318   	; 0x301c <main+0x498>
/Users/askn/Documents/Zinnia-tools/Products/software/UPDI4AVR-USB/src/usart.cpp:194

  #if defined(PIN_VCP_DTR)
    if (bit_is_set(_line_state, 0))
      digitalWriteMacro(PIN_VCP_DTR, LOW);
    else
      digitalWriteMacro(PIN_VCP_DTR, HIGH);
    3542:	6c 9a       	sbi	0x0d, 4	; 13
    3544:	f0 cf       	rjmp	.-32     	; 0x3526 <main+0x9a2>
/Users/askn/Documents/Zinnia-tools/Products/software/UPDI4AVR-USB/src/usart.cpp:201

  #if defined(PIN_VCP_RTS)
    if (bit_is_set(_line_state, 1))
      digitalWriteMacro(PIN_VCP_RTS, LOW);
    else
      digitalWriteMacro(PIN_VCP_RTS, HIGH);
    3546:	6d 9a       	sbi	0x0d, 5	; 13
    3548:	f1 cf       	rjmp	.-30     	; 0x352c <main+0x9a8>
request_class():
/Users/askn/Documents/Zinnia-tools/Products/software/UPDI4AVR-USB/src/usb.cpp:637
      EP_RES.CNT = 0;
    }
    else if (bRequest == 0x23) {  /* SET_SEND_BREAK */
    354a:	83 32       	cpi	r24, 0x23	; 35
    354c:	09 f0       	breq	.+2      	; 0x3550 <main+0x9cc>
    354e:	fb cd       	rjmp	.-1034   	; 0x3146 <main+0x5c2>
/Users/askn/Documents/Zinnia-tools/Products/software/UPDI4AVR-USB/src/usb.cpp:640
      /* When the host application closes the port, it may send a BREAK=0. */
      /* Nothing else is used unless programmed by the application. */
      D1PRINTF(" SB=%04X\r\n", EP_MEM.req_data.wValue);
    3550:	80 91 19 63 	lds	r24, 0x6319	; 0x806319 <EP_MEM+0x3>
    3554:	8f 93       	push	r24
    3556:	80 91 18 63 	lds	r24, 0x6318	; 0x806318 <EP_MEM+0x2>
    355a:	8f 93       	push	r24
    355c:	26 e3       	ldi	r18, 0x36	; 54
    355e:	32 e0       	ldi	r19, 0x02	; 2
    3560:	3f 93       	push	r19
    3562:	2f 93       	push	r18
    3564:	1f 93       	push	r17
    3566:	0f 93       	push	r16
    3568:	0e 94 2e 0a 	call	0x145c	; 0x145c <Print::printf(PGM_t const*, ...) [clone .constprop.21]>
/Users/askn/Documents/Zinnia-tools/Products/software/UPDI4AVR-USB/src/usb.cpp:641
      _send_break = EP_MEM.req_data.wValue;
    356c:	80 91 18 63 	lds	r24, 0x6318	; 0x806318 <EP_MEM+0x2>
    3570:	90 91 19 63 	lds	r25, 0x6319	; 0x806319 <EP_MEM+0x3>
    3574:	80 93 33 64 	sts	0x6433, r24	; 0x806433 <_send_break>
    3578:	90 93 34 64 	sts	0x6434, r25	; 0x806434 <_send_break+0x1>
/Users/askn/Documents/Zinnia-tools/Products/software/UPDI4AVR-USB/src/usb.cpp:642
      if (_send_break) break_on();
    357c:	0f 90       	pop	r0
    357e:	0f 90       	pop	r0
    3580:	0f 90       	pop	r0
    3582:	0f 90       	pop	r0
    3584:	0f 90       	pop	r0
    3586:	0f 90       	pop	r0
    3588:	89 2b       	or	r24, r25
    358a:	71 f0       	breq	.+28     	; 0x35a8 <main+0xa24>
break_on():
/Users/askn/Documents/Zinnia-tools/Products/software/UPDI4AVR-USB/src/usb.cpp:373
    ep_dpo_listen();  /* continue transaction */
  }

  void break_on (void) {
    if (bit_is_set(GPCONF, GPCONF_VCP_bp)
     && bit_is_clear(GPCONF, GPCONF_BRK_bp)) {
    358c:	e1 9b       	sbis	0x1c, 1	; 28
    358e:	0a c0       	rjmp	.+20     	; 0x35a4 <main+0xa20>
    3590:	e3 99       	sbic	0x1c, 3	; 28
    3592:	08 c0       	rjmp	.+16     	; 0x35a4 <main+0xa20>
/Users/askn/Documents/Zinnia-tools/Products/software/UPDI4AVR-USB/src/usb.cpp:375
      /* SET_SEND_BREAK is called when the port is closed successfully. */
      bit_clear(GPCONF, GPCONF_OPN_bp);
    3594:	e4 98       	cbi	0x1c, 4	; 28
/Users/askn/Documents/Zinnia-tools/Products/software/UPDI4AVR-USB/src/usb.cpp:376
      _sof_count = 0;
    3596:	10 92 2f 64 	sts	0x642F, r1	; 0x80642f <_sof_count>
/Users/askn/Documents/Zinnia-tools/Products/software/UPDI4AVR-USB/src/usb.cpp:377
      USART::disable_vcp();
    359a:	0e 94 6f 0f 	call	0x1ede	; 0x1ede <USART::disable_vcp()>
/Users/askn/Documents/Zinnia-tools/Products/software/UPDI4AVR-USB/src/usb.cpp:380
  #ifdef CONFIG_VCP_TXD_ODM
      /* During Break, VCP-TxD is pulled LOW. */
      pinModeMacro(PIN_VCP_TXD, OUTPUT);
    359e:	02 9a       	sbi	0x00, 2	; 0
    35a0:	10 92 12 04 	sts	0x0412, r1	; 0x800412 <__TEXT_REGION_LENGTH__+0x7f0412>
/Users/askn/Documents/Zinnia-tools/Products/software/UPDI4AVR-USB/src/usb.cpp:383
  #endif
    }
    bit_set(GPCONF, GPCONF_BRK_bp);
    35a4:	e3 9a       	sbi	0x1c, 3	; 28
    35a6:	3a cd       	rjmp	.-1420   	; 0x301c <main+0x498>
request_class():
/Users/askn/Documents/Zinnia-tools/Products/software/UPDI4AVR-USB/src/usb.cpp:643
      /* When the host application closes the port, it may send a BREAK=0. */
      /* Nothing else is used unless programmed by the application. */
      D1PRINTF(" SB=%04X\r\n", EP_MEM.req_data.wValue);
      _send_break = EP_MEM.req_data.wValue;
      if (_send_break) break_on();
      else break_off();
    35a8:	0e 94 17 0b 	call	0x162e	; 0x162e <USB::break_off()>
    35ac:	37 cd       	rjmp	.-1426   	; 0x301c <main+0x498>
main():
/Users/askn/Documents/Zinnia-tools/Products/software/UPDI4AVR-USB/src/main.cpp:126
    if (USB::is_ep_setup()) USB::handling_control_transactions();

    /* If SW0 was used, work here. */
    if (bit_is_clear(PGCONF, PGCONF_UPDI_bp)) {
      if      (bit_is_set(GPCONF, GPCONF_FAL_bp)) SYS::reset_enter();
      else if (bit_is_set(GPCONF, GPCONF_RIS_bp)) SYS::reset_leave();
    35ae:	e6 9b       	sbis	0x1c, 6	; 28
    35b0:	b0 cc       	rjmp	.-1696   	; 0x2f12 <main+0x38e>
reset_leave():
/Users/askn/Documents/Zinnia-tools/Products/software/UPDI4AVR-USB/src/sys.cpp:276
   * This will be executed when SW0 is released.
   * If the VCP is operating, it will return to normal operation,
   * but if the USB is stopped, it will reboot at the end.
   */
  void reset_leave (void) {
    if (_jtag_arch == 5) {
    35b2:	80 91 98 60 	lds	r24, 0x6098	; 0x806098 <_jtag_arch>
    35b6:	85 30       	cpi	r24, 0x05	; 5
    35b8:	21 f4       	brne	.+8      	; 0x35c2 <main+0xa3e>
/Users/askn/Documents/Zinnia-tools/Products/software/UPDI4AVR-USB/src/sys.cpp:277
      _updi_bitmap[10] = 0x00; /* SYSRUN */
    35ba:	10 92 24 60 	sts	0x6024, r1	; 0x806024 <SYS::_updi_bitmap+0xa>
/Users/askn/Documents/Zinnia-tools/Products/software/UPDI4AVR-USB/src/sys.cpp:278
      send_bitmap(_updi_bitmap, sizeof(_updi_bitmap) * 8);
    35be:	0e 94 b7 04 	call	0x96e	; 0x96e <SYS::send_bitmap(unsigned char const*, unsigned int) [clone .constprop.9]>
/Users/askn/Documents/Zinnia-tools/Products/software/UPDI4AVR-USB/src/sys.cpp:280
    }
    openDrainWriteMacro(PIN_PG_TRST, HIGH);
    35c2:	01 98       	cbi	0x00, 1	; 0
delay_millis():
/Users/askn/Library/Arduino15/packages/MultiX-Zinnia/hardware/modernAVR/0.2.14/cores/modernAVR/api/delay_busywait.h:42
    35c4:	ff e7       	ldi	r31, 0x7F	; 127
    35c6:	2a e1       	ldi	r18, 0x1A	; 26
    35c8:	36 e0       	ldi	r19, 0x06	; 6
    35ca:	f1 50       	subi	r31, 0x01	; 1
    35cc:	20 40       	sbci	r18, 0x00	; 0
    35ce:	30 40       	sbci	r19, 0x00	; 0
    35d0:	e1 f7       	brne	.-8      	; 0x35ca <main+0xa46>
    35d2:	00 c0       	rjmp	.+0      	; 0x35d4 <main+0xa50>
    35d4:	00 00       	nop
reset_leave():
/Users/askn/Documents/Zinnia-tools/Products/software/UPDI4AVR-USB/src/sys.cpp:285
  #ifdef CONFIG_VCP_DTR_RESET
    /* A delay of 64ms or more between when the bootloader starts and when RxD opens. */
    delay_millis(100);
  #endif
    D1PRINTF("<RST:OUT>\r\n");
    35d6:	84 ea       	ldi	r24, 0xA4	; 164
    35d8:	92 e0       	ldi	r25, 0x02	; 2
    35da:	9f 93       	push	r25
    35dc:	8f 93       	push	r24
    35de:	1f 93       	push	r17
    35e0:	0f 93       	push	r16
    35e2:	0e 94 2e 0a 	call	0x145c	; 0x145c <Print::printf(PGM_t const*, ...) [clone .constprop.21]>
/Users/askn/Documents/Zinnia-tools/Products/software/UPDI4AVR-USB/src/sys.cpp:286
    if (bit_is_set(GPCONF, GPCONF_USB_bp))
    35e6:	0f 90       	pop	r0
    35e8:	0f 90       	pop	r0
    35ea:	0f 90       	pop	r0
    35ec:	0f 90       	pop	r0
    35ee:	e0 9b       	sbis	0x1c, 0	; 28
    35f0:	05 c0       	rjmp	.+10     	; 0x35fc <main+0xa78>
/Users/askn/Documents/Zinnia-tools/Products/software/UPDI4AVR-USB/src/sys.cpp:287
      LED_HeartBeat();  /* The USB is ready. */
    35f2:	0e 94 a4 08 	call	0x1148	; 0x1148 <SYS::LED_HeartBeat()>
/Users/askn/Documents/Zinnia-tools/Products/software/UPDI4AVR-USB/src/sys.cpp:292
    else if (!USB0_ADDR)
      reboot();         /* USB disconnected, System reboot. */
    else
      LED_Flash();      /* USB is not yet enabled. */
    bit_clear(GPCONF, GPCONF_FAL_bp);
    35f6:	e7 98       	cbi	0x1c, 7	; 28
/Users/askn/Documents/Zinnia-tools/Products/software/UPDI4AVR-USB/src/sys.cpp:293
    bit_clear(GPCONF, GPCONF_RIS_bp);
    35f8:	e6 98       	cbi	0x1c, 6	; 28
    35fa:	8b cc       	rjmp	.-1770   	; 0x2f12 <main+0x38e>
/Users/askn/Documents/Zinnia-tools/Products/software/UPDI4AVR-USB/src/sys.cpp:288
    delay_millis(100);
  #endif
    D1PRINTF("<RST:OUT>\r\n");
    if (bit_is_set(GPCONF, GPCONF_USB_bp))
      LED_HeartBeat();  /* The USB is ready. */
    else if (!USB0_ADDR)
    35fc:	80 91 03 0c 	lds	r24, 0x0C03	; 0x800c03 <__TEXT_REGION_LENGTH__+0x7f0c03>
    3600:	81 11       	cpse	r24, r1
    3602:	03 c0       	rjmp	.+6      	; 0x360a <main+0xa86>
/Users/askn/Documents/Zinnia-tools/Products/software/UPDI4AVR-USB/src/sys.cpp:289
      reboot();         /* USB disconnected, System reboot. */
    3604:	0e 94 59 0e 	call	0x1cb2	; 0x1cb2 <SYS::reboot()>
    3608:	f6 cf       	rjmp	.-20     	; 0x35f6 <main+0xa72>
/Users/askn/Documents/Zinnia-tools/Products/software/UPDI4AVR-USB/src/sys.cpp:291
    else
      LED_Flash();      /* USB is not yet enabled. */
    360a:	0e 94 8f 08 	call	0x111e	; 0x111e <SYS::LED_Flash()>
    360e:	f3 cf       	rjmp	.-26     	; 0x35f6 <main+0xa72>
read_byte():
/Users/askn/Documents/Zinnia-tools/Products/software/UPDI4AVR-USB/src/usb.cpp:443
    else ep_cdi_listen();
  }

  uint8_t read_byte (void) {
    uint8_t _c = 0;
    if (EP_CDO.CNT != _recv_count) {
    3610:	40 91 70 64 	lds	r20, 0x6470	; 0x806470 <EP_TABLE+0x3a>
    3614:	50 91 71 64 	lds	r21, 0x6471	; 0x806471 <EP_TABLE+0x3b>
    3618:	28 2f       	mov	r18, r24
    361a:	30 e0       	ldi	r19, 0x00	; 0
main():
/Users/askn/Documents/Zinnia-tools/Products/software/UPDI4AVR-USB/src/usb.cpp:442
    if (_send_count < 64) _sof_count = 30;
    else ep_cdi_listen();
  }

  uint8_t read_byte (void) {
    uint8_t _c = 0;
    361c:	f1 2c       	mov	r15, r1
read_byte():
/Users/askn/Documents/Zinnia-tools/Products/software/UPDI4AVR-USB/src/usb.cpp:443
    if (EP_CDO.CNT != _recv_count) {
    361e:	42 17       	cp	r20, r18
    3620:	53 07       	cpc	r21, r19
    3622:	39 f0       	breq	.+14     	; 0x3632 <main+0xaae>
/Users/askn/Documents/Zinnia-tools/Products/software/UPDI4AVR-USB/src/usb.cpp:450
      if (_recv_count == 0) {
        D2PRINTF(" VO=%02X:", EP_CDO.CNT);
        D2PRINTHEX(&EP_MEM.cdo_data, EP_CDO.CNT);
      }
  #endif
      _c = EP_MEM.cdo_data[_recv_count++];
    3624:	8f 5f       	subi	r24, 0xFF	; 255
    3626:	80 93 31 64 	sts	0x6431, r24	; 0x806431 <_recv_count>
    362a:	22 59       	subi	r18, 0x92	; 146
    362c:	3c 49       	sbci	r19, 0x9C	; 156
    362e:	f9 01       	movw	r30, r18
    3630:	f0 80       	ld	r15, Z
/Users/askn/Documents/Zinnia-tools/Products/software/UPDI4AVR-USB/src/usb.cpp:452
    }
    if (EP_CDO.CNT == _recv_count) ep_cdo_listen();
    3632:	80 91 70 64 	lds	r24, 0x6470	; 0x806470 <EP_TABLE+0x3a>
    3636:	90 91 71 64 	lds	r25, 0x6471	; 0x806471 <EP_TABLE+0x3b>
    363a:	20 91 31 64 	lds	r18, 0x6431	; 0x806431 <_recv_count>
    363e:	28 17       	cp	r18, r24
    3640:	19 06       	cpc	r1, r25
    3642:	11 f4       	brne	.+4      	; 0x3648 <main+0xac4>
    3644:	0e 94 ff 04 	call	0x9fe	; 0x9fe <USB::ep_cdo_listen()>
vcp_transceiver():
/Users/askn/Documents/Zinnia-tools/Products/software/UPDI4AVR-USB/src/usb.cpp:503
  #if defined(CONFIG_VCP_CTS_ENABLE)
     && !digitalReadMacro(PIN_VCP_CTS)
  #endif
     && bit_is_set(USART0_STATUS, USART_DREIF_bp)
     && read_available()) {
      USART0_TXDATAL = read_byte();
    3648:	f0 92 02 08 	sts	0x0802, r15	; 0x800802 <__TEXT_REGION_LENGTH__+0x7f0802>
    364c:	7c cc       	rjmp	.-1800   	; 0x2f46 <main+0x3c2>
read_drop():
/Users/askn/Documents/Zinnia-tools/Products/software/UPDI4AVR-USB/src/usb.cpp:466
    }
    return _s != 0;
  }

  void read_drop (void) {
    if (bit_is_set(EP_CDO.STATUS, USB_BUSNAK_bp)) ep_cdo_listen();
    364e:	80 91 6e 64 	lds	r24, 0x646E	; 0x80646e <EP_TABLE+0x38>
    3652:	81 ff       	sbrs	r24, 1
    3654:	78 cc       	rjmp	.-1808   	; 0x2f46 <main+0x3c2>
    3656:	75 cc       	rjmp	.-1814   	; 0x2f42 <main+0x3be>
cci_break_count():
/Users/askn/Documents/Zinnia-tools/Products/software/UPDI4AVR-USB/src/usb.cpp:404
        _send_break -= USB_CCI_INTERVAL;
        if (bit_is_set(EP_CCI.STATUS, USB_BUSNAK_bp))
          ep_cci_listen();
      }
      else {
        _send_break = 0;
    3658:	10 92 33 64 	sts	0x6433, r1	; 0x806433 <_send_break>
    365c:	10 92 34 64 	sts	0x6434, r1	; 0x806434 <_send_break+0x1>
/Users/askn/Documents/Zinnia-tools/Products/software/UPDI4AVR-USB/src/usb.cpp:405
        break_off();
    3660:	0e 94 17 0b 	call	0x162e	; 0x162e <USB::break_off()>
    3664:	8a cc       	rjmp	.-1772   	; 0x2f7a <main+0x3f6>
dap_command_check():
/Users/askn/Documents/Zinnia-tools/Products/software/UPDI4AVR-USB/src/jtag.cpp:67
     * A maximum of 15 chunks is possible,
     * resulting in a maximum payload length of 900 bytes.
     */
    if (_cmd == 0x80) {             /* DAP_EDBG_VENDOR_AVR_CMD */
      uint8_t _endf = _sub & 0x0F;
      uint8_t _frag = _sub >> 4;
    3666:	90 e0       	ldi	r25, 0x00	; 0
    3668:	e4 e0       	ldi	r30, 0x04	; 4
    366a:	95 95       	asr	r25
    366c:	87 95       	ror	r24
    366e:	ea 95       	dec	r30
    3670:	e1 f7       	brne	.-8      	; 0x366a <main+0xae6>
    3672:	58 2e       	mov	r5, r24
/Users/askn/Documents/Zinnia-tools/Products/software/UPDI4AVR-USB/src/jtag.cpp:68
      uint8_t _size = EP_MEM.dap_data[3];
    3674:	c0 90 31 63 	lds	r12, 0x6331	; 0x806331 <EP_MEM+0x1b>
/Users/askn/Documents/Zinnia-tools/Products/software/UPDI4AVR-USB/src/jtag.cpp:77
        D1PRINTF("<EDBG_FAIL>\r\n");
        EP_MEM.dap_data[1] = 0x00;  /* EDBG_RSP_FAIL */
      }
      else {
        /* Detect the first chunk. */
        if (_frag == 1) _packet_chunks = 0;
    3678:	31 e0       	ldi	r19, 0x01	; 1
    367a:	83 13       	cpse	r24, r19
    367c:	02 c0       	rjmp	.+4      	; 0x3682 <main+0xafe>
    367e:	10 92 94 60 	sts	0x6094, r1	; 0x806094 <__bss_end>
/Users/askn/Documents/Zinnia-tools/Products/software/UPDI4AVR-USB/src/jtag.cpp:69
     */
    if (_cmd == 0x80) {             /* DAP_EDBG_VENDOR_AVR_CMD */
      uint8_t _endf = _sub & 0x0F;
      uint8_t _frag = _sub >> 4;
      uint8_t _size = EP_MEM.dap_data[3];
      size_t  _ofst = (_frag - 1) * 60;
    3682:	01 97       	sbiw	r24, 0x01	; 1
    3684:	2c e3       	ldi	r18, 0x3C	; 60
    3686:	28 9f       	mul	r18, r24
    3688:	70 01       	movw	r14, r0
    368a:	29 9f       	mul	r18, r25
    368c:	f0 0c       	add	r15, r0
    368e:	11 24       	eor	r1, r1
/Users/askn/Documents/Zinnia-tools/Products/software/UPDI4AVR-USB/src/jtag.cpp:78
        EP_MEM.dap_data[1] = 0x00;  /* EDBG_RSP_FAIL */
      }
      else {
        /* Detect the first chunk. */
        if (_frag == 1) _packet_chunks = 0;
        ++_packet_chunks;
    3690:	70 90 94 60 	lds	r7, 0x6094	; 0x806094 <__bss_end>
    3694:	73 94       	inc	r7
    3696:	70 92 94 60 	sts	0x6094, r7	; 0x806094 <__bss_end>
/Users/askn/Documents/Zinnia-tools/Products/software/UPDI4AVR-USB/src/jtag.cpp:79
        memcpy(&packet.rawData[_ofst], &EP_MEM.dap_data[4], _size);
    369a:	d1 2c       	mov	r13, r1
    369c:	a6 01       	movw	r20, r12
    369e:	62 e3       	ldi	r22, 0x32	; 50
    36a0:	73 e6       	ldi	r23, 0x63	; 99
    36a2:	c7 01       	movw	r24, r14
    36a4:	82 53       	subi	r24, 0x32	; 50
    36a6:	9f 49       	sbci	r25, 0x9F	; 159
    36a8:	0e 94 da 24 	call	0x49b4	; 0x49b4 <memcpy>
/Users/askn/Documents/Zinnia-tools/Products/software/UPDI4AVR-USB/src/jtag.cpp:80
        EP_MEM.dap_data[1] = 0x01;  /* EDBG_RSP_OK */
    36ac:	81 e0       	ldi	r24, 0x01	; 1
    36ae:	80 93 2f 63 	sts	0x632F, r24	; 0x80632f <EP_MEM+0x19>
/Users/askn/Documents/Zinnia-tools/Products/software/UPDI4AVR-USB/src/jtag.cpp:82
        D3PRINTHEX(&EP_MEM.dap_data, _size + 4);
        if (_endf == _frag) {       /* end of defragment */
    36b2:	65 14       	cp	r6, r5
    36b4:	11 f0       	breq	.+4      	; 0x36ba <main+0xb36>
main():
/Users/askn/Documents/Zinnia-tools/Products/software/UPDI4AVR-USB/src/jtag.cpp:51
  /*
   * Command numbers 0x80 and above are vendor extensions, EDBG Payload uses 0x80 and x81.
   * Additionally, 0x82 is reserved for device event notification.
   */
  bool dap_command_check (void) {
    bool _result = false;
    36b6:	e1 2c       	mov	r14, r1
    36b8:	0c c0       	rjmp	.+24     	; 0x36d2 <main+0xb4e>
dap_command_check():
/Users/askn/Documents/Zinnia-tools/Products/software/UPDI4AVR-USB/src/jtag.cpp:83
        ++_packet_chunks;
        memcpy(&packet.rawData[_ofst], &EP_MEM.dap_data[4], _size);
        EP_MEM.dap_data[1] = 0x01;  /* EDBG_RSP_OK */
        D3PRINTHEX(&EP_MEM.dap_data, _size + 4);
        if (_endf == _frag) {       /* end of defragment */
          _packet_length = _ofst + _size;
    36ba:	ec 0c       	add	r14, r12
    36bc:	fd 1c       	adc	r15, r13
    36be:	e0 92 9c 60 	sts	0x609C, r14	; 0x80609c <_packet_length>
    36c2:	f0 92 9d 60 	sts	0x609D, r15	; 0x80609d <_packet_length+0x1>
/Users/askn/Documents/Zinnia-tools/Products/software/UPDI4AVR-USB/src/jtag.cpp:86
          D2PRINTF(" SQ=%03X:%03X<", packet.out.sequence, _packet_length);
          D2PRINTHEX(&packet, _packet_length);
          if (_packet_chunks == _endf) {
    36c6:	67 10       	cpse	r6, r7
    36c8:	9e c0       	rjmp	.+316    	; 0x3806 <main+0xc82>
/Users/askn/Documents/Zinnia-tools/Products/software/UPDI4AVR-USB/src/jtag.cpp:89
            /* True if an EDBG Payload is received. */
            D2PRINTF("<EDBG_OK>\r\n");
            _packet_endfrag = 0;
    36ca:	10 92 99 60 	sts	0x6099, r1	; 0x806099 <_packet_endfrag>
main():
/Users/askn/Documents/Zinnia-tools/Products/software/UPDI4AVR-USB/src/jtag.cpp:90
            _result = true;
    36ce:	ee 24       	eor	r14, r14
    36d0:	e3 94       	inc	r14
ep_dpi_listen():
/Users/askn/Documents/Zinnia-tools/Products/software/UPDI4AVR-USB/src/usb.cpp:279
    loop_until_bit_is_clear(USB0_INTFLAGSB, USB_RMWBUSY_bp);
    USB_EP_STATUS_CLR(USB_EP_RES) = ~USB_TOGGLE_bm;
  }

  void ep_dpi_listen (void) {
    EP_DPI.CNT = 64;
    36d2:	80 e4       	ldi	r24, 0x40	; 64
    36d4:	90 e0       	ldi	r25, 0x00	; 0
    36d6:	80 93 58 64 	sts	0x6458, r24	; 0x806458 <EP_TABLE+0x22>
    36da:	90 93 59 64 	sts	0x6459, r25	; 0x806459 <EP_TABLE+0x23>
/Users/askn/Documents/Zinnia-tools/Products/software/UPDI4AVR-USB/src/usb.cpp:280
    EP_DPI.MCNT = 0;
    36de:	10 92 5c 64 	sts	0x645C, r1	; 0x80645c <EP_TABLE+0x26>
    36e2:	10 92 5d 64 	sts	0x645D, r1	; 0x80645d <EP_TABLE+0x27>
/Users/askn/Documents/Zinnia-tools/Products/software/UPDI4AVR-USB/src/usb.cpp:281
    loop_until_bit_is_clear(USB0_INTFLAGSB, USB_RMWBUSY_bp);
    36e6:	80 91 0b 0c 	lds	r24, 0x0C0B	; 0x800c0b <__TEXT_REGION_LENGTH__+0x7f0c0b>
    36ea:	82 fd       	sbrc	r24, 2
    36ec:	fc cf       	rjmp	.-8      	; 0x36e6 <main+0xb62>
/Users/askn/Documents/Zinnia-tools/Products/software/UPDI4AVR-USB/src/usb.cpp:282
    USB_EP_STATUS_CLR(USB_EP_DPI) = ~USB_TOGGLE_bm;
    36ee:	8e ef       	ldi	r24, 0xFE	; 254
    36f0:	80 93 46 0c 	sts	0x0C46, r24	; 0x800c46 <__TEXT_REGION_LENGTH__+0x7f0c46>
ep_dpo_listen():
/Users/askn/Documents/Zinnia-tools/Products/software/UPDI4AVR-USB/src/usb.cpp:286
  }

  void ep_dpo_listen (void) {
    EP_DPO.CNT = 0;
    36f4:	10 92 60 64 	sts	0x6460, r1	; 0x806460 <EP_TABLE+0x2a>
    36f8:	10 92 61 64 	sts	0x6461, r1	; 0x806461 <EP_TABLE+0x2b>
/Users/askn/Documents/Zinnia-tools/Products/software/UPDI4AVR-USB/src/usb.cpp:287
    loop_until_bit_is_clear(USB0_INTFLAGSB, USB_RMWBUSY_bp);
    36fc:	80 91 0b 0c 	lds	r24, 0x0C0B	; 0x800c0b <__TEXT_REGION_LENGTH__+0x7f0c0b>
    3700:	82 fd       	sbrc	r24, 2
    3702:	fc cf       	rjmp	.-8      	; 0x36fc <main+0xb78>
/Users/askn/Documents/Zinnia-tools/Products/software/UPDI4AVR-USB/src/usb.cpp:288
    USB_EP_STATUS_CLR(USB_EP_DPO) = ~USB_TOGGLE_bm;
    3704:	8e ef       	ldi	r24, 0xFE	; 254
    3706:	80 93 48 0c 	sts	0x0C48, r24	; 0x800c48 <__TEXT_REGION_LENGTH__+0x7f0c48>
main():
/Users/askn/Documents/Zinnia-tools/Products/software/UPDI4AVR-USB/src/main.cpp:151

    /*** If CMSIS-DAP is not received, return to the top. ***/
    if (USB::is_not_dap()) continue;

    /*** CMSIS-DAP and JTAG3 packet receiver ***/
    if (JTAG::dap_command_check()) JTAG::jtag_scope_branch();
    370a:	ee 20       	and	r14, r14
    370c:	09 f4       	brne	.+2      	; 0x3710 <main+0xb8c>
    370e:	37 cb       	rjmp	.-2450   	; 0x2d7e <main+0x1fa>
jtag_scope_branch():
/Users/askn/Documents/Zinnia-tools/Products/software/UPDI4AVR-USB/src/jtag.cpp:384

  /* Processing branches depending on the scope specifier. */
  /* Currently, four types of scope are known: */
  void jtag_scope_branch (void) {
    size_t _rspsize = 0;
    uint8_t _scope  = packet.out.scope;
    3710:	f0 90 d2 60 	lds	r15, 0x60D2	; 0x8060d2 <packet+0x4>
/Users/askn/Documents/Zinnia-tools/Products/software/UPDI4AVR-USB/src/jtag.cpp:385
    D1PRINTF("SCOPE=%02X,C=%02X,S=%02X,L=%02X\r\n",
    3714:	80 91 d6 60 	lds	r24, 0x60D6	; 0x8060d6 <packet+0x8>
    3718:	1f 92       	push	r1
    371a:	8f 93       	push	r24
    371c:	80 91 d5 60 	lds	r24, 0x60D5	; 0x8060d5 <packet+0x7>
    3720:	1f 92       	push	r1
    3722:	8f 93       	push	r24
    3724:	80 91 d3 60 	lds	r24, 0x60D3	; 0x8060d3 <packet+0x5>
    3728:	1f 92       	push	r1
    372a:	8f 93       	push	r24
    372c:	1f 92       	push	r1
    372e:	ff 92       	push	r15
    3730:	81 e6       	ldi	r24, 0x61	; 97
    3732:	96 e0       	ldi	r25, 0x06	; 6
    3734:	9f 93       	push	r25
    3736:	8f 93       	push	r24
    3738:	1f 93       	push	r17
    373a:	0f 93       	push	r16
    373c:	0e 94 2e 0a 	call	0x145c	; 0x145c <Print::printf(PGM_t const*, ...) [clone .constprop.21]>
/Users/askn/Documents/Zinnia-tools/Products/software/UPDI4AVR-USB/src/jtag.cpp:390
      _scope,
      packet.out.cmd,
      packet.out.section,
      packet.out.index);
    if      (_scope == 0x01) _rspsize = jtag_scope_general();       /* SCOPE_GENERAL */
    3740:	cd bf       	out	0x3d, r28	; 61
    3742:	de bf       	out	0x3e, r29	; 62
    3744:	91 e0       	ldi	r25, 0x01	; 1
    3746:	f9 12       	cpse	r15, r25
    3748:	68 c1       	rjmp	.+720    	; 0x3a1a <main+0xe96>
jtag_scope_general():
/Users/askn/Documents/Zinnia-tools/Products/software/UPDI4AVR-USB/src/jtag.cpp:175
  }

  /*** Only a subset of JTAGICE3 commands are implemented. ***/
  size_t jtag_scope_general (void) {
    size_t  _rspsize = 0;
    uint8_t _cmd     = packet.out.cmd;
    374a:	80 91 d3 60 	lds	r24, 0x60D3	; 0x8060d3 <packet+0x5>
/Users/askn/Documents/Zinnia-tools/Products/software/UPDI4AVR-USB/src/jtag.cpp:176
    uint8_t _section = packet.out.section;
    374e:	60 90 d5 60 	lds	r6, 0x60D5	; 0x8060d5 <packet+0x7>
/Users/askn/Documents/Zinnia-tools/Products/software/UPDI4AVR-USB/src/jtag.cpp:177
    uint8_t _index   = packet.out.index;
    3752:	70 90 d6 60 	lds	r7, 0x60D6	; 0x8060d6 <packet+0x8>
/Users/askn/Documents/Zinnia-tools/Products/software/UPDI4AVR-USB/src/jtag.cpp:178
    uint8_t _length  = packet.out.length;
    3756:	50 90 d7 60 	lds	r5, 0x60D7	; 0x8060d7 <packet+0x9>
/Users/askn/Documents/Zinnia-tools/Products/software/UPDI4AVR-USB/src/jtag.cpp:179
    if (_cmd == 0x02) {             /* CMD3_GET_PARAMETER */
    375a:	82 30       	cpi	r24, 0x02	; 2
    375c:	09 f0       	breq	.+2      	; 0x3760 <main+0xbdc>
    375e:	28 c1       	rjmp	.+592    	; 0x39b0 <main+0xe2c>
/Users/askn/Documents/Zinnia-tools/Products/software/UPDI4AVR-USB/src/jtag.cpp:180
      D1PRINTF(" GEN_GET_PARAM=%02X:%02X:%02X\r\n", _section, _index, _length);
    3760:	e5 2c       	mov	r14, r5
    3762:	f1 2c       	mov	r15, r1
    3764:	c7 2c       	mov	r12, r7
    3766:	d1 2c       	mov	r13, r1
    3768:	1f 92       	push	r1
    376a:	5f 92       	push	r5
    376c:	1f 92       	push	r1
    376e:	7f 92       	push	r7
    3770:	1f 92       	push	r1
    3772:	6f 92       	push	r6
    3774:	8b e4       	ldi	r24, 0x4B	; 75
    3776:	93 e0       	ldi	r25, 0x03	; 3
    3778:	9f 93       	push	r25
    377a:	8f 93       	push	r24
    377c:	1f 93       	push	r17
    377e:	0f 93       	push	r16
    3780:	0e 94 2e 0a 	call	0x145c	; 0x145c <Print::printf(PGM_t const*, ...) [clone .constprop.21]>
/Users/askn/Documents/Zinnia-tools/Products/software/UPDI4AVR-USB/src/jtag.cpp:181
      if (_section == 0) {          /* SET_GET_CTXT_CONFIG */
    3784:	cd bf       	out	0x3d, r28	; 61
    3786:	de bf       	out	0x3e, r29	; 62
    3788:	61 10       	cpse	r6, r1
    378a:	ab c0       	rjmp	.+342    	; 0x38e2 <main+0xd5e>
/Users/askn/Documents/Zinnia-tools/Products/software/UPDI4AVR-USB/src/jtag.cpp:183
        /* _index == 0-5 */
        memcpy_P(&packet.in.data[0], &jtag_version[_index], _length);
    378c:	b6 01       	movw	r22, r12
    378e:	6a 5b       	subi	r22, 0xBA	; 186
    3790:	7c 4f       	sbci	r23, 0xFC	; 252
    3792:	a7 01       	movw	r20, r14
    3794:	85 ed       	ldi	r24, 0xD5	; 213
    3796:	90 e6       	ldi	r25, 0x60	; 96
    3798:	ea d5       	rcall	.+3028   	; 0x436e <memcpy_P>
/Users/askn/Documents/Zinnia-tools/Products/software/UPDI4AVR-USB/src/jtag.cpp:184
        D1PRINTF(" VESRION=");
    379a:	8c e3       	ldi	r24, 0x3C	; 60
    379c:	93 e0       	ldi	r25, 0x03	; 3
    379e:	9f 93       	push	r25
    37a0:	8f 93       	push	r24
    37a2:	1f 93       	push	r17
    37a4:	0f 93       	push	r16
    37a6:	0e 94 2e 0a 	call	0x145c	; 0x145c <Print::printf(PGM_t const*, ...) [clone .constprop.21]>
/Users/askn/Documents/Zinnia-tools/Products/software/UPDI4AVR-USB/src/jtag.cpp:185
        D1PRINTHEX(&packet.in.data[0], _length);
    37aa:	b7 01       	movw	r22, r14
    37ac:	85 ed       	ldi	r24, 0xD5	; 213
    37ae:	90 e6       	ldi	r25, 0x60	; 96
    37b0:	0e 94 bc 09 	call	0x1378	; 0x1378 <Print::printHex(void const*, unsigned int, char, unsigned int, char const*) [clone .constprop.18]>
    37b4:	0e 94 22 0a 	call	0x1444	; 0x1444 <Print::ln()>
    37b8:	0f 90       	pop	r0
    37ba:	0f 90       	pop	r0
    37bc:	0f 90       	pop	r0
    37be:	0f 90       	pop	r0
/Users/askn/Documents/Zinnia-tools/Products/software/UPDI4AVR-USB/src/jtag.cpp:200
          /* Called with PowerDebugger HAS_VTARG_ADJ */
          D1PRINTF(" PHYSICAL=%02X:%02X\r\n", _index, _length);
          memcpy_P(&packet.in.data[0], &jtag_physical[_index & 7], _length);
        }
      }
      packet.in.res = 0x184;        /* RSP3_DATA */
    37c0:	84 e8       	ldi	r24, 0x84	; 132
    37c2:	91 e0       	ldi	r25, 0x01	; 1
    37c4:	80 93 d3 60 	sts	0x60D3, r24	; 0x8060d3 <packet+0x5>
    37c8:	90 93 d4 60 	sts	0x60D4, r25	; 0x8060d4 <packet+0x6>
/Users/askn/Documents/Zinnia-tools/Products/software/UPDI4AVR-USB/src/jtag.cpp:201
      _rspsize = _length + 1;
    37cc:	3f ef       	ldi	r19, 0xFF	; 255
    37ce:	e3 1a       	sub	r14, r19
    37d0:	f3 0a       	sbc	r15, r19
complete_jtag_transactions():
/Users/askn/Documents/Zinnia-tools/Products/software/UPDI4AVR-USB/src/jtag.cpp:163
    return _result; /* True if an EDBG Payload is received. */
  }

  /*** Prepare for EDBG payload request from device to host ***/
  void complete_jtag_transactions (size_t _length) {
    _packet_length = _length + 6; /* TOKEN + SEQ[2] + EOT + PAD */
    37d2:	97 01       	movw	r18, r14
    37d4:	2a 5f       	subi	r18, 0xFA	; 250
    37d6:	3f 4f       	sbci	r19, 0xFF	; 255
    37d8:	20 93 9c 60 	sts	0x609C, r18	; 0x80609c <_packet_length>
    37dc:	30 93 9d 60 	sts	0x609D, r19	; 0x80609d <_packet_length+0x1>
/Users/askn/Documents/Zinnia-tools/Products/software/UPDI4AVR-USB/src/jtag.cpp:164
    _packet_fragment = 0;
    37e0:	10 92 9a 60 	sts	0x609A, r1	; 0x80609a <_packet_fragment>
/Users/askn/Documents/Zinnia-tools/Products/software/UPDI4AVR-USB/src/jtag.cpp:165
    _packet_endfrag = (_length + 65) / 60;  /* 1 to 15 */
    37e4:	c7 01       	movw	r24, r14
    37e6:	8f 5b       	subi	r24, 0xBF	; 191
    37e8:	9f 4f       	sbci	r25, 0xFF	; 255
    37ea:	6c e3       	ldi	r22, 0x3C	; 60
    37ec:	70 e0       	ldi	r23, 0x00	; 0
    37ee:	0e 94 6e 24 	call	0x48dc	; 0x48dc <__udivmodhi4>
    37f2:	60 93 99 60 	sts	0x6099, r22	; 0x806099 <_packet_endfrag>
/Users/askn/Documents/Zinnia-tools/Products/software/UPDI4AVR-USB/src/jtag.cpp:166
    packet.in.token = 0x0E;                 /* TOKEN */
    37f6:	8e e0       	ldi	r24, 0x0E	; 14
    37f8:	80 93 cf 60 	sts	0x60CF, r24	; 0x8060cf <packet+0x1>
/Users/askn/Documents/Zinnia-tools/Products/software/UPDI4AVR-USB/src/jtag.cpp:167
    packet.rawData[_packet_length] = 0;     /* EOT */
    37fc:	22 53       	subi	r18, 0x32	; 50
    37fe:	3f 49       	sbci	r19, 0x9F	; 159
    3800:	f9 01       	movw	r30, r18
    3802:	10 82       	st	Z, r1
    3804:	bc ca       	rjmp	.-2696   	; 0x2d7e <main+0x1fa>
dap_command_check():
/Users/askn/Documents/Zinnia-tools/Products/software/UPDI4AVR-USB/src/jtag.cpp:94
            _packet_endfrag = 0;
            _result = true;
          }
          else {
            /* A missing chunk is detected, so an error is returned. */
            D1PRINTF("<EDBG_FAIL>\r\n");
    3806:	8f eb       	ldi	r24, 0xBF	; 191
    3808:	92 e0       	ldi	r25, 0x02	; 2
    380a:	cf cb       	rjmp	.-2146   	; 0x2faa <main+0x426>
/Users/askn/Documents/Zinnia-tools/Products/software/UPDI4AVR-USB/src/jtag.cpp:100
            EP_MEM.dap_data[1] = 0x00;  /* EDBG_RSP_FAIL */
          }
        }
      }
    }
    else if (_cmd == 0x81) {        /* DAP_EDBG_VENDOR_AVR_RSP */
    380c:	91 38       	cpi	r25, 0x81	; 129
    380e:	e9 f5       	brne	.+122    	; 0x388a <main+0xd06>
/Users/askn/Documents/Zinnia-tools/Products/software/UPDI4AVR-USB/src/jtag.cpp:101
      EP_MEM.dap_data[2] = 0;       /* Always zero */
    3810:	10 92 30 63 	sts	0x6330, r1	; 0x806330 <EP_MEM+0x1a>
/Users/askn/Documents/Zinnia-tools/Products/software/UPDI4AVR-USB/src/jtag.cpp:102
      if (_packet_endfrag == 0) {
    3814:	90 91 99 60 	lds	r25, 0x6099	; 0x806099 <_packet_endfrag>
    3818:	91 11       	cpse	r25, r1
    381a:	0d c0       	rjmp	.+26     	; 0x3836 <main+0xcb2>
/Users/askn/Documents/Zinnia-tools/Products/software/UPDI4AVR-USB/src/jtag.cpp:103
        D1PRINTF("<EDBG_EMPTY>\r\n");
    381c:	80 eb       	ldi	r24, 0xB0	; 176
    381e:	92 e0       	ldi	r25, 0x02	; 2
    3820:	9f 93       	push	r25
    3822:	8f 93       	push	r24
    3824:	1f 93       	push	r17
    3826:	0f 93       	push	r16
    3828:	0e 94 2e 0a 	call	0x145c	; 0x145c <Print::printf(PGM_t const*, ...) [clone .constprop.21]>
/Users/askn/Documents/Zinnia-tools/Products/software/UPDI4AVR-USB/src/jtag.cpp:104
        EP_MEM.dap_data[1] = 0;
    382c:	10 92 2f 63 	sts	0x632F, r1	; 0x80632f <EP_MEM+0x19>
/Users/askn/Documents/Zinnia-tools/Products/software/UPDI4AVR-USB/src/jtag.cpp:105
        EP_MEM.dap_data[3] = 0;
    3830:	10 92 31 63 	sts	0x6331, r1	; 0x806331 <EP_MEM+0x1b>
    3834:	c2 cb       	rjmp	.-2172   	; 0x2fba <main+0x436>
/Users/askn/Documents/Zinnia-tools/Products/software/UPDI4AVR-USB/src/jtag.cpp:108
      }
      else {
        memcpy(&EP_MEM.dap_data[4], &packet.in.token + (_packet_fragment * 60), 60);
    3836:	80 91 9a 60 	lds	r24, 0x609A	; 0x80609a <_packet_fragment>
    383a:	2c e3       	ldi	r18, 0x3C	; 60
    383c:	82 9f       	mul	r24, r18
    383e:	f0 01       	movw	r30, r0
    3840:	11 24       	eor	r1, r1
    3842:	e1 53       	subi	r30, 0x31	; 49
    3844:	ff 49       	sbci	r31, 0x9F	; 159
    3846:	a2 e3       	ldi	r26, 0x32	; 50
    3848:	b3 e6       	ldi	r27, 0x63	; 99
    384a:	01 90       	ld	r0, Z+
    384c:	0d 92       	st	X+, r0
    384e:	2a 95       	dec	r18
    3850:	e1 f7       	brne	.-8      	; 0x384a <main+0xcc6>
/Users/askn/Documents/Zinnia-tools/Products/software/UPDI4AVR-USB/src/jtag.cpp:109
        EP_MEM.dap_data[1] = ((++_packet_fragment) << 4) | _packet_endfrag;
    3852:	8f 5f       	subi	r24, 0xFF	; 255
    3854:	80 93 9a 60 	sts	0x609A, r24	; 0x80609a <_packet_fragment>
    3858:	40 e1       	ldi	r20, 0x10	; 16
    385a:	84 9f       	mul	r24, r20
    385c:	90 01       	movw	r18, r0
    385e:	11 24       	eor	r1, r1
    3860:	29 2b       	or	r18, r25
    3862:	20 93 2f 63 	sts	0x632F, r18	; 0x80632f <EP_MEM+0x19>
    3866:	20 91 9c 60 	lds	r18, 0x609C	; 0x80609c <_packet_length>
    386a:	30 91 9d 60 	lds	r19, 0x609D	; 0x80609d <_packet_length+0x1>
/Users/askn/Documents/Zinnia-tools/Products/software/UPDI4AVR-USB/src/jtag.cpp:110
        EP_MEM.dap_data[3] = _packet_fragment == _packet_endfrag ? _packet_length : 60;
    386e:	98 17       	cp	r25, r24
    3870:	51 f0       	breq	.+20     	; 0x3886 <main+0xd02>
    3872:	8c e3       	ldi	r24, 0x3C	; 60
    3874:	80 93 31 63 	sts	0x6331, r24	; 0x806331 <EP_MEM+0x1b>
/Users/askn/Documents/Zinnia-tools/Products/software/UPDI4AVR-USB/src/jtag.cpp:111
        _packet_length -= 60;
    3878:	2c 53       	subi	r18, 0x3C	; 60
    387a:	31 09       	sbc	r19, r1
    387c:	20 93 9c 60 	sts	0x609C, r18	; 0x80609c <_packet_length>
    3880:	30 93 9d 60 	sts	0x609D, r19	; 0x80609d <_packet_length+0x1>
    3884:	18 cf       	rjmp	.-464    	; 0x36b6 <main+0xb32>
/Users/askn/Documents/Zinnia-tools/Products/software/UPDI4AVR-USB/src/jtag.cpp:110
        EP_MEM.dap_data[3] = 0;
      }
      else {
        memcpy(&EP_MEM.dap_data[4], &packet.in.token + (_packet_fragment * 60), 60);
        EP_MEM.dap_data[1] = ((++_packet_fragment) << 4) | _packet_endfrag;
        EP_MEM.dap_data[3] = _packet_fragment == _packet_endfrag ? _packet_length : 60;
    3886:	82 2f       	mov	r24, r18
    3888:	f5 cf       	rjmp	.-22     	; 0x3874 <main+0xcf0>
/Users/askn/Documents/Zinnia-tools/Products/software/UPDI4AVR-USB/src/jtag.cpp:118
        D3PRINTHEX(&EP_MEM.dap_data, EP_MEM.dap_data[3] + 4);
      }
    }

    /*** DAP Standard ***/
    else if (_cmd == 0x00) {        /* DAP_CMD_INFO */
    388a:	91 11       	cpse	r25, r1
    388c:	1c c0       	rjmp	.+56     	; 0x38c6 <main+0xd42>
/Users/askn/Documents/Zinnia-tools/Products/software/UPDI4AVR-USB/src/jtag.cpp:119
      if (_sub == 0xFF              /* DAP_INFO_PACKET_SIZE      */
    388e:	8f 3f       	cpi	r24, 0xFF	; 255
    3890:	21 f0       	breq	.+8      	; 0x389a <main+0xd16>
/Users/askn/Documents/Zinnia-tools/Products/software/UPDI4AVR-USB/src/jtag.cpp:120
       || _sub == 0xFB              /* UART Receive Buffer Size  */
    3892:	95 e0       	ldi	r25, 0x05	; 5
    3894:	98 0f       	add	r25, r24
    3896:	92 30       	cpi	r25, 0x02	; 2
    3898:	48 f4       	brcc	.+18     	; 0x38ac <main+0xd28>
/Users/askn/Documents/Zinnia-tools/Products/software/UPDI4AVR-USB/src/jtag.cpp:122
       || _sub == 0xFC) {           /* UART Transmit Buffer Size */
        EP_MEM.dap_data[1] = 0x02;  /* length=2 */
    389a:	82 e0       	ldi	r24, 0x02	; 2
    389c:	80 93 2f 63 	sts	0x632F, r24	; 0x80632f <EP_MEM+0x19>
/Users/askn/Documents/Zinnia-tools/Products/software/UPDI4AVR-USB/src/jtag.cpp:123
        EP_MEM.dap_data[2] = 0x40;  /* MaxPacketSize = 64 */
    38a0:	80 e4       	ldi	r24, 0x40	; 64
    38a2:	80 93 30 63 	sts	0x6330, r24	; 0x806330 <EP_MEM+0x1a>
/Users/askn/Documents/Zinnia-tools/Products/software/UPDI4AVR-USB/src/jtag.cpp:124
        EP_MEM.dap_data[3] = 0x00;
    38a6:	10 92 31 63 	sts	0x6331, r1	; 0x806331 <EP_MEM+0x1b>
    38aa:	05 cf       	rjmp	.-502    	; 0x36b6 <main+0xb32>
/Users/askn/Documents/Zinnia-tools/Products/software/UPDI4AVR-USB/src/jtag.cpp:128
        D3PRINTF(" PI=");
        D3PRINTHEX(&EP_MEM.dap_data, 4);
      }
      else if (_sub == 0xF1) {      /* DAP_INFO_Capabilities */
    38ac:	81 3f       	cpi	r24, 0xF1	; 241
    38ae:	09 f0       	breq	.+2      	; 0x38b2 <main+0xd2e>
    38b0:	02 cf       	rjmp	.-508    	; 0x36b6 <main+0xb32>
/Users/askn/Documents/Zinnia-tools/Products/software/UPDI4AVR-USB/src/jtag.cpp:129
        EP_MEM.dap_data[1] = 0x02;  /* length=2 */
    38b2:	82 e0       	ldi	r24, 0x02	; 2
    38b4:	80 93 2f 63 	sts	0x632F, r24	; 0x80632f <EP_MEM+0x19>
/Users/askn/Documents/Zinnia-tools/Products/software/UPDI4AVR-USB/src/jtag.cpp:130
        EP_MEM.dap_data[2] = 0x80;  /* 7:UART Communication Port */
    38b8:	80 e8       	ldi	r24, 0x80	; 128
    38ba:	80 93 30 63 	sts	0x6330, r24	; 0x806330 <EP_MEM+0x1a>
/Users/askn/Documents/Zinnia-tools/Products/software/UPDI4AVR-USB/src/jtag.cpp:131
        EP_MEM.dap_data[3] = 0x01;  /* 1:USB COM Port */
    38be:	81 e0       	ldi	r24, 0x01	; 1
    38c0:	80 93 31 63 	sts	0x6331, r24	; 0x806331 <EP_MEM+0x1b>
    38c4:	f8 ce       	rjmp	.-528    	; 0x36b6 <main+0xb32>
/Users/askn/Documents/Zinnia-tools/Products/software/UPDI4AVR-USB/src/jtag.cpp:136
        D3PRINTF(" PI=");
        D3PRINTHEX(&EP_MEM.dap_data, 4);
      }
    }
    else if (_cmd == 0x02) {        /* DAP_CMD_CONNECT */
    38c6:	92 30       	cpi	r25, 0x02	; 2
    38c8:	09 f4       	brne	.+2      	; 0x38cc <main+0xd48>
    38ca:	f5 ce       	rjmp	.-534    	; 0x36b6 <main+0xb32>
/Users/askn/Documents/Zinnia-tools/Products/software/UPDI4AVR-USB/src/jtag.cpp:142
      /* EP_MEM.dap_data[1] == CONN_TYPE */
      /* Here, the response is returned without processing. */
      D3PRINTF(" PI=");
      D3PRINTHEX(&EP_MEM.dap_data, 2);
    }
    else if (_cmd == 0x01           /* DAP_CMD_HOSTSTATUS */
    38cc:	91 30       	cpi	r25, 0x01	; 1
    38ce:	31 f4       	brne	.+12     	; 0x38dc <main+0xd58>
/Users/askn/Documents/Zinnia-tools/Products/software/UPDI4AVR-USB/src/jtag.cpp:143
          && _sub == 0x00) {        /* DAP_LED_CONNECT */
    38d0:	88 23       	and	r24, r24
    38d2:	09 f4       	brne	.+2      	; 0x38d6 <main+0xd52>
    38d4:	f0 ce       	rjmp	.-544    	; 0x36b6 <main+0xb32>
/Users/askn/Documents/Zinnia-tools/Products/software/UPDI4AVR-USB/src/jtag.cpp:155
      /* Here, the response is returned without processing. */
      D3PRINTF(" PI=");
      D3PRINTHEX(&EP_MEM.dap_data, 2);
    }
    else {
      EP_MEM.dap_data[1] = 0x00;    /* other 0 length result */
    38d6:	10 92 2f 63 	sts	0x632F, r1	; 0x80632f <EP_MEM+0x19>
    38da:	ed ce       	rjmp	.-550    	; 0x36b6 <main+0xb32>
/Users/askn/Documents/Zinnia-tools/Products/software/UPDI4AVR-USB/src/jtag.cpp:149
      /* EP_MEM.dap_data[2] == LED_ON/OFF */
      /* Here, the response is returned without processing. */
      D3PRINTF(" PI=");
      D3PRINTHEX(&EP_MEM.dap_data, 3);
    }
    else if (_cmd == 0x03) {        /* DAP_CMD_DISCONNECT */
    38dc:	93 30       	cpi	r25, 0x03	; 3
    38de:	d9 f7       	brne	.-10     	; 0x38d6 <main+0xd52>
    38e0:	ea ce       	rjmp	.-556    	; 0x36b6 <main+0xb32>
jtag_scope_general():
/Users/askn/Documents/Zinnia-tools/Products/software/UPDI4AVR-USB/src/jtag.cpp:187
        /* _index == 0-5 */
        memcpy_P(&packet.in.data[0], &jtag_version[_index], _length);
        D1PRINTF(" VESRION=");
        D1PRINTHEX(&packet.in.data[0], _length);
      }
      else if (_section == 1) {     /* SET_GET_CTXT_PHYSICAL */
    38e2:	f1 e0       	ldi	r31, 0x01	; 1
    38e4:	6f 12       	cpse	r6, r31
    38e6:	6c cf       	rjmp	.-296    	; 0x37c0 <main+0xc3c>
/Users/askn/Documents/Zinnia-tools/Products/software/UPDI4AVR-USB/src/jtag.cpp:188
        if (_index == 0 || _index == 0x20) {  /* PARM3_VTARGET */
    38e8:	87 2d       	mov	r24, r7
    38ea:	8f 7d       	andi	r24, 0xDF	; 223
    38ec:	09 f0       	breq	.+2      	; 0x38f0 <main+0xd6c>
    38ee:	48 c0       	rjmp	.+144    	; 0x3980 <main+0xdfc>
get_vdd():
/Users/askn/Documents/Zinnia-tools/Products/software/UPDI4AVR-USB/src/sys.cpp:333
   * A delay of 1250us is required for the voltage to stabilize.
   * The result is 10-bit, so multiply by 10.0 to convert to 1V * 0.0001.
   * The ADC0 peripheral is operational only during voltage measurements.
   */
  uint16_t get_vdd (void) {
    ADC0_INTFLAGS = ~0;
    38f0:	8f ef       	ldi	r24, 0xFF	; 255
    38f2:	80 93 07 06 	sts	0x0607, r24	; 0x800607 <__TEXT_REGION_LENGTH__+0x7f0607>
/Users/askn/Documents/Zinnia-tools/Products/software/UPDI4AVR-USB/src/sys.cpp:334
    ADC0_SAMPLE = 0;
    38f6:	10 92 0e 06 	sts	0x060E, r1	; 0x80060e <__TEXT_REGION_LENGTH__+0x7f060e>
    38fa:	10 92 0f 06 	sts	0x060F, r1	; 0x80060f <__TEXT_REGION_LENGTH__+0x7f060f>
/Users/askn/Documents/Zinnia-tools/Products/software/UPDI4AVR-USB/src/sys.cpp:335
    ADC0_CTRLA = ADC_ENABLE_bm;
    38fe:	60 92 00 06 	sts	0x0600, r6	; 0x800600 <__TEXT_REGION_LENGTH__+0x7f0600>
/Users/askn/Documents/Zinnia-tools/Products/software/UPDI4AVR-USB/src/sys.cpp:336
    ADC0_CTRLB = ADC_PRESC_DIV4_gc;
    3902:	60 92 01 06 	sts	0x0601, r6	; 0x800601 <__TEXT_REGION_LENGTH__+0x7f0601>
/Users/askn/Documents/Zinnia-tools/Products/software/UPDI4AVR-USB/src/sys.cpp:337
    ADC0_CTRLC = ADC_REFSEL_1V024_gc;
    3906:	84 e0       	ldi	r24, 0x04	; 4
    3908:	80 93 02 06 	sts	0x0602, r24	; 0x800602 <__TEXT_REGION_LENGTH__+0x7f0602>
/Users/askn/Documents/Zinnia-tools/Products/software/UPDI4AVR-USB/src/sys.cpp:338
    ADC0_CTRLE = 250; /* (SAMPDUR + 0.5) * fCLK_ADC sample duration */
    390c:	8a ef       	ldi	r24, 0xFA	; 250
    390e:	80 93 04 06 	sts	0x0604, r24	; 0x800604 <__TEXT_REGION_LENGTH__+0x7f0604>
/Users/askn/Documents/Zinnia-tools/Products/software/UPDI4AVR-USB/src/sys.cpp:339
    ADC0_MUXPOS = ADC_MUXPOS_VDDDIV10_gc; /* ADC channel VDD * 0.1 */
    3912:	84 e4       	ldi	r24, 0x44	; 68
    3914:	80 93 0b 06 	sts	0x060B, r24	; 0x80060b <__TEXT_REGION_LENGTH__+0x7f060b>
/Users/askn/Documents/Zinnia-tools/Products/software/UPDI4AVR-USB/src/sys.cpp:340
    ADC0_COMMAND = ADC_MODE_SINGLE_10BIT_gc | ADC_START_IMMEDIATE_gc;
    3918:	81 e1       	ldi	r24, 0x11	; 17
    391a:	80 93 0a 06 	sts	0x060A, r24	; 0x80060a <__TEXT_REGION_LENGTH__+0x7f060a>
/Users/askn/Documents/Zinnia-tools/Products/software/UPDI4AVR-USB/src/sys.cpp:341
    loop_until_bit_is_set(ADC0_INTFLAGS, ADC_SAMPRDY_bp);
    391e:	80 91 07 06 	lds	r24, 0x0607	; 0x800607 <__TEXT_REGION_LENGTH__+0x7f0607>
    3922:	81 ff       	sbrs	r24, 1
    3924:	fc cf       	rjmp	.-8      	; 0x391e <main+0xd9a>
/Users/askn/Documents/Zinnia-tools/Products/software/UPDI4AVR-USB/src/sys.cpp:342
    uint16_t _adc_reading = ADC0_SAMPLE;
    3926:	20 91 0e 06 	lds	r18, 0x060E	; 0x80060e <__TEXT_REGION_LENGTH__+0x7f060e>
    392a:	30 91 0f 06 	lds	r19, 0x060F	; 0x80060f <__TEXT_REGION_LENGTH__+0x7f060f>
/Users/askn/Documents/Zinnia-tools/Products/software/UPDI4AVR-USB/src/sys.cpp:343
    _adc_reading += (_adc_reading << 3) + _adc_reading;
    392e:	c9 01       	movw	r24, r18
    3930:	63 e0       	ldi	r22, 0x03	; 3
    3932:	88 0f       	add	r24, r24
    3934:	99 1f       	adc	r25, r25
    3936:	6a 95       	dec	r22
    3938:	e1 f7       	brne	.-8      	; 0x3932 <main+0xdae>
    393a:	22 0f       	add	r18, r18
    393c:	33 1f       	adc	r19, r19
    393e:	82 0f       	add	r24, r18
    3940:	93 1f       	adc	r25, r19
/Users/askn/Documents/Zinnia-tools/Products/software/UPDI4AVR-USB/src/sys.cpp:344
    ADC0_CTRLA = 0;
    3942:	10 92 00 06 	sts	0x0600, r1	; 0x800600 <__TEXT_REGION_LENGTH__+0x7f0600>
jtag_scope_general():
/Users/askn/Documents/Zinnia-tools/Products/software/UPDI4AVR-USB/src/jtag.cpp:190
          /* Called with `-xvtarget` HAS_VTARG_READ */
          _vtarget = SYS::get_vdd();
    3946:	80 93 95 60 	sts	0x6095, r24	; 0x806095 <_vtarget>
    394a:	90 93 96 60 	sts	0x6096, r25	; 0x806096 <_vtarget+0x1>
/Users/askn/Documents/Zinnia-tools/Products/software/UPDI4AVR-USB/src/jtag.cpp:191
          D1PRINTF(" VTARGET=%d\r\n", _vtarget);
    394e:	9f 93       	push	r25
    3950:	8f 93       	push	r24
    3952:	8e e2       	ldi	r24, 0x2E	; 46
    3954:	93 e0       	ldi	r25, 0x03	; 3
    3956:	9f 93       	push	r25
    3958:	8f 93       	push	r24
    395a:	1f 93       	push	r17
    395c:	0f 93       	push	r16
    395e:	0e 94 2e 0a 	call	0x145c	; 0x145c <Print::printf(PGM_t const*, ...) [clone .constprop.21]>
/Users/askn/Documents/Zinnia-tools/Products/software/UPDI4AVR-USB/src/jtag.cpp:192
          packet.in.wValue = _vtarget;
    3962:	80 91 95 60 	lds	r24, 0x6095	; 0x806095 <_vtarget>
    3966:	90 91 96 60 	lds	r25, 0x6096	; 0x806096 <_vtarget+0x1>
    396a:	80 93 d5 60 	sts	0x60D5, r24	; 0x8060d5 <packet+0x7>
    396e:	90 93 d6 60 	sts	0x60D6, r25	; 0x8060d6 <packet+0x8>
    3972:	0f 90       	pop	r0
    3974:	0f 90       	pop	r0
    3976:	0f 90       	pop	r0
    3978:	0f 90       	pop	r0
    397a:	0f 90       	pop	r0
    397c:	0f 90       	pop	r0
    397e:	20 cf       	rjmp	.-448    	; 0x37c0 <main+0xc3c>
/Users/askn/Documents/Zinnia-tools/Products/software/UPDI4AVR-USB/src/jtag.cpp:196
        }
        else {                      /* PARM3_ANALOG_XXXX */
          /* Called with PowerDebugger HAS_VTARG_ADJ */
          D1PRINTF(" PHYSICAL=%02X:%02X\r\n", _index, _length);
    3980:	1f 92       	push	r1
    3982:	5f 92       	push	r5
    3984:	1f 92       	push	r1
    3986:	7f 92       	push	r7
    3988:	88 e1       	ldi	r24, 0x18	; 24
    398a:	93 e0       	ldi	r25, 0x03	; 3
    398c:	9f 93       	push	r25
    398e:	8f 93       	push	r24
    3990:	1f 93       	push	r17
    3992:	0f 93       	push	r16
    3994:	0e 94 2e 0a 	call	0x145c	; 0x145c <Print::printf(PGM_t const*, ...) [clone .constprop.21]>
/Users/askn/Documents/Zinnia-tools/Products/software/UPDI4AVR-USB/src/jtag.cpp:197
          memcpy_P(&packet.in.data[0], &jtag_physical[_index & 7], _length);
    3998:	67 2d       	mov	r22, r7
    399a:	67 70       	andi	r22, 0x07	; 7
    399c:	70 e0       	ldi	r23, 0x00	; 0
    399e:	60 5f       	subi	r22, 0xF0	; 240
    39a0:	7c 4f       	sbci	r23, 0xFC	; 252
    39a2:	a7 01       	movw	r20, r14
    39a4:	85 ed       	ldi	r24, 0xD5	; 213
    39a6:	90 e6       	ldi	r25, 0x60	; 96
    39a8:	e2 d4       	rcall	.+2500   	; 0x436e <memcpy_P>
    39aa:	cd bf       	out	0x3d, r28	; 61
    39ac:	de bf       	out	0x3e, r29	; 62
    39ae:	08 cf       	rjmp	.-496    	; 0x37c0 <main+0xc3c>
/Users/askn/Documents/Zinnia-tools/Products/software/UPDI4AVR-USB/src/jtag.cpp:203
        }
      }
      packet.in.res = 0x184;        /* RSP3_DATA */
      _rspsize = _length + 1;
    }
    else if (_cmd == 0x10) {        /* CMD3_SIGN_ON */
    39b0:	80 31       	cpi	r24, 0x10	; 16
    39b2:	b9 f4       	brne	.+46     	; 0x39e2 <main+0xe5e>
/Users/askn/Documents/Zinnia-tools/Products/software/UPDI4AVR-USB/src/jtag.cpp:204
      D1PRINTF(" GEN_SIGN_ON\r\n");
    39b4:	81 e0       	ldi	r24, 0x01	; 1
    39b6:	93 e0       	ldi	r25, 0x03	; 3
    39b8:	9f 93       	push	r25
    39ba:	8f 93       	push	r24
    39bc:	1f 93       	push	r17
    39be:	0f 93       	push	r16
    39c0:	0e 94 2e 0a 	call	0x145c	; 0x145c <Print::printf(PGM_t const*, ...) [clone .constprop.21]>
/Users/askn/Documents/Zinnia-tools/Products/software/UPDI4AVR-USB/src/jtag.cpp:207
      _jtag_hvctrl = 0;
      _jtag_unlock = 0;
      _jtag_arch = 0;
    39c4:	10 92 98 60 	sts	0x6098, r1	; 0x806098 <_jtag_arch>
/Users/askn/Documents/Zinnia-tools/Products/software/UPDI4AVR-USB/src/jtag.cpp:213
      _tpi_setmode = 0;
      packet.in.res = 0x80;         /* RSP3_OK */
    }
    else if (_cmd == 0x11) {        /* CMD3_SIGN_OFF */
      D1PRINTF(" GEN_SIGN_OFF\r\n");
      packet.in.res = 0x80;         /* RSP3_OK */
    39c8:	80 e8       	ldi	r24, 0x80	; 128
    39ca:	90 e0       	ldi	r25, 0x00	; 0
    39cc:	80 93 d3 60 	sts	0x60D3, r24	; 0x8060d3 <packet+0x5>
    39d0:	90 93 d4 60 	sts	0x60D4, r25	; 0x8060d4 <packet+0x6>
    39d4:	0f 90       	pop	r0
    39d6:	0f 90       	pop	r0
    39d8:	0f 90       	pop	r0
    39da:	0f 90       	pop	r0
main():
/Users/askn/Documents/Zinnia-tools/Products/software/UPDI4AVR-USB/src/jtag.cpp:383
  } /* jtag_scope_avr_core */

  /* Processing branches depending on the scope specifier. */
  /* Currently, four types of scope are known: */
  void jtag_scope_branch (void) {
    size_t _rspsize = 0;
    39dc:	f1 2c       	mov	r15, r1
    39de:	e1 2c       	mov	r14, r1
    39e0:	f8 ce       	rjmp	.-528    	; 0x37d2 <main+0xc4e>
jtag_scope_general():
/Users/askn/Documents/Zinnia-tools/Products/software/UPDI4AVR-USB/src/jtag.cpp:211
      _jtag_unlock = 0;
      _jtag_arch = 0;
      _tpi_setmode = 0;
      packet.in.res = 0x80;         /* RSP3_OK */
    }
    else if (_cmd == 0x11) {        /* CMD3_SIGN_OFF */
    39e2:	81 31       	cpi	r24, 0x11	; 17
    39e4:	49 f4       	brne	.+18     	; 0x39f8 <main+0xe74>
/Users/askn/Documents/Zinnia-tools/Products/software/UPDI4AVR-USB/src/jtag.cpp:212
      D1PRINTF(" GEN_SIGN_OFF\r\n");
    39e6:	81 ef       	ldi	r24, 0xF1	; 241
    39e8:	92 e0       	ldi	r25, 0x02	; 2
    39ea:	9f 93       	push	r25
    39ec:	8f 93       	push	r24
    39ee:	1f 93       	push	r17
    39f0:	0f 93       	push	r16
    39f2:	0e 94 2e 0a 	call	0x145c	; 0x145c <Print::printf(PGM_t const*, ...) [clone .constprop.21]>
    39f6:	e8 cf       	rjmp	.-48     	; 0x39c8 <main+0xe44>
/Users/askn/Documents/Zinnia-tools/Products/software/UPDI4AVR-USB/src/jtag.cpp:216
      packet.in.res = 0x80;         /* RSP3_OK */
    }
    else {
      D1PRINTF(" GEN=%02X:%02X:%02X\r\n", _section, _index, _length);
    39f8:	1f 92       	push	r1
    39fa:	5f 92       	push	r5
    39fc:	1f 92       	push	r1
    39fe:	7f 92       	push	r7
    3a00:	1f 92       	push	r1
    3a02:	6f 92       	push	r6
    3a04:	8b ed       	ldi	r24, 0xDB	; 219
    3a06:	92 e0       	ldi	r25, 0x02	; 2
    3a08:	9f 93       	push	r25
    3a0a:	8f 93       	push	r24
    3a0c:	1f 93       	push	r17
    3a0e:	0f 93       	push	r16
    3a10:	0e 94 2e 0a 	call	0x145c	; 0x145c <Print::printf(PGM_t const*, ...) [clone .constprop.21]>
    3a14:	cd bf       	out	0x3d, r28	; 61
    3a16:	de bf       	out	0x3e, r29	; 62
    3a18:	e1 cf       	rjmp	.-62     	; 0x39dc <main+0xe58>
jtag_scope_branch():
/Users/askn/Documents/Zinnia-tools/Products/software/UPDI4AVR-USB/src/jtag.cpp:396
  #ifdef _Not_yet_implemented_stub_
    else if (_scope == 0x00) _rspsize = jtag_scope_info();          /* SCOPE_INFO */ /* Not used with EDBG/CMSIS-DAP type */
    else if (_scope == 0x11) _rspsize = ISP::jtag_scope_isp();      /* SCOPE_AVR_ISP */
    else if (_scope == 0x13) _rspsize = AVR32::jtag_scope_avr32();  /* SCOPE_AVR32 */
  #endif
    else if (_scope == 0x12) _rspsize = jtag_scope_avr_core();      /* SCOPE_AVR */
    3a1a:	92 e1       	ldi	r25, 0x12	; 18
    3a1c:	f9 12       	cpse	r15, r25
    3a1e:	a4 c2       	rjmp	.+1352   	; 0x3f68 <main+0x13e4>
jtag_scope_avr_core():
/Users/askn/Documents/Zinnia-tools/Products/software/UPDI4AVR-USB/src/jtag.cpp:265
  }

  /* The AVR scope is further branched by the ARCH designator. */
  size_t jtag_scope_avr_core (void) {
    size_t  _rspsize = 0;
    uint8_t _cmd     = packet.out.cmd;
    3a20:	f0 90 d3 60 	lds	r15, 0x60D3	; 0x8060d3 <packet+0x5>
/Users/askn/Documents/Zinnia-tools/Products/software/UPDI4AVR-USB/src/jtag.cpp:266
    uint8_t _section = packet.out.section;
    3a24:	d0 90 d5 60 	lds	r13, 0x60D5	; 0x8060d5 <packet+0x7>
/Users/askn/Documents/Zinnia-tools/Products/software/UPDI4AVR-USB/src/jtag.cpp:267
    uint8_t _index   = packet.out.index;
    3a28:	c0 90 d6 60 	lds	r12, 0x60D6	; 0x8060d6 <packet+0x8>
/Users/askn/Documents/Zinnia-tools/Products/software/UPDI4AVR-USB/src/jtag.cpp:268
    uint8_t _length  = packet.out.length;
    3a2c:	70 90 d7 60 	lds	r7, 0x60D7	; 0x8060d7 <packet+0x9>
/Users/askn/Documents/Zinnia-tools/Products/software/UPDI4AVR-USB/src/jtag.cpp:269
    if (_cmd == 0x01) {             /* CMD3_SET_PARAMETER */
    3a30:	e1 e0       	ldi	r30, 0x01	; 1
    3a32:	fe 12       	cpse	r15, r30
    3a34:	ca c0       	rjmp	.+404    	; 0x3bca <main+0x1046>
/Users/askn/Documents/Zinnia-tools/Products/software/UPDI4AVR-USB/src/jtag.cpp:270
      uint16_t _data = packet.out.wValue;
    3a36:	e0 90 d8 60 	lds	r14, 0x60D8	; 0x8060d8 <packet+0xa>
    3a3a:	f0 90 d9 60 	lds	r15, 0x60D9	; 0x8060d9 <packet+0xb>
/Users/askn/Documents/Zinnia-tools/Products/software/UPDI4AVR-USB/src/jtag.cpp:271
      D1PRINTF(" AVR_SET_PARAM=%02X:%02X:%02X:%02X\r\n", _section, _index, _length, _data);
    3a3e:	ff 92       	push	r15
    3a40:	ef 92       	push	r14
    3a42:	1f 92       	push	r1
    3a44:	7f 92       	push	r7
    3a46:	1f 92       	push	r1
    3a48:	cf 92       	push	r12
    3a4a:	1f 92       	push	r1
    3a4c:	df 92       	push	r13
    3a4e:	8d e0       	ldi	r24, 0x0D	; 13
    3a50:	95 e0       	ldi	r25, 0x05	; 5
    3a52:	9f 93       	push	r25
    3a54:	8f 93       	push	r24
    3a56:	1f 93       	push	r17
    3a58:	0f 93       	push	r16
    3a5a:	0e 94 2e 0a 	call	0x145c	; 0x145c <Print::printf(PGM_t const*, ...) [clone .constprop.21]>
/Users/askn/Documents/Zinnia-tools/Products/software/UPDI4AVR-USB/src/jtag.cpp:272
      if (_section == 0) {          /* SET_GET_CTXT_CONFIG */
    3a5e:	cd bf       	out	0x3d, r28	; 61
    3a60:	de bf       	out	0x3e, r29	; 62
    3a62:	d1 10       	cpse	r13, r1
    3a64:	29 c0       	rjmp	.+82     	; 0x3ab8 <main+0xf34>
/Users/askn/Documents/Zinnia-tools/Products/software/UPDI4AVR-USB/src/jtag.cpp:273
        if (_index == 0) {          /* PARM3_ARCH */
    3a66:	c1 10       	cpse	r12, r1
    3a68:	19 c0       	rjmp	.+50     	; 0x3a9c <main+0xf18>
/Users/askn/Documents/Zinnia-tools/Products/software/UPDI4AVR-USB/src/jtag.cpp:274
          D1PRINTF(" ARCH=%02X\r\n", _data);
    3a6a:	ff 92       	push	r15
    3a6c:	ef 92       	push	r14
    3a6e:	80 e0       	ldi	r24, 0x00	; 0
    3a70:	95 e0       	ldi	r25, 0x05	; 5
    3a72:	9f 93       	push	r25
    3a74:	8f 93       	push	r24
    3a76:	1f 93       	push	r17
    3a78:	0f 93       	push	r16
    3a7a:	0e 94 2e 0a 	call	0x145c	; 0x145c <Print::printf(PGM_t const*, ...) [clone .constprop.21]>
/Users/askn/Documents/Zinnia-tools/Products/software/UPDI4AVR-USB/src/jtag.cpp:275
          _jtag_arch = _data;       /* 5:PARM3_ARCH_UPDI */
    3a7e:	e0 92 98 60 	sts	0x6098, r14	; 0x806098 <_jtag_arch>
/Users/askn/Documents/Zinnia-tools/Products/software/UPDI4AVR-USB/src/jtag.cpp:341
        }
        else if (_index == 7) {     /* PARM3_OPT_CHIP_ERASE_TO_ENTER */
          /* This is a stub that shows no signs of being used. */
          /* force unlock chip-erase */
          /* This might be called having no `-e` or `-D`, but having `-F`. */
          D1PRINTF(" UNLOCKEN=%02X\r\n", _data);
    3a82:	0f 90       	pop	r0
    3a84:	0f 90       	pop	r0
    3a86:	0f 90       	pop	r0
    3a88:	0f 90       	pop	r0
    3a8a:	0f 90       	pop	r0
    3a8c:	0f 90       	pop	r0
/Users/askn/Documents/Zinnia-tools/Products/software/UPDI4AVR-USB/src/jtag.cpp:345
          _jtag_unlock = _data;     /* 1:ENABLE */
        }
      }
      packet.in.res = 0x80;         /* RSP3_OK */
    3a8e:	80 e8       	ldi	r24, 0x80	; 128
    3a90:	90 e0       	ldi	r25, 0x00	; 0
/Users/askn/Documents/Zinnia-tools/Products/software/UPDI4AVR-USB/src/jtag.cpp:376
    else if (_jtag_arch == 0x01) _rspsize = DWIRE::jtag_scope_tiny();   /* dWire? */
    else if (_jtag_arch == 0x02) _rspsize = MEGA::jtag_scope_mega();    /* MEGA */
    else if (_jtag_arch == 0x03) _rspsize = XMEGA::jtag_scope_xmega();  /* XMEGA */
  #endif
    else if (_jtag_arch == 0x05) _rspsize = UPDI::jtag_scope_updi();    /* UPDI support */
    else packet.in.res = 0xA0;      /* RSP3_FAILED */
    3a92:	80 93 d3 60 	sts	0x60D3, r24	; 0x8060d3 <packet+0x5>
    3a96:	90 93 d4 60 	sts	0x60D4, r25	; 0x8060d4 <packet+0x6>
    3a9a:	a0 cf       	rjmp	.-192    	; 0x39dc <main+0xe58>
/Users/askn/Documents/Zinnia-tools/Products/software/UPDI4AVR-USB/src/jtag.cpp:277
      if (_section == 0) {          /* SET_GET_CTXT_CONFIG */
        if (_index == 0) {          /* PARM3_ARCH */
          D1PRINTF(" ARCH=%02X\r\n", _data);
          _jtag_arch = _data;       /* 5:PARM3_ARCH_UPDI */
        }
        else if (_index == 1) {     /* PARM3_SESS_PURPOSE */
    3a9c:	31 e0       	ldi	r19, 0x01	; 1
    3a9e:	c3 12       	cpse	r12, r19
    3aa0:	f6 cf       	rjmp	.-20     	; 0x3a8e <main+0xf0a>
/Users/askn/Documents/Zinnia-tools/Products/software/UPDI4AVR-USB/src/jtag.cpp:278
          D1PRINTF(" SESS_PURPOSE=%02X\r\n", _data);
    3aa2:	ff 92       	push	r15
    3aa4:	ef 92       	push	r14
    3aa6:	8b ee       	ldi	r24, 0xEB	; 235
    3aa8:	94 e0       	ldi	r25, 0x04	; 4
/Users/askn/Documents/Zinnia-tools/Products/software/UPDI4AVR-USB/src/jtag.cpp:341
        }
        else if (_index == 7) {     /* PARM3_OPT_CHIP_ERASE_TO_ENTER */
          /* This is a stub that shows no signs of being used. */
          /* force unlock chip-erase */
          /* This might be called having no `-e` or `-D`, but having `-F`. */
          D1PRINTF(" UNLOCKEN=%02X\r\n", _data);
    3aaa:	9f 93       	push	r25
    3aac:	8f 93       	push	r24
    3aae:	1f 93       	push	r17
    3ab0:	0f 93       	push	r16
    3ab2:	0e 94 2e 0a 	call	0x145c	; 0x145c <Print::printf(PGM_t const*, ...) [clone .constprop.21]>
    3ab6:	e5 cf       	rjmp	.-54     	; 0x3a82 <main+0xefe>
/Users/askn/Documents/Zinnia-tools/Products/software/UPDI4AVR-USB/src/jtag.cpp:282
        else if (_index == 1) {     /* PARM3_SESS_PURPOSE */
          D1PRINTF(" SESS_PURPOSE=%02X\r\n", _data);
          _jtag_sess = _data;       /* */
        }
      }
      else if (_section == 1) {     /* SET_GET_CTXT_PHYSICAL */
    3ab8:	41 e0       	ldi	r20, 0x01	; 1
    3aba:	d4 12       	cpse	r13, r20
    3abc:	4a c0       	rjmp	.+148    	; 0x3b52 <main+0xfce>
/Users/askn/Documents/Zinnia-tools/Products/software/UPDI4AVR-USB/src/jtag.cpp:283
        if (_index == 0) {          /* PARM3_CONNECTION */
    3abe:	c1 10       	cpse	r12, r1
    3ac0:	0d c0       	rjmp	.+26     	; 0x3adc <main+0xf58>
/Users/askn/Documents/Zinnia-tools/Products/software/UPDI4AVR-USB/src/jtag.cpp:284
          D1PRINTF(" CONNECTION=%02X\r\n", _data);
    3ac2:	ff 92       	push	r15
    3ac4:	ef 92       	push	r14
    3ac6:	88 ed       	ldi	r24, 0xD8	; 216
    3ac8:	94 e0       	ldi	r25, 0x04	; 4
    3aca:	9f 93       	push	r25
    3acc:	8f 93       	push	r24
    3ace:	1f 93       	push	r17
    3ad0:	0f 93       	push	r16
    3ad2:	0e 94 2e 0a 	call	0x145c	; 0x145c <Print::printf(PGM_t const*, ...) [clone .constprop.21]>
/Users/askn/Documents/Zinnia-tools/Products/software/UPDI4AVR-USB/src/jtag.cpp:285
          _jtag_conn = _data;       /* 8:PARM3_CONN_UPDI */
    3ad6:	e0 92 97 60 	sts	0x6097, r14	; 0x806097 <_jtag_conn>
    3ada:	d3 cf       	rjmp	.-90     	; 0x3a82 <main+0xefe>
/Users/askn/Documents/Zinnia-tools/Products/software/UPDI4AVR-USB/src/jtag.cpp:287
        }
        else if (_index == 0x31) {  /* PARM3_CLK_XMEGA_PDI */
    3adc:	81 e3       	ldi	r24, 0x31	; 49
    3ade:	c8 12       	cpse	r12, r24
    3ae0:	d6 cf       	rjmp	.-84     	; 0x3a8e <main+0xf0a>
/Users/askn/Documents/Zinnia-tools/Products/software/UPDI4AVR-USB/src/jtag.cpp:288
          _xclk = _data;
    3ae2:	e0 92 18 60 	sts	0x6018, r14	; 0x806018 <_xclk>
    3ae6:	f0 92 19 60 	sts	0x6019, r15	; 0x806019 <_xclk+0x1>
/Users/askn/Documents/Zinnia-tools/Products/software/UPDI4AVR-USB/src/jtag.cpp:289
          D1PRINTF(" XCLK=%d\r\n", _xclk);
    3aea:	ff 92       	push	r15
    3aec:	ef 92       	push	r14
    3aee:	8d ec       	ldi	r24, 0xCD	; 205
    3af0:	94 e0       	ldi	r25, 0x04	; 4
    3af2:	9f 93       	push	r25
    3af4:	8f 93       	push	r24
    3af6:	1f 93       	push	r17
    3af8:	0f 93       	push	r16
    3afa:	0e 94 2e 0a 	call	0x145c	; 0x145c <Print::printf(PGM_t const*, ...) [clone .constprop.21]>
/Users/askn/Documents/Zinnia-tools/Products/software/UPDI4AVR-USB/src/jtag.cpp:290
          if (_jtag_arch == 5) {
    3afe:	0f 90       	pop	r0
    3b00:	0f 90       	pop	r0
    3b02:	0f 90       	pop	r0
    3b04:	0f 90       	pop	r0
    3b06:	0f 90       	pop	r0
    3b08:	0f 90       	pop	r0
    3b0a:	80 91 98 60 	lds	r24, 0x6098	; 0x806098 <_jtag_arch>
    3b0e:	85 30       	cpi	r24, 0x05	; 5
    3b10:	09 f0       	breq	.+2      	; 0x3b14 <main+0xf90>
    3b12:	bd cf       	rjmp	.-134    	; 0x3a8e <main+0xf0a>
/Users/askn/Documents/Zinnia-tools/Products/software/UPDI4AVR-USB/src/jtag.cpp:293
            /* Called with `-B xclk[unit]`. */
            /* XCLK Range Limitation : LSB=kHz */
            if (_xclk > 240) _xclk = 240;
    3b14:	80 91 18 60 	lds	r24, 0x6018	; 0x806018 <_xclk>
    3b18:	90 91 19 60 	lds	r25, 0x6019	; 0x806019 <_xclk+0x1>
    3b1c:	81 3f       	cpi	r24, 0xF1	; 241
    3b1e:	91 05       	cpc	r25, r1
    3b20:	98 f0       	brcs	.+38     	; 0x3b48 <main+0xfc4>
    3b22:	80 ef       	ldi	r24, 0xF0	; 240
    3b24:	90 e0       	ldi	r25, 0x00	; 0
/Users/askn/Documents/Zinnia-tools/Products/software/UPDI4AVR-USB/src/jtag.cpp:294
            else if (_xclk < 40) _xclk = 40;
    3b26:	80 93 18 60 	sts	0x6018, r24	; 0x806018 <_xclk>
    3b2a:	90 93 19 60 	sts	0x6019, r25	; 0x806019 <_xclk+0x1>
/Users/askn/Documents/Zinnia-tools/Products/software/UPDI4AVR-USB/src/jtag.cpp:296
  #if defined(DEBUG)
            if (_xclk != _data) D1PRINTF(" FIX_CLK=%d\r\n", _xclk);
    3b2e:	80 91 18 60 	lds	r24, 0x6018	; 0x806018 <_xclk>
    3b32:	90 91 19 60 	lds	r25, 0x6019	; 0x806019 <_xclk+0x1>
    3b36:	e8 16       	cp	r14, r24
    3b38:	f9 06       	cpc	r15, r25
    3b3a:	09 f4       	brne	.+2      	; 0x3b3e <main+0xfba>
    3b3c:	a8 cf       	rjmp	.-176    	; 0x3a8e <main+0xf0a>
    3b3e:	9f 93       	push	r25
    3b40:	8f 93       	push	r24
    3b42:	8f eb       	ldi	r24, 0xBF	; 191
    3b44:	94 e0       	ldi	r25, 0x04	; 4
    3b46:	b1 cf       	rjmp	.-158    	; 0x3aaa <main+0xf26>
/Users/askn/Documents/Zinnia-tools/Products/software/UPDI4AVR-USB/src/jtag.cpp:294
          D1PRINTF(" XCLK=%d\r\n", _xclk);
          if (_jtag_arch == 5) {
            /* Called with `-B xclk[unit]`. */
            /* XCLK Range Limitation : LSB=kHz */
            if (_xclk > 240) _xclk = 240;
            else if (_xclk < 40) _xclk = 40;
    3b48:	88 97       	sbiw	r24, 0x28	; 40
    3b4a:	88 f7       	brcc	.-30     	; 0x3b2e <main+0xfaa>
    3b4c:	88 e2       	ldi	r24, 0x28	; 40
    3b4e:	90 e0       	ldi	r25, 0x00	; 0
    3b50:	ea cf       	rjmp	.-44     	; 0x3b26 <main+0xfa2>
/Users/askn/Documents/Zinnia-tools/Products/software/UPDI4AVR-USB/src/jtag.cpp:301
            if (_xclk != _data) D1PRINTF(" FIX_CLK=%d\r\n", _xclk);
  #endif
          }
        }
      }
      else if (_section == 2) {     /* SET_GET_CTXT_DEVICE */
    3b52:	92 e0       	ldi	r25, 0x02	; 2
    3b54:	d9 12       	cpse	r13, r25
    3b56:	26 c0       	rjmp	.+76     	; 0x3ba4 <main+0x1020>
/Users/askn/Documents/Zinnia-tools/Products/software/UPDI4AVR-USB/src/jtag.cpp:302
        if (_index == 0) {          /* PARM3_DEVICEDESC */
    3b58:	c1 10       	cpse	r12, r1
    3b5a:	99 cf       	rjmp	.-206    	; 0x3a8e <main+0xf0a>
/Users/askn/Documents/Zinnia-tools/Products/software/UPDI4AVR-USB/src/jtag.cpp:303
          D1PRINTF(" DEVICEDESC=%X\r\n", _length);
    3b5c:	1f 92       	push	r1
    3b5e:	7f 92       	push	r7
    3b60:	8e ea       	ldi	r24, 0xAE	; 174
    3b62:	94 e0       	ldi	r25, 0x04	; 4
    3b64:	9f 93       	push	r25
    3b66:	8f 93       	push	r24
    3b68:	1f 93       	push	r17
    3b6a:	0f 93       	push	r16
    3b6c:	0e 94 2e 0a 	call	0x145c	; 0x145c <Print::printf(PGM_t const*, ...) [clone .constprop.21]>
/Users/askn/Documents/Zinnia-tools/Products/software/UPDI4AVR-USB/src/jtag.cpp:304
          memcpy(&Device_Descriptor, &packet.out.setData[0], _length & 63);
    3b70:	47 2d       	mov	r20, r7
    3b72:	4f 73       	andi	r20, 0x3F	; 63
    3b74:	50 e0       	ldi	r21, 0x00	; 0
    3b76:	68 ed       	ldi	r22, 0xD8	; 216
    3b78:	70 e6       	ldi	r23, 0x60	; 96
    3b7a:	8e e9       	ldi	r24, 0x9E	; 158
    3b7c:	90 e6       	ldi	r25, 0x60	; 96
    3b7e:	1a d7       	rcall	.+3636   	; 0x49b4 <memcpy>
/Users/askn/Documents/Zinnia-tools/Products/software/UPDI4AVR-USB/src/jtag.cpp:325
            /* Even with all this, the BOOTROW information is still undefined! */
            /* Re-analysis of newer ICE FW is needed! */
          }
          /* STUB: And other descriptors. */
  #elif defined(DEBUG)
          if (_jtag_arch == 5) {
    3b80:	0f 90       	pop	r0
    3b82:	0f 90       	pop	r0
    3b84:	0f 90       	pop	r0
    3b86:	0f 90       	pop	r0
    3b88:	0f 90       	pop	r0
    3b8a:	0f 90       	pop	r0
    3b8c:	80 91 98 60 	lds	r24, 0x6098	; 0x806098 <_jtag_arch>
    3b90:	85 30       	cpi	r24, 0x05	; 5
    3b92:	09 f0       	breq	.+2      	; 0x3b96 <main+0x1012>
    3b94:	7c cf       	rjmp	.-264    	; 0x3a8e <main+0xf0a>
/Users/askn/Documents/Zinnia-tools/Products/software/UPDI4AVR-USB/src/jtag.cpp:326
            D1PRINTF(" HVTYPE=%02X\r\n", Device_Descriptor.UPDI.hvupdi_variant);
    3b96:	80 91 cd 60 	lds	r24, 0x60CD	; 0x8060cd <Device_Descriptor+0x2f>
    3b9a:	1f 92       	push	r1
    3b9c:	8f 93       	push	r24
    3b9e:	8f e9       	ldi	r24, 0x9F	; 159
    3ba0:	94 e0       	ldi	r25, 0x04	; 4
    3ba2:	83 cf       	rjmp	.-250    	; 0x3aaa <main+0xf26>
/Users/askn/Documents/Zinnia-tools/Products/software/UPDI4AVR-USB/src/jtag.cpp:331
          }
  #endif
        }
      }
      else if (_section == 3) {     /* SET_GET_CTXT_OPTIONS */
    3ba4:	e3 e0       	ldi	r30, 0x03	; 3
    3ba6:	de 12       	cpse	r13, r30
    3ba8:	72 cf       	rjmp	.-284    	; 0x3a8e <main+0xf0a>
/Users/askn/Documents/Zinnia-tools/Products/software/UPDI4AVR-USB/src/jtag.cpp:332
        if (_index == 6) {          /* PARM3_OPT_12V_UPDI_ENABLE */
    3baa:	f6 e0       	ldi	r31, 0x06	; 6
    3bac:	cf 12       	cpse	r12, r31
    3bae:	05 c0       	rjmp	.+10     	; 0x3bba <main+0x1036>
/Users/askn/Documents/Zinnia-tools/Products/software/UPDI4AVR-USB/src/jtag.cpp:334
          /* Called with `-xhvupdi` hvupdi_support */
          D1PRINTF(" HVCTRLEN=%02X\r\n", _data);
    3bb0:	ff 92       	push	r15
    3bb2:	ef 92       	push	r14
    3bb4:	8e e8       	ldi	r24, 0x8E	; 142
    3bb6:	94 e0       	ldi	r25, 0x04	; 4
    3bb8:	78 cf       	rjmp	.-272    	; 0x3aaa <main+0xf26>
/Users/askn/Documents/Zinnia-tools/Products/software/UPDI4AVR-USB/src/jtag.cpp:337
          _jtag_hvctrl = _data;     /* 1:ENABLE */
        }
        else if (_index == 7) {     /* PARM3_OPT_CHIP_ERASE_TO_ENTER */
    3bba:	27 e0       	ldi	r18, 0x07	; 7
    3bbc:	c2 12       	cpse	r12, r18
    3bbe:	67 cf       	rjmp	.-306    	; 0x3a8e <main+0xf0a>
/Users/askn/Documents/Zinnia-tools/Products/software/UPDI4AVR-USB/src/jtag.cpp:341
          /* This is a stub that shows no signs of being used. */
          /* force unlock chip-erase */
          /* This might be called having no `-e` or `-D`, but having `-F`. */
          D1PRINTF(" UNLOCKEN=%02X\r\n", _data);
    3bc0:	ff 92       	push	r15
    3bc2:	ef 92       	push	r14
    3bc4:	8d e7       	ldi	r24, 0x7D	; 125
    3bc6:	94 e0       	ldi	r25, 0x04	; 4
    3bc8:	70 cf       	rjmp	.-288    	; 0x3aaa <main+0xf26>
/Users/askn/Documents/Zinnia-tools/Products/software/UPDI4AVR-USB/src/jtag.cpp:347
          _jtag_unlock = _data;     /* 1:ENABLE */
        }
      }
      packet.in.res = 0x80;         /* RSP3_OK */
    }
    else if (_cmd == 0x02) {        /* CMD3_GET_PARAMETER */
    3bca:	32 e0       	ldi	r19, 0x02	; 2
    3bcc:	f3 12       	cpse	r15, r19
    3bce:	64 c0       	rjmp	.+200    	; 0x3c98 <main+0x1114>
/Users/askn/Documents/Zinnia-tools/Products/software/UPDI4AVR-USB/src/jtag.cpp:348
      D1PRINTF(" AVR_GET_PARAMETER=%02X:%02X:%02X\r\n", _section, _index, _length);
    3bd0:	e7 2c       	mov	r14, r7
    3bd2:	f1 2c       	mov	r15, r1
    3bd4:	1f 92       	push	r1
    3bd6:	7f 92       	push	r7
    3bd8:	1f 92       	push	r1
    3bda:	cf 92       	push	r12
    3bdc:	1f 92       	push	r1
    3bde:	df 92       	push	r13
    3be0:	89 e5       	ldi	r24, 0x59	; 89
    3be2:	94 e0       	ldi	r25, 0x04	; 4
    3be4:	9f 93       	push	r25
    3be6:	8f 93       	push	r24
    3be8:	1f 93       	push	r17
    3bea:	0f 93       	push	r16
    3bec:	0e 94 2e 0a 	call	0x145c	; 0x145c <Print::printf(PGM_t const*, ...) [clone .constprop.21]>
/Users/askn/Documents/Zinnia-tools/Products/software/UPDI4AVR-USB/src/jtag.cpp:349
      if (_section == 0) {          /* SET_GET_CTXT_CONFIG */
    3bf0:	cd bf       	out	0x3d, r28	; 61
    3bf2:	de bf       	out	0x3e, r29	; 62
    3bf4:	d1 10       	cpse	r13, r1
    3bf6:	22 c0       	rjmp	.+68     	; 0x3c3c <main+0x10b8>
/Users/askn/Documents/Zinnia-tools/Products/software/UPDI4AVR-USB/src/jtag.cpp:350
        if (_index == 0) {          /* PARM3_ARCH */
    3bf8:	c1 10       	cpse	r12, r1
    3bfa:	16 c0       	rjmp	.+44     	; 0x3c28 <main+0x10a4>
/Users/askn/Documents/Zinnia-tools/Products/software/UPDI4AVR-USB/src/jtag.cpp:351
          D1PRINTF(" ARCH=%02X\r\n", _jtag_arch);
    3bfc:	80 91 98 60 	lds	r24, 0x6098	; 0x806098 <_jtag_arch>
    3c00:	1f 92       	push	r1
    3c02:	8f 93       	push	r24
    3c04:	8c e4       	ldi	r24, 0x4C	; 76
    3c06:	94 e0       	ldi	r25, 0x04	; 4
    3c08:	9f 93       	push	r25
    3c0a:	8f 93       	push	r24
    3c0c:	1f 93       	push	r17
    3c0e:	0f 93       	push	r16
    3c10:	0e 94 2e 0a 	call	0x145c	; 0x145c <Print::printf(PGM_t const*, ...) [clone .constprop.21]>
/Users/askn/Documents/Zinnia-tools/Products/software/UPDI4AVR-USB/src/jtag.cpp:352
          packet.in.data[0] = _jtag_arch;
    3c14:	80 91 98 60 	lds	r24, 0x6098	; 0x806098 <_jtag_arch>
/Users/askn/Documents/Zinnia-tools/Products/software/UPDI4AVR-USB/src/jtag.cpp:359
      }
      else if (_section == 1) {     /* SET_GET_CTXT_PHYSICAL */
        if (_index == 0) {          /* PARM3_CONNECTION */
          /* This is a stub that is called but not used. */
          D1PRINTF(" CONNECTION=%02X\r\n", _jtag_conn);
          packet.in.data[0] = _jtag_conn;
    3c18:	80 93 d5 60 	sts	0x60D5, r24	; 0x8060d5 <packet+0x7>
/Users/askn/Documents/Zinnia-tools/Products/software/UPDI4AVR-USB/src/jtag.cpp:364
        }
        else if (_index == 0x31) {  /* PARM3_CLK_XMEGA_PDI */
          /* `-B <num>khz` : "khz" units are required. */
          D1PRINTF(" XCLK=%d\r\n", _xclk);
          packet.in.wValue = _xclk;
    3c1c:	0f 90       	pop	r0
    3c1e:	0f 90       	pop	r0
    3c20:	0f 90       	pop	r0
    3c22:	0f 90       	pop	r0
    3c24:	0f 90       	pop	r0
    3c26:	0f 90       	pop	r0
/Users/askn/Documents/Zinnia-tools/Products/software/UPDI4AVR-USB/src/jtag.cpp:367
        }
      }
      packet.in.res = 0x184;        /* RSP3_DATA */
    3c28:	84 e8       	ldi	r24, 0x84	; 132
    3c2a:	91 e0       	ldi	r25, 0x01	; 1
    3c2c:	80 93 d3 60 	sts	0x60D3, r24	; 0x8060d3 <packet+0x5>
    3c30:	90 93 d4 60 	sts	0x60D4, r25	; 0x8060d4 <packet+0x6>
/Users/askn/Documents/Zinnia-tools/Products/software/UPDI4AVR-USB/src/jtag.cpp:368
      _rspsize = _length + 1;
    3c34:	ff ef       	ldi	r31, 0xFF	; 255
    3c36:	ef 1a       	sub	r14, r31
    3c38:	ff 0a       	sbc	r15, r31
    3c3a:	cb cd       	rjmp	.-1130   	; 0x37d2 <main+0xc4e>
/Users/askn/Documents/Zinnia-tools/Products/software/UPDI4AVR-USB/src/jtag.cpp:355
        if (_index == 0) {          /* PARM3_ARCH */
          D1PRINTF(" ARCH=%02X\r\n", _jtag_arch);
          packet.in.data[0] = _jtag_arch;
        }
      }
      else if (_section == 1) {     /* SET_GET_CTXT_PHYSICAL */
    3c3c:	91 e0       	ldi	r25, 0x01	; 1
    3c3e:	d9 12       	cpse	r13, r25
    3c40:	f3 cf       	rjmp	.-26     	; 0x3c28 <main+0x10a4>
/Users/askn/Documents/Zinnia-tools/Products/software/UPDI4AVR-USB/src/jtag.cpp:356
        if (_index == 0) {          /* PARM3_CONNECTION */
    3c42:	c1 10       	cpse	r12, r1
    3c44:	0f c0       	rjmp	.+30     	; 0x3c64 <main+0x10e0>
/Users/askn/Documents/Zinnia-tools/Products/software/UPDI4AVR-USB/src/jtag.cpp:358
          /* This is a stub that is called but not used. */
          D1PRINTF(" CONNECTION=%02X\r\n", _jtag_conn);
    3c46:	80 91 97 60 	lds	r24, 0x6097	; 0x806097 <_jtag_conn>
    3c4a:	1f 92       	push	r1
    3c4c:	8f 93       	push	r24
    3c4e:	89 e3       	ldi	r24, 0x39	; 57
    3c50:	94 e0       	ldi	r25, 0x04	; 4
    3c52:	9f 93       	push	r25
    3c54:	8f 93       	push	r24
    3c56:	1f 93       	push	r17
    3c58:	0f 93       	push	r16
    3c5a:	0e 94 2e 0a 	call	0x145c	; 0x145c <Print::printf(PGM_t const*, ...) [clone .constprop.21]>
/Users/askn/Documents/Zinnia-tools/Products/software/UPDI4AVR-USB/src/jtag.cpp:359
          packet.in.data[0] = _jtag_conn;
    3c5e:	80 91 97 60 	lds	r24, 0x6097	; 0x806097 <_jtag_conn>
    3c62:	da cf       	rjmp	.-76     	; 0x3c18 <main+0x1094>
/Users/askn/Documents/Zinnia-tools/Products/software/UPDI4AVR-USB/src/jtag.cpp:361
        }
        else if (_index == 0x31) {  /* PARM3_CLK_XMEGA_PDI */
    3c64:	e1 e3       	ldi	r30, 0x31	; 49
    3c66:	ce 12       	cpse	r12, r30
    3c68:	df cf       	rjmp	.-66     	; 0x3c28 <main+0x10a4>
/Users/askn/Documents/Zinnia-tools/Products/software/UPDI4AVR-USB/src/jtag.cpp:363
          /* `-B <num>khz` : "khz" units are required. */
          D1PRINTF(" XCLK=%d\r\n", _xclk);
    3c6a:	80 91 19 60 	lds	r24, 0x6019	; 0x806019 <_xclk+0x1>
    3c6e:	8f 93       	push	r24
    3c70:	80 91 18 60 	lds	r24, 0x6018	; 0x806018 <_xclk>
    3c74:	8f 93       	push	r24
    3c76:	8e e2       	ldi	r24, 0x2E	; 46
    3c78:	94 e0       	ldi	r25, 0x04	; 4
    3c7a:	9f 93       	push	r25
    3c7c:	8f 93       	push	r24
    3c7e:	1f 93       	push	r17
    3c80:	0f 93       	push	r16
    3c82:	0e 94 2e 0a 	call	0x145c	; 0x145c <Print::printf(PGM_t const*, ...) [clone .constprop.21]>
/Users/askn/Documents/Zinnia-tools/Products/software/UPDI4AVR-USB/src/jtag.cpp:364
          packet.in.wValue = _xclk;
    3c86:	80 91 18 60 	lds	r24, 0x6018	; 0x806018 <_xclk>
    3c8a:	90 91 19 60 	lds	r25, 0x6019	; 0x806019 <_xclk+0x1>
    3c8e:	80 93 d5 60 	sts	0x60D5, r24	; 0x8060d5 <packet+0x7>
    3c92:	90 93 d6 60 	sts	0x60D6, r25	; 0x8060d6 <packet+0x8>
    3c96:	c2 cf       	rjmp	.-124    	; 0x3c1c <main+0x1098>
/Users/askn/Documents/Zinnia-tools/Products/software/UPDI4AVR-USB/src/jtag.cpp:375
  #ifdef _Not_yet_implemented_stub_
    else if (_jtag_arch == 0x01) _rspsize = DWIRE::jtag_scope_tiny();   /* dWire? */
    else if (_jtag_arch == 0x02) _rspsize = MEGA::jtag_scope_mega();    /* MEGA */
    else if (_jtag_arch == 0x03) _rspsize = XMEGA::jtag_scope_xmega();  /* XMEGA */
  #endif
    else if (_jtag_arch == 0x05) _rspsize = UPDI::jtag_scope_updi();    /* UPDI support */
    3c98:	80 91 98 60 	lds	r24, 0x6098	; 0x806098 <_jtag_arch>
    3c9c:	85 30       	cpi	r24, 0x05	; 5
    3c9e:	09 f0       	breq	.+2      	; 0x3ca2 <main+0x111e>
    3ca0:	60 c1       	rjmp	.+704    	; 0x3f62 <main+0x13de>
jtag_scope_updi():
/Users/askn/Documents/Zinnia-tools/Products/software/UPDI4AVR-USB/src/updi.cpp:412

  /* ARCH=UPDI scope Provides functionality. */
  size_t jtag_scope_updi (void) {
    size_t _rspsize = 0;
    uint8_t _cmd = packet.out.cmd;
    if (_cmd == 0x10) {             /* CMD3_SIGN_ON */
    3ca2:	20 e1       	ldi	r18, 0x10	; 16
    3ca4:	f2 12       	cpse	r15, r18
    3ca6:	51 c0       	rjmp	.+162    	; 0x3d4a <main+0x11c6>
/Users/askn/Documents/Zinnia-tools/Products/software/UPDI4AVR-USB/src/updi.cpp:413
      D1PRINTF(" UPDI_SIGN_ON=EXT:%02X\r\n", packet.out.bMType);
    3ca8:	1f 92       	push	r1
    3caa:	df 92       	push	r13
    3cac:	85 e1       	ldi	r24, 0x15	; 21
    3cae:	94 e0       	ldi	r25, 0x04	; 4
    3cb0:	9f 93       	push	r25
    3cb2:	8f 93       	push	r24
    3cb4:	1f 93       	push	r17
    3cb6:	0f 93       	push	r16
    3cb8:	0e 94 2e 0a 	call	0x145c	; 0x145c <Print::printf(PGM_t const*, ...) [clone .constprop.21]>
/Users/askn/Documents/Zinnia-tools/Products/software/UPDI4AVR-USB/src/updi.cpp:414
      USART::setup();
    3cbc:	0e 94 97 0f 	call	0x1f2e	; 0x1f2e <USART::setup()>
change_updi():
/Users/askn/Documents/Zinnia-tools/Products/software/UPDI4AVR-USB/src/usart.cpp:79
  #endif
  }

  /*** Sets up single-wire asynchronous mode for UPDI operation. ***/
  void change_updi (void) {
    ATOMIC_BLOCK(ATOMIC_RESTORESTATE) {
    3cc0:	ef b6       	in	r14, 0x3f	; 63
__iCliRetVal():
/Users/askn/Library/Arduino15/packages/MultiX-Zinnia/tools/avr-gcc/7.3.0-avr8-gnu-toolchain/avr/include/util/atomic.h:50
    return 1;
}

static __inline__ uint8_t __iCliRetVal(void)
{
    cli();
    3cc2:	f8 94       	cli
change_updi():
/Users/askn/Documents/Zinnia-tools/Products/software/UPDI4AVR-USB/src/usart.cpp:80
      D1PRINTF(" UART=UPDI\r\n");
    3cc4:	8d e7       	ldi	r24, 0x7D	; 125
    3cc6:	93 e0       	ldi	r25, 0x03	; 3
    3cc8:	9f 93       	push	r25
    3cca:	8f 93       	push	r24
    3ccc:	1f 93       	push	r17
    3cce:	0f 93       	push	r16
    3cd0:	0e 94 2e 0a 	call	0x145c	; 0x145c <Print::printf(PGM_t const*, ...) [clone .constprop.21]>
/Users/askn/Documents/Zinnia-tools/Products/software/UPDI4AVR-USB/src/usart.cpp:81
      PORTMUX_USARTROUTEA = PORTMUX_USART_UPDI;
    3cd4:	f0 92 e2 05 	sts	0x05E2, r15	; 0x8005e2 <__TEXT_REGION_LENGTH__+0x7f05e2>
/Users/askn/Documents/Zinnia-tools/Products/software/UPDI4AVR-USB/src/usart.cpp:82
      USART0_STATUS = USART_DREIF_bm;
    3cd8:	80 e2       	ldi	r24, 0x20	; 32
    3cda:	80 93 04 08 	sts	0x0804, r24	; 0x800804 <__TEXT_REGION_LENGTH__+0x7f0804>
/Users/askn/Documents/Zinnia-tools/Products/software/UPDI4AVR-USB/src/usart.cpp:83
      USART0_BAUD  = calk_baud_khz(_xclk);
    3cde:	80 91 18 60 	lds	r24, 0x6018	; 0x806018 <_xclk>
    3ce2:	90 91 19 60 	lds	r25, 0x6019	; 0x806019 <_xclk+0x1>
    3ce6:	0e 94 79 05 	call	0xaf2	; 0xaf2 <USART::calk_baud_khz(unsigned int)>
    3cea:	80 93 08 08 	sts	0x0808, r24	; 0x800808 <__TEXT_REGION_LENGTH__+0x7f0808>
    3cee:	90 93 09 08 	sts	0x0809, r25	; 0x800809 <__TEXT_REGION_LENGTH__+0x7f0809>
/Users/askn/Documents/Zinnia-tools/Products/software/UPDI4AVR-USB/src/usart.cpp:84
      USART0_CTRLC = USART_CHSIZE_8BIT_gc | USART_PMODE_EVEN_gc | USART_SBMODE_2BIT_gc;
    3cf2:	8b e2       	ldi	r24, 0x2B	; 43
    3cf4:	80 93 07 08 	sts	0x0807, r24	; 0x800807 <__TEXT_REGION_LENGTH__+0x7f0807>
/Users/askn/Documents/Zinnia-tools/Products/software/UPDI4AVR-USB/src/usart.cpp:87
      /* The RS485_INT:_BV(1) attribute is undocumented but works fine.     */
      /* Without it, an additional delay is required before sending a byte. */
      USART0_CTRLA = USART_LBME_bm | USART_RS485_INT_gc;
    3cf8:	8a e0       	ldi	r24, 0x0A	; 10
    3cfa:	80 93 05 08 	sts	0x0805, r24	; 0x800805 <__TEXT_REGION_LENGTH__+0x7f0805>
/Users/askn/Documents/Zinnia-tools/Products/software/UPDI4AVR-USB/src/usart.cpp:88
      USART0_CTRLB = USART_RXEN_bm | USART_TXEN_bm | USART_ODME_bm;
    3cfe:	88 ec       	ldi	r24, 0xC8	; 200
    3d00:	80 93 06 08 	sts	0x0806, r24	; 0x800806 <__TEXT_REGION_LENGTH__+0x7f0806>
/Users/askn/Documents/Zinnia-tools/Products/software/UPDI4AVR-USB/src/usart.cpp:89
      D1PRINTF(" BAUD=%04X:%02X\r\n", USART0_BAUD, USART0_CTRLB);
    3d04:	20 91 06 08 	lds	r18, 0x0806	; 0x800806 <__TEXT_REGION_LENGTH__+0x7f0806>
    3d08:	80 91 08 08 	lds	r24, 0x0808	; 0x800808 <__TEXT_REGION_LENGTH__+0x7f0808>
    3d0c:	90 91 09 08 	lds	r25, 0x0809	; 0x800809 <__TEXT_REGION_LENGTH__+0x7f0809>
    3d10:	1f 92       	push	r1
    3d12:	2f 93       	push	r18
    3d14:	9f 93       	push	r25
    3d16:	8f 93       	push	r24
    3d18:	8b e6       	ldi	r24, 0x6B	; 107
    3d1a:	93 e0       	ldi	r25, 0x03	; 3
    3d1c:	9f 93       	push	r25
    3d1e:	8f 93       	push	r24
    3d20:	1f 93       	push	r17
    3d22:	0f 93       	push	r16
    3d24:	0e 94 2e 0a 	call	0x145c	; 0x145c <Print::printf(PGM_t const*, ...) [clone .constprop.21]>
__iRestore():
/Users/askn/Library/Arduino15/packages/MultiX-Zinnia/tools/avr-gcc/7.3.0-avr8-gnu-toolchain/avr/include/util/atomic.h:70
    (void)__s;
}

static __inline__ void __iRestore(const  uint8_t *__s)
{
    SREG = *__s;
    3d28:	ef be       	out	0x3f, r14	; 63
jtag_scope_updi():
/Users/askn/Documents/Zinnia-tools/Products/software/UPDI4AVR-USB/src/updi.cpp:416
      USART::change_updi();
      _rspsize = Timeout::command(&connect);
    3d2a:	85 ed       	ldi	r24, 0xD5	; 213
    3d2c:	91 e1       	ldi	r25, 0x11	; 17
    3d2e:	0e 94 3a 15 	call	0x2a74	; 0x2a74 <Timeout::command(unsigned int (*)(), unsigned int) [clone .constprop.16]>
    3d32:	7c 01       	movw	r14, r24
/Users/askn/Documents/Zinnia-tools/Products/software/UPDI4AVR-USB/src/updi.cpp:418
      /* If it fails here, it is expected to try again, giving it a chance at HV control. */
      packet.in.res = _rspsize ? 0x84 : 0xA0; /* RSP3_DATA : RSP3_FAILED */
    3d34:	cd bf       	out	0x3d, r28	; 61
    3d36:	de bf       	out	0x3e, r29	; 62
main():
    3d38:	84 e8       	ldi	r24, 0x84	; 132
    3d3a:	90 e0       	ldi	r25, 0x00	; 0
jtag_scope_updi():
    3d3c:	e1 14       	cp	r14, r1
    3d3e:	f1 04       	cpc	r15, r1
    3d40:	09 f0       	breq	.+2      	; 0x3d44 <main+0x11c0>
    3d42:	bc c0       	rjmp	.+376    	; 0x3ebc <main+0x1338>
main():
/Users/askn/Documents/Zinnia-tools/Products/software/UPDI4AVR-USB/src/updi.cpp:471
    else if (_cmd == 0x23) {        /* CMD3_WRITE_MEMORY */
      D1PRINTF(" UPDI_WRITE=%02X:%06lX:%04X\r\n", packet.out.bMType,
        packet.out.dwAddr, (size_t)packet.out.dwLength);
      _rspsize = Timeout::command(Command_Table.write_memory);
    }
    packet.in.res = _rspsize ? 0x80 : 0xA0;   /* RSP3_OK : RSP3_FAILED */
    3d44:	80 ea       	ldi	r24, 0xA0	; 160
    3d46:	90 e0       	ldi	r25, 0x00	; 0
    3d48:	b9 c0       	rjmp	.+370    	; 0x3ebc <main+0x1338>
jtag_scope_updi():
/Users/askn/Documents/Zinnia-tools/Products/software/UPDI4AVR-USB/src/updi.cpp:421
      _rspsize = Timeout::command(&connect);
      /* If it fails here, it is expected to try again, giving it a chance at HV control. */
      packet.in.res = _rspsize ? 0x84 : 0xA0; /* RSP3_DATA : RSP3_FAILED */
      return _rspsize;
    }
    else if (_cmd == 0x11) {        /* CMD3_SIGN_OFF */
    3d4a:	91 e1       	ldi	r25, 0x11	; 17
    3d4c:	f9 12       	cpse	r15, r25
    3d4e:	1f c0       	rjmp	.+62     	; 0x3d8e <main+0x120a>
/Users/askn/Documents/Zinnia-tools/Products/software/UPDI4AVR-USB/src/updi.cpp:422
      D1PRINTF(" UPDI_SIGN_OFF\r\n");
    3d50:	84 e0       	ldi	r24, 0x04	; 4
    3d52:	94 e0       	ldi	r25, 0x04	; 4
    3d54:	9f 93       	push	r25
    3d56:	8f 93       	push	r24
    3d58:	1f 93       	push	r17
    3d5a:	0f 93       	push	r16
    3d5c:	0e 94 2e 0a 	call	0x145c	; 0x145c <Print::printf(PGM_t const*, ...) [clone .constprop.21]>
/Users/askn/Documents/Zinnia-tools/Products/software/UPDI4AVR-USB/src/updi.cpp:424
      /* If UPDI control has failed, RSP3_OK is always returned. */
      _rspsize = bit_is_set(PGCONF, PGCONF_UPDI_bp) ? Timeout::command(&disconnect) : 1;
    3d60:	0f 90       	pop	r0
    3d62:	0f 90       	pop	r0
    3d64:	0f 90       	pop	r0
    3d66:	0f 90       	pop	r0
    3d68:	e8 9b       	sbis	0x1d, 0	; 29
    3d6a:	0d c0       	rjmp	.+26     	; 0x3d86 <main+0x1202>
    3d6c:	8e ea       	ldi	r24, 0xAE	; 174
    3d6e:	91 e1       	ldi	r25, 0x11	; 17
    3d70:	0e 94 3a 15 	call	0x2a74	; 0x2a74 <Timeout::command(unsigned int (*)(), unsigned int) [clone .constprop.16]>
    3d74:	7c 01       	movw	r14, r24
/Users/askn/Documents/Zinnia-tools/Products/software/UPDI4AVR-USB/src/updi.cpp:425
      USART::setup();
    3d76:	0e 94 97 0f 	call	0x1f2e	; 0x1f2e <USART::setup()>
/Users/askn/Documents/Zinnia-tools/Products/software/UPDI4AVR-USB/src/updi.cpp:426
      USART::change_vcp();
    3d7a:	0e 94 52 0a 	call	0x14a4	; 0x14a4 <USART::change_vcp()>
/Users/askn/Documents/Zinnia-tools/Products/software/UPDI4AVR-USB/src/updi.cpp:471
    else if (_cmd == 0x23) {        /* CMD3_WRITE_MEMORY */
      D1PRINTF(" UPDI_WRITE=%02X:%06lX:%04X\r\n", packet.out.bMType,
        packet.out.dwAddr, (size_t)packet.out.dwLength);
      _rspsize = Timeout::command(Command_Table.write_memory);
    }
    packet.in.res = _rspsize ? 0x80 : 0xA0;   /* RSP3_OK : RSP3_FAILED */
    3d7e:	e1 14       	cp	r14, r1
    3d80:	f1 04       	cpc	r15, r1
    3d82:	01 f3       	breq	.-64     	; 0x3d44 <main+0x11c0>
    3d84:	31 c0       	rjmp	.+98     	; 0x3de8 <main+0x1264>
main():
/Users/askn/Documents/Zinnia-tools/Products/software/UPDI4AVR-USB/src/updi.cpp:424
      return _rspsize;
    }
    else if (_cmd == 0x11) {        /* CMD3_SIGN_OFF */
      D1PRINTF(" UPDI_SIGN_OFF\r\n");
      /* If UPDI control has failed, RSP3_OK is always returned. */
      _rspsize = bit_is_set(PGCONF, PGCONF_UPDI_bp) ? Timeout::command(&disconnect) : 1;
    3d86:	ee 24       	eor	r14, r14
    3d88:	e3 94       	inc	r14
    3d8a:	f1 2c       	mov	r15, r1
    3d8c:	f4 cf       	rjmp	.-24     	; 0x3d76 <main+0x11f2>
jtag_scope_updi():
/Users/askn/Documents/Zinnia-tools/Products/software/UPDI4AVR-USB/src/updi.cpp:428
      USART::setup();
      USART::change_vcp();
    }
    else if (_cmd == 0x15) {        /* CMD3_ENTER_PROGMODE */
    3d8e:	e5 e1       	ldi	r30, 0x15	; 21
    3d90:	fe 12       	cpse	r15, r30
    3d92:	18 c0       	rjmp	.+48     	; 0x3dc4 <main+0x1240>
/Users/askn/Documents/Zinnia-tools/Products/software/UPDI4AVR-USB/src/updi.cpp:429
      D1PRINTF(" UPDI_ENTER_PROG\r\n");
    3d94:	81 ef       	ldi	r24, 0xF1	; 241
    3d96:	93 e0       	ldi	r25, 0x03	; 3
    3d98:	9f 93       	push	r25
    3d9a:	8f 93       	push	r24
    3d9c:	1f 93       	push	r17
    3d9e:	0f 93       	push	r16
    3da0:	0e 94 2e 0a 	call	0x145c	; 0x145c <Print::printf(PGM_t const*, ...) [clone .constprop.21]>
/Users/askn/Documents/Zinnia-tools/Products/software/UPDI4AVR-USB/src/updi.cpp:432
      /* On failure, RSP3_OK is returned if a UPDI connection is available. */
      /* Locked devices are given the opportunity to write to USERROW and erase the chip. */
      _rspsize = Timeout::command(&enter_progmode) || bit_is_set(PGCONF, PGCONF_UPDI_bp);
    3da4:	84 eb       	ldi	r24, 0xB4	; 180
    3da6:	9f e0       	ldi	r25, 0x0F	; 15
    3da8:	0e 94 3a 15 	call	0x2a74	; 0x2a74 <Timeout::command(unsigned int (*)(), unsigned int) [clone .constprop.16]>
    3dac:	0f 90       	pop	r0
    3dae:	0f 90       	pop	r0
    3db0:	0f 90       	pop	r0
    3db2:	0f 90       	pop	r0
    3db4:	89 2b       	or	r24, r25
    3db6:	21 f4       	brne	.+8      	; 0x3dc0 <main+0x123c>
    3db8:	ed b2       	in	r14, 0x1d	; 29
    3dba:	fe 2d       	mov	r31, r14
    3dbc:	f1 70       	andi	r31, 0x01	; 1
    3dbe:	ef 2e       	mov	r14, r31
    3dc0:	f1 2c       	mov	r15, r1
    3dc2:	dd cf       	rjmp	.-70     	; 0x3d7e <main+0x11fa>
/Users/askn/Documents/Zinnia-tools/Products/software/UPDI4AVR-USB/src/updi.cpp:434
    }
    else if (_cmd == 0x16) {        /* CMD3_LEAVE_PROGMODE */
    3dc4:	26 e1       	ldi	r18, 0x16	; 22
    3dc6:	f2 12       	cpse	r15, r18
    3dc8:	12 c0       	rjmp	.+36     	; 0x3dee <main+0x126a>
/Users/askn/Documents/Zinnia-tools/Products/software/UPDI4AVR-USB/src/updi.cpp:435
      D1PRINTF(" UPDI_LEAVE_PROG\r\n");
    3dca:	8e ed       	ldi	r24, 0xDE	; 222
    3dcc:	93 e0       	ldi	r25, 0x03	; 3
    3dce:	9f 93       	push	r25
    3dd0:	8f 93       	push	r24
    3dd2:	1f 93       	push	r17
    3dd4:	0f 93       	push	r16
    3dd6:	0e 94 2e 0a 	call	0x145c	; 0x145c <Print::printf(PGM_t const*, ...) [clone .constprop.21]>
    3dda:	0f 90       	pop	r0
    3ddc:	0f 90       	pop	r0
    3dde:	0f 90       	pop	r0
    3de0:	0f 90       	pop	r0
main():
/Users/askn/Documents/Zinnia-tools/Products/software/UPDI4AVR-USB/src/updi.cpp:438
      /* There is nothing to do. */
      /* The actual termination process is delayed until CMD3_SIGN_OFF. */
      _rspsize = 1;
    3de2:	ee 24       	eor	r14, r14
    3de4:	e3 94       	inc	r14
    3de6:	f1 2c       	mov	r15, r1
/Users/askn/Documents/Zinnia-tools/Products/software/UPDI4AVR-USB/src/updi.cpp:471
    else if (_cmd == 0x23) {        /* CMD3_WRITE_MEMORY */
      D1PRINTF(" UPDI_WRITE=%02X:%06lX:%04X\r\n", packet.out.bMType,
        packet.out.dwAddr, (size_t)packet.out.dwLength);
      _rspsize = Timeout::command(Command_Table.write_memory);
    }
    packet.in.res = _rspsize ? 0x80 : 0xA0;   /* RSP3_OK : RSP3_FAILED */
    3de8:	80 e8       	ldi	r24, 0x80	; 128
    3dea:	90 e0       	ldi	r25, 0x00	; 0
    3dec:	67 c0       	rjmp	.+206    	; 0x3ebc <main+0x1338>
jtag_scope_updi():
/Users/askn/Documents/Zinnia-tools/Products/software/UPDI4AVR-USB/src/updi.cpp:440
      D1PRINTF(" UPDI_LEAVE_PROG\r\n");
      /* There is nothing to do. */
      /* The actual termination process is delayed until CMD3_SIGN_OFF. */
      _rspsize = 1;
    }
    else if (_cmd == 0x20) {        /* CMD3_ERASE_MEMORY */
    3dee:	30 e2       	ldi	r19, 0x20	; 32
    3df0:	f3 12       	cpse	r15, r19
    3df2:	20 c0       	rjmp	.+64     	; 0x3e34 <main+0x12b0>
/Users/askn/Documents/Zinnia-tools/Products/software/UPDI4AVR-USB/src/updi.cpp:441
      D1PRINTF(" UPDI_ERASE=%02X:%06lX\r\n",
    3df4:	80 91 d9 60 	lds	r24, 0x60D9	; 0x8060d9 <packet+0xb>
    3df8:	8f 93       	push	r24
    3dfa:	80 91 d8 60 	lds	r24, 0x60D8	; 0x8060d8 <packet+0xa>
    3dfe:	8f 93       	push	r24
    3e00:	80 91 d7 60 	lds	r24, 0x60D7	; 0x8060d7 <packet+0x9>
    3e04:	8f 93       	push	r24
    3e06:	80 91 d6 60 	lds	r24, 0x60D6	; 0x8060d6 <packet+0x8>
    3e0a:	8f 93       	push	r24
    3e0c:	1f 92       	push	r1
    3e0e:	df 92       	push	r13
    3e10:	85 ec       	ldi	r24, 0xC5	; 197
    3e12:	93 e0       	ldi	r25, 0x03	; 3
    3e14:	9f 93       	push	r25
    3e16:	8f 93       	push	r24
    3e18:	1f 93       	push	r17
    3e1a:	0f 93       	push	r16
    3e1c:	0e 94 2e 0a 	call	0x145c	; 0x145c <Print::printf(PGM_t const*, ...) [clone .constprop.21]>
/Users/askn/Documents/Zinnia-tools/Products/software/UPDI4AVR-USB/src/updi.cpp:443
        packet.out.bEType, packet.out.dwPageAddr);
      _rspsize = Timeout::command(Command_Table.erase_memory);
    3e20:	80 91 12 63 	lds	r24, 0x6312	; 0x806312 <Command_Table+0x4>
    3e24:	90 91 13 63 	lds	r25, 0x6313	; 0x806313 <Command_Table+0x5>
/Users/askn/Documents/Zinnia-tools/Products/software/UPDI4AVR-USB/src/updi.cpp:469
      return _rspsize;
    }
    else if (_cmd == 0x23) {        /* CMD3_WRITE_MEMORY */
      D1PRINTF(" UPDI_WRITE=%02X:%06lX:%04X\r\n", packet.out.bMType,
        packet.out.dwAddr, (size_t)packet.out.dwLength);
      _rspsize = Timeout::command(Command_Table.write_memory);
    3e28:	0e 94 3a 15 	call	0x2a74	; 0x2a74 <Timeout::command(unsigned int (*)(), unsigned int) [clone .constprop.16]>
    3e2c:	7c 01       	movw	r14, r24
    3e2e:	cd bf       	out	0x3d, r28	; 61
    3e30:	de bf       	out	0x3e, r29	; 62
    3e32:	a5 cf       	rjmp	.-182    	; 0x3d7e <main+0x11fa>
/Users/askn/Documents/Zinnia-tools/Products/software/UPDI4AVR-USB/src/updi.cpp:445
    else if (_cmd == 0x20) {        /* CMD3_ERASE_MEMORY */
      D1PRINTF(" UPDI_ERASE=%02X:%06lX\r\n",
        packet.out.bEType, packet.out.dwPageAddr);
      _rspsize = Timeout::command(Command_Table.erase_memory);
    }
    else if (bit_is_clear(PGCONF, PGCONF_UPDI_bp)) { /* empty */ }
    3e34:	e8 9b       	sbis	0x1d, 0	; 29
    3e36:	92 c0       	rjmp	.+292    	; 0x3f5c <main+0x13d8>
/Users/askn/Documents/Zinnia-tools/Products/software/UPDI4AVR-USB/src/updi.cpp:446
    else if (_cmd == 0x21) {        /* CMD3_READ_MEMORY */
    3e38:	91 e2       	ldi	r25, 0x21	; 33
    3e3a:	f9 12       	cpse	r15, r25
    3e3c:	6b c0       	rjmp	.+214    	; 0x3f14 <main+0x1390>
/Users/askn/Documents/Zinnia-tools/Products/software/UPDI4AVR-USB/src/updi.cpp:447
      D1PRINTF(" UPDI_READ=%02X:%06lX:%04X\r\n", packet.out.bMType,
    3e3e:	80 91 db 60 	lds	r24, 0x60DB	; 0x8060db <packet+0xd>
    3e42:	8f 93       	push	r24
    3e44:	80 91 da 60 	lds	r24, 0x60DA	; 0x8060da <packet+0xc>
    3e48:	8f 93       	push	r24
    3e4a:	80 91 d9 60 	lds	r24, 0x60D9	; 0x8060d9 <packet+0xb>
    3e4e:	8f 93       	push	r24
    3e50:	80 91 d8 60 	lds	r24, 0x60D8	; 0x8060d8 <packet+0xa>
    3e54:	8f 93       	push	r24
    3e56:	80 91 d7 60 	lds	r24, 0x60D7	; 0x8060d7 <packet+0x9>
    3e5a:	8f 93       	push	r24
    3e5c:	80 91 d6 60 	lds	r24, 0x60D6	; 0x8060d6 <packet+0x8>
    3e60:	8f 93       	push	r24
    3e62:	1f 92       	push	r1
    3e64:	df 92       	push	r13
    3e66:	88 ea       	ldi	r24, 0xA8	; 168
    3e68:	93 e0       	ldi	r25, 0x03	; 3
    3e6a:	9f 93       	push	r25
    3e6c:	8f 93       	push	r24
    3e6e:	1f 93       	push	r17
    3e70:	0f 93       	push	r16
    3e72:	0e 94 2e 0a 	call	0x145c	; 0x145c <Print::printf(PGM_t const*, ...) [clone .constprop.21]>
/Users/askn/Documents/Zinnia-tools/Products/software/UPDI4AVR-USB/src/updi.cpp:449
        packet.out.dwAddr, (size_t)packet.out.dwLength);
      uint8_t m_type = packet.out.bMType;
    3e76:	80 91 d5 60 	lds	r24, 0x60D5	; 0x8060d5 <packet+0x7>
/Users/askn/Documents/Zinnia-tools/Products/software/UPDI4AVR-USB/src/updi.cpp:450
      size_t _wLength = packet.out.dwLength;
    3e7a:	e0 90 da 60 	lds	r14, 0x60DA	; 0x8060da <packet+0xc>
    3e7e:	f0 90 db 60 	lds	r15, 0x60DB	; 0x8060db <packet+0xd>
/Users/askn/Documents/Zinnia-tools/Products/software/UPDI4AVR-USB/src/updi.cpp:451
      if (m_type == 0xD3) {         /* MTYPE_SIB */
    3e82:	cd bf       	out	0x3d, r28	; 61
    3e84:	de bf       	out	0x3e, r29	; 62
    3e86:	83 3d       	cpi	r24, 0xD3	; 211
    3e88:	f1 f4       	brne	.+60     	; 0x3ec6 <main+0x1342>
/Users/askn/Documents/Zinnia-tools/Products/software/UPDI4AVR-USB/src/updi.cpp:453
        /* The SIB request occurs before ENTER_PROGMODE. */
        memcpy(&packet.in.data[(uint8_t)packet.out.dwAddr & 31], &_sib, ((_wLength - 1) & 31) + 1);
    3e8a:	80 91 d6 60 	lds	r24, 0x60D6	; 0x8060d6 <packet+0x8>
    3e8e:	8f 71       	andi	r24, 0x1F	; 31
    3e90:	90 e0       	ldi	r25, 0x00	; 0
    3e92:	a7 01       	movw	r20, r14
    3e94:	41 50       	subi	r20, 0x01	; 1
    3e96:	51 09       	sbc	r21, r1
    3e98:	4f 71       	andi	r20, 0x1F	; 31
    3e9a:	55 27       	eor	r21, r21
    3e9c:	4f 5f       	subi	r20, 0xFF	; 255
    3e9e:	5f 4f       	sbci	r21, 0xFF	; 255
    3ea0:	6e ee       	ldi	r22, 0xEE	; 238
    3ea2:	72 e6       	ldi	r23, 0x62	; 98
    3ea4:	8b 52       	subi	r24, 0x2B	; 43
    3ea6:	9f 49       	sbci	r25, 0x9F	; 159
    3ea8:	85 d5       	rcall	.+2826   	; 0x49b4 <memcpy>
/Users/askn/Documents/Zinnia-tools/Products/software/UPDI4AVR-USB/src/updi.cpp:454
        _rspsize = _wLength + 1;
    3eaa:	ff ef       	ldi	r31, 0xFF	; 255
    3eac:	ef 1a       	sub	r14, r31
    3eae:	ff 0a       	sbc	r15, r31
main():
/Users/askn/Documents/Zinnia-tools/Products/software/UPDI4AVR-USB/src/updi.cpp:463
      }
      /* If not in PROGMODE, respond with a dummy. */
      /* A dummy SIG will be returned for locked devices. */
      /* This will prevent AVRDUDE from displaying annoying errors. */
      else _rspsize = read_dummy();
      packet.in.res = _rspsize ? 0x184 : 0xA0;
    3eb0:	84 e8       	ldi	r24, 0x84	; 132
    3eb2:	91 e0       	ldi	r25, 0x01	; 1
jtag_scope_updi():
    3eb4:	e1 14       	cp	r14, r1
    3eb6:	f1 04       	cpc	r15, r1
    3eb8:	09 f4       	brne	.+2      	; 0x3ebc <main+0x1338>
    3eba:	44 cf       	rjmp	.-376    	; 0x3d44 <main+0x11c0>
/Users/askn/Documents/Zinnia-tools/Products/software/UPDI4AVR-USB/src/updi.cpp:471
    else if (_cmd == 0x23) {        /* CMD3_WRITE_MEMORY */
      D1PRINTF(" UPDI_WRITE=%02X:%06lX:%04X\r\n", packet.out.bMType,
        packet.out.dwAddr, (size_t)packet.out.dwLength);
      _rspsize = Timeout::command(Command_Table.write_memory);
    }
    packet.in.res = _rspsize ? 0x80 : 0xA0;   /* RSP3_OK : RSP3_FAILED */
    3ebc:	80 93 d3 60 	sts	0x60D3, r24	; 0x8060d3 <packet+0x5>
    3ec0:	90 93 d4 60 	sts	0x60D4, r25	; 0x8060d4 <packet+0x6>
    3ec4:	86 cc       	rjmp	.-1780   	; 0x37d2 <main+0xc4e>
/Users/askn/Documents/Zinnia-tools/Products/software/UPDI4AVR-USB/src/updi.cpp:456
      if (m_type == 0xD3) {         /* MTYPE_SIB */
        /* The SIB request occurs before ENTER_PROGMODE. */
        memcpy(&packet.in.data[(uint8_t)packet.out.dwAddr & 31], &_sib, ((_wLength - 1) & 31) + 1);
        _rspsize = _wLength + 1;
      }
      else if (bit_is_set(PGCONF, PGCONF_PROG_bp)) {
    3ec6:	e9 9b       	sbis	0x1d, 1	; 29
    3ec8:	08 c0       	rjmp	.+16     	; 0x3eda <main+0x1356>
/Users/askn/Documents/Zinnia-tools/Products/software/UPDI4AVR-USB/src/updi.cpp:457
        _rspsize = Timeout::command(Command_Table.read_memory);
    3eca:	80 91 10 63 	lds	r24, 0x6310	; 0x806310 <Command_Table+0x2>
    3ece:	90 91 11 63 	lds	r25, 0x6311	; 0x806311 <Command_Table+0x3>
    3ed2:	0e 94 3a 15 	call	0x2a74	; 0x2a74 <Timeout::command(unsigned int (*)(), unsigned int) [clone .constprop.16]>
    3ed6:	7c 01       	movw	r14, r24
    3ed8:	eb cf       	rjmp	.-42     	; 0x3eb0 <main+0x132c>
read_dummy():
/Users/askn/Documents/Zinnia-tools/Products/software/UPDI4AVR-USB/src/updi.cpp:309
   * Read dummy memory if necessary.
   */
  size_t read_dummy (void) {
    uint8_t  m_type = packet.out.bMType;
    size_t _wLength = packet.out.dwLength;
    if (m_type == 0xB4 && _sib[0]) {
    3eda:	84 3b       	cpi	r24, 0xB4	; 180
    3edc:	a1 f4       	brne	.+40     	; 0x3f06 <main+0x1382>
    3ede:	80 91 ee 62 	lds	r24, 0x62EE	; 0x8062ee <_sib>
    3ee2:	88 23       	and	r24, r24
    3ee4:	81 f0       	breq	.+32     	; 0x3f06 <main+0x1382>
/Users/askn/Documents/Zinnia-tools/Products/software/UPDI4AVR-USB/src/updi.cpp:312
      /* The SIGNATURE of a locked device cannot be read.            */
      /* But, the SIB can be read, so a Dummy SIGNATURE is returned. */
      packet.in.data[0] = 0x1E;
    3ee6:	9e e1       	ldi	r25, 0x1E	; 30
    3ee8:	90 93 d5 60 	sts	0x60D5, r25	; 0x8060d5 <packet+0x7>
/Users/askn/Documents/Zinnia-tools/Products/software/UPDI4AVR-USB/src/updi.cpp:313
      packet.in.data[1] = _sib[0] == ' ' ? 'A' : _sib[0];
    3eec:	80 32       	cpi	r24, 0x20	; 32
    3eee:	09 f4       	brne	.+2      	; 0x3ef2 <main+0x136e>
main():
    3ef0:	81 e4       	ldi	r24, 0x41	; 65
read_dummy():
    3ef2:	80 93 d6 60 	sts	0x60D6, r24	; 0x8060d6 <packet+0x8>
/Users/askn/Documents/Zinnia-tools/Products/software/UPDI4AVR-USB/src/updi.cpp:314
      packet.in.data[2] = _sib[10];
    3ef6:	80 91 f8 62 	lds	r24, 0x62F8	; 0x8062f8 <_sib+0xa>
    3efa:	80 93 d7 60 	sts	0x60D7, r24	; 0x8060d7 <packet+0x9>
/Users/askn/Documents/Zinnia-tools/Products/software/UPDI4AVR-USB/src/updi.cpp:317
    }
    else memset(&packet.in.data[0], 0xFF, _wLength);
    return _wLength + 1;
    3efe:	2f ef       	ldi	r18, 0xFF	; 255
    3f00:	e2 1a       	sub	r14, r18
    3f02:	f2 0a       	sbc	r15, r18
    3f04:	d5 cf       	rjmp	.-86     	; 0x3eb0 <main+0x132c>
/Users/askn/Documents/Zinnia-tools/Products/software/UPDI4AVR-USB/src/updi.cpp:316
      /* But, the SIB can be read, so a Dummy SIGNATURE is returned. */
      packet.in.data[0] = 0x1E;
      packet.in.data[1] = _sib[0] == ' ' ? 'A' : _sib[0];
      packet.in.data[2] = _sib[10];
    }
    else memset(&packet.in.data[0], 0xFF, _wLength);
    3f06:	a7 01       	movw	r20, r14
    3f08:	6f ef       	ldi	r22, 0xFF	; 255
    3f0a:	70 e0       	ldi	r23, 0x00	; 0
    3f0c:	85 ed       	ldi	r24, 0xD5	; 213
    3f0e:	90 e6       	ldi	r25, 0x60	; 96
    3f10:	5a d5       	rcall	.+2740   	; 0x49c6 <memset>
    3f12:	f5 cf       	rjmp	.-22     	; 0x3efe <main+0x137a>
jtag_scope_updi():
/Users/askn/Documents/Zinnia-tools/Products/software/UPDI4AVR-USB/src/updi.cpp:466
      /* This will prevent AVRDUDE from displaying annoying errors. */
      else _rspsize = read_dummy();
      packet.in.res = _rspsize ? 0x184 : 0xA0;
      return _rspsize;
    }
    else if (_cmd == 0x23) {        /* CMD3_WRITE_MEMORY */
    3f14:	33 e2       	ldi	r19, 0x23	; 35
    3f16:	f3 12       	cpse	r15, r19
    3f18:	21 c0       	rjmp	.+66     	; 0x3f5c <main+0x13d8>
/Users/askn/Documents/Zinnia-tools/Products/software/UPDI4AVR-USB/src/updi.cpp:467
      D1PRINTF(" UPDI_WRITE=%02X:%06lX:%04X\r\n", packet.out.bMType,
    3f1a:	80 91 db 60 	lds	r24, 0x60DB	; 0x8060db <packet+0xd>
    3f1e:	8f 93       	push	r24
    3f20:	80 91 da 60 	lds	r24, 0x60DA	; 0x8060da <packet+0xc>
    3f24:	8f 93       	push	r24
    3f26:	80 91 d9 60 	lds	r24, 0x60D9	; 0x8060d9 <packet+0xb>
    3f2a:	8f 93       	push	r24
    3f2c:	80 91 d8 60 	lds	r24, 0x60D8	; 0x8060d8 <packet+0xa>
    3f30:	8f 93       	push	r24
    3f32:	80 91 d7 60 	lds	r24, 0x60D7	; 0x8060d7 <packet+0x9>
    3f36:	8f 93       	push	r24
    3f38:	80 91 d6 60 	lds	r24, 0x60D6	; 0x8060d6 <packet+0x8>
    3f3c:	8f 93       	push	r24
    3f3e:	1f 92       	push	r1
    3f40:	df 92       	push	r13
    3f42:	8a e8       	ldi	r24, 0x8A	; 138
    3f44:	93 e0       	ldi	r25, 0x03	; 3
    3f46:	9f 93       	push	r25
    3f48:	8f 93       	push	r24
    3f4a:	1f 93       	push	r17
    3f4c:	0f 93       	push	r16
    3f4e:	0e 94 2e 0a 	call	0x145c	; 0x145c <Print::printf(PGM_t const*, ...) [clone .constprop.21]>
/Users/askn/Documents/Zinnia-tools/Products/software/UPDI4AVR-USB/src/updi.cpp:469
        packet.out.dwAddr, (size_t)packet.out.dwLength);
      _rspsize = Timeout::command(Command_Table.write_memory);
    3f52:	80 91 14 63 	lds	r24, 0x6314	; 0x806314 <Command_Table+0x6>
    3f56:	90 91 15 63 	lds	r25, 0x6315	; 0x806315 <Command_Table+0x7>
    3f5a:	66 cf       	rjmp	.-308    	; 0x3e28 <main+0x12a4>
main():
/Users/askn/Documents/Zinnia-tools/Products/software/UPDI4AVR-USB/src/updi.cpp:410
    return (*Command_Table.prog_init)();
  }

  /* ARCH=UPDI scope Provides functionality. */
  size_t jtag_scope_updi (void) {
    size_t _rspsize = 0;
    3f5c:	f1 2c       	mov	r15, r1
    3f5e:	e1 2c       	mov	r14, r1
    3f60:	f1 ce       	rjmp	.-542    	; 0x3d44 <main+0x11c0>
jtag_scope_avr_core():
/Users/askn/Documents/Zinnia-tools/Products/software/UPDI4AVR-USB/src/jtag.cpp:376
    else packet.in.res = 0xA0;      /* RSP3_FAILED */
    3f62:	80 ea       	ldi	r24, 0xA0	; 160
    3f64:	90 e0       	ldi	r25, 0x00	; 0
    3f66:	95 cd       	rjmp	.-1238   	; 0x3a92 <main+0xf0e>
jtag_scope_branch():
/Users/askn/Documents/Zinnia-tools/Products/software/UPDI4AVR-USB/src/jtag.cpp:399
    else if (_scope == 0x13) _rspsize = AVR32::jtag_scope_avr32();  /* SCOPE_AVR32 */
  #endif
    else if (_scope == 0x12) _rspsize = jtag_scope_avr_core();      /* SCOPE_AVR */
  #ifdef CONFIG_PGM_TPI_ENABLE
    /* The 14P models have limited TPI support due to insufficient pin count. */
    else if (_scope == 0x14) _rspsize = TPI::jtag_scope_tpi();      /* SCOPE_AVR_TPI */
    3f68:	94 e1       	ldi	r25, 0x14	; 20
    3f6a:	f9 12       	cpse	r15, r25
    3f6c:	46 c1       	rjmp	.+652    	; 0x41fa <main+0x1676>
jtag_scope_tpi():
/Users/askn/Documents/Zinnia-tools/Products/software/UPDI4AVR-USB/src/tpi.cpp:301
   * It doesn't seem to be implemented in the "mEDBG".
   * which means it will start immediately with XPRG_CMD_ENTER_PROGMODE.
   */
  size_t jtag_scope_tpi (void) {
    size_t _rspsize = 0;  /* Make final adjustments. */
    uint8_t _cmd    = packet.out.cmd;
    3f6e:	80 91 d3 60 	lds	r24, 0x60D3	; 0x8060d3 <packet+0x5>
/Users/askn/Documents/Zinnia-tools/Products/software/UPDI4AVR-USB/src/tpi.cpp:302
    if (_cmd == 0x01) {             /* XPRG_CMD_ENTER_PROGMODE */
    3f72:	81 30       	cpi	r24, 0x01	; 1
    3f74:	09 f0       	breq	.+2      	; 0x3f78 <main+0x13f4>
    3f76:	6c c0       	rjmp	.+216    	; 0x4050 <main+0x14cc>
/Users/askn/Documents/Zinnia-tools/Products/software/UPDI4AVR-USB/src/tpi.cpp:303
      D1PRINTF(" TPI_ENTER_PROGMODE\r\n");
    3f78:	8c ed       	ldi	r24, 0xDC	; 220
    3f7a:	95 e0       	ldi	r25, 0x05	; 5
    3f7c:	9f 93       	push	r25
    3f7e:	8f 93       	push	r24
    3f80:	1f 93       	push	r17
    3f82:	0f 93       	push	r16
    3f84:	0e 94 2e 0a 	call	0x145c	; 0x145c <Print::printf(PGM_t const*, ...) [clone .constprop.21]>
/Users/askn/Documents/Zinnia-tools/Products/software/UPDI4AVR-USB/src/tpi.cpp:304
      USART::setup();
    3f88:	0e 94 97 0f 	call	0x1f2e	; 0x1f2e <USART::setup()>
change_tpi():
/Users/askn/Documents/Zinnia-tools/Products/software/UPDI4AVR-USB/src/usart.cpp:96
  }

  /*** Set up single-wire synchronous mode for TPI operation. ***/
  /* The VCD-TxD is repurposed to transmit the synchronous clock. */
  void change_tpi (void) {
    ATOMIC_BLOCK(ATOMIC_RESTORESTATE) {
    3f8c:	ff b6       	in	r15, 0x3f	; 63
__iCliRetVal():
/Users/askn/Library/Arduino15/packages/MultiX-Zinnia/tools/avr-gcc/7.3.0-avr8-gnu-toolchain/avr/include/util/atomic.h:50
    return 1;
}

static __inline__ uint8_t __iCliRetVal(void)
{
    cli();
    3f8e:	f8 94       	cli
change_tpi():
/Users/askn/Documents/Zinnia-tools/Products/software/UPDI4AVR-USB/src/usart.cpp:97
      D1PRINTF(" UART=TPI\r\n");
    3f90:	84 e4       	ldi	r24, 0x44	; 68
    3f92:	95 e0       	ldi	r25, 0x05	; 5
    3f94:	9f 93       	push	r25
    3f96:	8f 93       	push	r24
    3f98:	1f 93       	push	r17
    3f9a:	0f 93       	push	r16
    3f9c:	0e 94 2e 0a 	call	0x145c	; 0x145c <Print::printf(PGM_t const*, ...) [clone .constprop.21]>
/Users/askn/Documents/Zinnia-tools/Products/software/UPDI4AVR-USB/src/usart.cpp:99
      /* In synchronous mode the formula is different. */
      uint32_t _baud = ((F_CPU / 1000L) / _xclk + 1) / 2;
    3fa0:	20 91 18 60 	lds	r18, 0x6018	; 0x806018 <_xclk>
    3fa4:	30 91 19 60 	lds	r19, 0x6019	; 0x806019 <_xclk+0x1>
    3fa8:	50 e0       	ldi	r21, 0x00	; 0
    3faa:	40 e0       	ldi	r20, 0x00	; 0
    3fac:	cd bf       	out	0x3d, r28	; 61
    3fae:	de bf       	out	0x3e, r29	; 62
    3fb0:	60 e2       	ldi	r22, 0x20	; 32
    3fb2:	7e e4       	ldi	r23, 0x4E	; 78
    3fb4:	80 e0       	ldi	r24, 0x00	; 0
    3fb6:	90 e0       	ldi	r25, 0x00	; 0
    3fb8:	c7 d4       	rcall	.+2446   	; 0x4948 <__divmodsi4>
    3fba:	da 01       	movw	r26, r20
    3fbc:	c9 01       	movw	r24, r18
    3fbe:	01 96       	adiw	r24, 0x01	; 1
    3fc0:	a1 1d       	adc	r26, r1
    3fc2:	b1 1d       	adc	r27, r1
    3fc4:	b5 95       	asr	r27
    3fc6:	a7 95       	ror	r26
    3fc8:	97 95       	ror	r25
    3fca:	87 95       	ror	r24
/Users/askn/Documents/Zinnia-tools/Products/software/UPDI4AVR-USB/src/usart.cpp:100
      _baud <<= 6;
    3fcc:	36 e0       	ldi	r19, 0x06	; 6
    3fce:	88 0f       	add	r24, r24
    3fd0:	99 1f       	adc	r25, r25
    3fd2:	aa 1f       	adc	r26, r26
    3fd4:	bb 1f       	adc	r27, r27
    3fd6:	3a 95       	dec	r19
    3fd8:	d1 f7       	brne	.-12     	; 0x3fce <main+0x144a>
/Users/askn/Documents/Zinnia-tools/Products/software/UPDI4AVR-USB/src/usart.cpp:102
      if (_baud < 64) _baud = 64;
      PORTMUX_USARTROUTEA = PORTMUX_USART_UPDI;
    3fda:	20 e1       	ldi	r18, 0x10	; 16
    3fdc:	20 93 e2 05 	sts	0x05E2, r18	; 0x8005e2 <__TEXT_REGION_LENGTH__+0x7f05e2>
/Users/askn/Documents/Zinnia-tools/Products/software/UPDI4AVR-USB/src/usart.cpp:103
      pinModeMacro(PIN_VCP_TXD, INPUT_PULLUP);
    3fe0:	02 98       	cbi	0x00, 2	; 0
    3fe2:	28 e0       	ldi	r18, 0x08	; 8
    3fe4:	20 93 12 04 	sts	0x0412, r18	; 0x800412 <__TEXT_REGION_LENGTH__+0x7f0412>
/Users/askn/Documents/Zinnia-tools/Products/software/UPDI4AVR-USB/src/usart.cpp:104
      USART0_STATUS = USART_DREIF_bm;
    3fe8:	20 e2       	ldi	r18, 0x20	; 32
    3fea:	20 93 04 08 	sts	0x0804, r18	; 0x800804 <__TEXT_REGION_LENGTH__+0x7f0804>
/Users/askn/Documents/Zinnia-tools/Products/software/UPDI4AVR-USB/src/usart.cpp:105
      USART0_BAUD  = _baud;
    3fee:	80 34       	cpi	r24, 0x40	; 64
    3ff0:	91 05       	cpc	r25, r1
    3ff2:	a1 05       	cpc	r26, r1
    3ff4:	b1 05       	cpc	r27, r1
    3ff6:	20 f4       	brcc	.+8      	; 0x4000 <main+0x147c>
    3ff8:	80 e4       	ldi	r24, 0x40	; 64
    3ffa:	90 e0       	ldi	r25, 0x00	; 0
    3ffc:	a0 e0       	ldi	r26, 0x00	; 0
    3ffe:	b0 e0       	ldi	r27, 0x00	; 0
    4000:	80 93 08 08 	sts	0x0808, r24	; 0x800808 <__TEXT_REGION_LENGTH__+0x7f0808>
    4004:	90 93 09 08 	sts	0x0809, r25	; 0x800809 <__TEXT_REGION_LENGTH__+0x7f0809>
/Users/askn/Documents/Zinnia-tools/Products/software/UPDI4AVR-USB/src/usart.cpp:106
      USART0_CTRLC = USART_CHSIZE_8BIT_gc | USART_PMODE_EVEN_gc | USART_CMODE_SYNCHRONOUS_gc | USART_SBMODE_2BIT_gc;
    4008:	8b e6       	ldi	r24, 0x6B	; 107
    400a:	80 93 07 08 	sts	0x0807, r24	; 0x800807 <__TEXT_REGION_LENGTH__+0x7f0807>
/Users/askn/Documents/Zinnia-tools/Products/software/UPDI4AVR-USB/src/usart.cpp:107
      USART0_CTRLA = USART_LBME_bm | USART_RS485_INT_gc | USART_RS485_EXT_gc;
    400e:	8b e0       	ldi	r24, 0x0B	; 11
    4010:	80 93 05 08 	sts	0x0805, r24	; 0x800805 <__TEXT_REGION_LENGTH__+0x7f0805>
/Users/askn/Documents/Zinnia-tools/Products/software/UPDI4AVR-USB/src/usart.cpp:108
      USART0_CTRLB = USART_RXEN_bm | USART_TXEN_bm | USART_ODME_bm;
    4014:	88 ec       	ldi	r24, 0xC8	; 200
    4016:	80 93 06 08 	sts	0x0806, r24	; 0x800806 <__TEXT_REGION_LENGTH__+0x7f0806>
/Users/askn/Documents/Zinnia-tools/Products/software/UPDI4AVR-USB/src/usart.cpp:109
      D1PRINTF(" BAUD=%04X:%02X\r\n", USART0_BAUD, USART0_CTRLB);
    401a:	20 91 06 08 	lds	r18, 0x0806	; 0x800806 <__TEXT_REGION_LENGTH__+0x7f0806>
    401e:	80 91 08 08 	lds	r24, 0x0808	; 0x800808 <__TEXT_REGION_LENGTH__+0x7f0808>
    4022:	90 91 09 08 	lds	r25, 0x0809	; 0x800809 <__TEXT_REGION_LENGTH__+0x7f0809>
    4026:	1f 92       	push	r1
    4028:	2f 93       	push	r18
    402a:	9f 93       	push	r25
    402c:	8f 93       	push	r24
    402e:	82 e3       	ldi	r24, 0x32	; 50
    4030:	95 e0       	ldi	r25, 0x05	; 5
    4032:	9f 93       	push	r25
    4034:	8f 93       	push	r24
    4036:	1f 93       	push	r17
    4038:	0f 93       	push	r16
    403a:	0e 94 2e 0a 	call	0x145c	; 0x145c <Print::printf(PGM_t const*, ...) [clone .constprop.21]>
__iRestore():
/Users/askn/Library/Arduino15/packages/MultiX-Zinnia/tools/avr-gcc/7.3.0-avr8-gnu-toolchain/avr/include/util/atomic.h:70
    (void)__s;
}

static __inline__ void __iRestore(const  uint8_t *__s)
{
    SREG = *__s;
    403e:	ff be       	out	0x3f, r15	; 63
jtag_scope_tpi():
/Users/askn/Documents/Zinnia-tools/Products/software/UPDI4AVR-USB/src/tpi.cpp:306
      USART::change_tpi();
      _rspsize = Timeout::command(&connect);
    4040:	87 eb       	ldi	r24, 0xB7	; 183
    4042:	90 e1       	ldi	r25, 0x10	; 16
/Users/askn/Documents/Zinnia-tools/Products/software/UPDI4AVR-USB/src/tpi.cpp:321
    else if (_cmd == 0x03) {        /* XPRG_CMD_ERASE */
      D1PRINTF(" TPI_ERASE=%02X:%08lX\r\n",
        packet.out.tpi.read.bMType,
        bswap32(packet.out.tpi.read.dwAddr)
      );
      _rspsize = Timeout::command(&erase_memory);
    4044:	0e 94 3a 15 	call	0x2a74	; 0x2a74 <Timeout::command(unsigned int (*)(), unsigned int) [clone .constprop.16]>
    4048:	7c 01       	movw	r14, r24
    404a:	cd bf       	out	0x3d, r28	; 61
    404c:	de bf       	out	0x3e, r29	; 62
    404e:	33 c0       	rjmp	.+102    	; 0x40b6 <main+0x1532>
/Users/askn/Documents/Zinnia-tools/Products/software/UPDI4AVR-USB/src/tpi.cpp:308
      D1PRINTF(" TPI_ENTER_PROGMODE\r\n");
      USART::setup();
      USART::change_tpi();
      _rspsize = Timeout::command(&connect);
    }
    else if (_cmd == 0x02) {        /* XPRG_CMD_LEAVE_PROGMODE */
    4050:	82 30       	cpi	r24, 0x02	; 2
    4052:	09 f0       	breq	.+2      	; 0x4056 <main+0x14d2>
    4054:	4b c0       	rjmp	.+150    	; 0x40ec <main+0x1568>
/Users/askn/Documents/Zinnia-tools/Products/software/UPDI4AVR-USB/src/tpi.cpp:309
      D1PRINTF(" TPI_LEAVE_PROGMODE\r\n");
    4056:	86 ec       	ldi	r24, 0xC6	; 198
    4058:	95 e0       	ldi	r25, 0x05	; 5
    405a:	9f 93       	push	r25
    405c:	8f 93       	push	r24
    405e:	1f 93       	push	r17
    4060:	0f 93       	push	r16
    4062:	0e 94 2e 0a 	call	0x145c	; 0x145c <Print::printf(PGM_t const*, ...) [clone .constprop.21]>
set_sstcs():
/Users/askn/Documents/Zinnia-tools/Products/software/UPDI4AVR-USB/src/tpi.cpp:69
  bool get_sldcs (const uint8_t _addr) {
    return (send(0x80 | _addr) && recv());
  }

  bool set_sstcs (const uint8_t _addr, const uint8_t _data) {
    return (send(0xC0 | _addr) && send(_data));
    4066:	80 ec       	ldi	r24, 0xC0	; 192
    4068:	0e 94 f5 07 	call	0xfea	; 0xfea <TPI::send(unsigned char)>
    406c:	0f 90       	pop	r0
    406e:	0f 90       	pop	r0
    4070:	0f 90       	pop	r0
    4072:	0f 90       	pop	r0
    4074:	88 23       	and	r24, r24
    4076:	19 f0       	breq	.+6      	; 0x407e <main+0x14fa>
    4078:	80 e0       	ldi	r24, 0x00	; 0
    407a:	0e 94 f5 07 	call	0xfea	; 0xfea <TPI::send(unsigned char)>
disconnect():
/Users/askn/Documents/Zinnia-tools/Products/software/UPDI4AVR-USB/src/tpi.cpp:281
  }

  size_t disconnect (void) {
    /*** leave RESET (normal programing) ***/
    set_sstcs(0x00, 0x00);
    D1PRINTF(" TPISR<00\r\n");
    407e:	80 e5       	ldi	r24, 0x50	; 80
    4080:	95 e0       	ldi	r25, 0x05	; 5
    4082:	9f 93       	push	r25
    4084:	8f 93       	push	r24
    4086:	1f 93       	push	r17
    4088:	0f 93       	push	r16
    408a:	0e 94 2e 0a 	call	0x145c	; 0x145c <Print::printf(PGM_t const*, ...) [clone .constprop.21]>
delay_micros():
/Users/askn/Library/Arduino15/packages/MultiX-Zinnia/hardware/modernAVR/0.2.14/cores/modernAVR/api/delay_busywait.h:33
static __inline__ __attribute__((__always_inline__)) void delay_micros (uint32_t _us);
static __inline__ __attribute__((__always_inline__)) void delay_millis (uint32_t _ms);

void delay_micros (uint32_t _us) {
  if (F_CPU >= 1000000L) {
    __builtin_avr_delay_cycles((F_CPU / 1000000L) * _us);
    408e:	83 ef       	ldi	r24, 0xF3	; 243
    4090:	91 e0       	ldi	r25, 0x01	; 1
    4092:	01 97       	sbiw	r24, 0x01	; 1
    4094:	f1 f7       	brne	.-4      	; 0x4092 <main+0x150e>
    4096:	00 c0       	rjmp	.+0      	; 0x4098 <main+0x1514>
    4098:	00 00       	nop
disconnect():
/Users/askn/Documents/Zinnia-tools/Products/software/UPDI4AVR-USB/src/tpi.cpp:284
    /* Send the NVM exit command, wait a short while and release RESET. */
    delay_micros(100);
    openDrainWriteMacro(PIN_VCP_TXD, HIGH);
    409a:	02 98       	cbi	0x00, 2	; 0
/Users/askn/Documents/Zinnia-tools/Products/software/UPDI4AVR-USB/src/tpi.cpp:285
    openDrainWriteMacro(PIN_PG_TRST, HIGH);
    409c:	01 98       	cbi	0x00, 1	; 0
/Users/askn/Documents/Zinnia-tools/Products/software/UPDI4AVR-USB/src/tpi.cpp:286
    PGCONF = 0;
    409e:	1d ba       	out	0x1d, r1	; 29
jtag_scope_tpi():
/Users/askn/Documents/Zinnia-tools/Products/software/UPDI4AVR-USB/src/tpi.cpp:312
    }
    else if (_cmd == 0x02) {        /* XPRG_CMD_LEAVE_PROGMODE */
      D1PRINTF(" TPI_LEAVE_PROGMODE\r\n");
      _rspsize = disconnect();
      _tpi_setmode = 0;
      USART::setup();
    40a0:	0e 94 97 0f 	call	0x1f2e	; 0x1f2e <USART::setup()>
/Users/askn/Documents/Zinnia-tools/Products/software/UPDI4AVR-USB/src/tpi.cpp:313
      USART::change_vcp();
    40a4:	0e 94 52 0a 	call	0x14a4	; 0x14a4 <USART::change_vcp()>
    40a8:	0f 90       	pop	r0
    40aa:	0f 90       	pop	r0
    40ac:	0f 90       	pop	r0
    40ae:	0f 90       	pop	r0
main():
/Users/askn/Documents/Zinnia-tools/Products/software/UPDI4AVR-USB/src/tpi.cpp:310
      USART::change_tpi();
      _rspsize = Timeout::command(&connect);
    }
    else if (_cmd == 0x02) {        /* XPRG_CMD_LEAVE_PROGMODE */
      D1PRINTF(" TPI_LEAVE_PROGMODE\r\n");
      _rspsize = disconnect();
    40b0:	ee 24       	eor	r14, r14
    40b2:	e3 94       	inc	r14
    40b4:	f1 2c       	mov	r15, r1
jtag_scope_tpi():
/Users/askn/Documents/Zinnia-tools/Products/software/UPDI4AVR-USB/src/tpi.cpp:360
        _tpi_csr_addr = _bValue;    /* XPRG_TPI_NVMCSR_ADDRESS */
      }
  #endif
      _rspsize = 1;
    }
    packet.in.tpi_res = _rspsize ? 0x00 : 0x01; /* XPRG_ERR_OK : XPRG_ERR_FAILED */
    40b6:	81 e0       	ldi	r24, 0x01	; 1
    40b8:	e1 14       	cp	r14, r1
    40ba:	f1 04       	cpc	r15, r1
    40bc:	09 f0       	breq	.+2      	; 0x40c0 <main+0x153c>
    40be:	80 e0       	ldi	r24, 0x00	; 0
    40c0:	80 93 d4 60 	sts	0x60D4, r24	; 0x8060d4 <packet+0x6>
/Users/askn/Documents/Zinnia-tools/Products/software/UPDI4AVR-USB/src/tpi.cpp:361
    D1PRINTF(" <RES:%02X>\r\n", _rspsize);
    40c4:	ff 92       	push	r15
    40c6:	ef 92       	push	r14
    40c8:	8c e5       	ldi	r24, 0x5C	; 92
    40ca:	95 e0       	ldi	r25, 0x05	; 5
    40cc:	9f 93       	push	r25
    40ce:	8f 93       	push	r24
    40d0:	1f 93       	push	r17
    40d2:	0f 93       	push	r16
    40d4:	0e 94 2e 0a 	call	0x145c	; 0x145c <Print::printf(PGM_t const*, ...) [clone .constprop.21]>
/Users/askn/Documents/Zinnia-tools/Products/software/UPDI4AVR-USB/src/tpi.cpp:364

    /* Adds padding to XPRG responses to adjust the length of the payload. */
    return ++_rspsize;
    40d8:	9f ef       	ldi	r25, 0xFF	; 255
    40da:	e9 1a       	sub	r14, r25
    40dc:	f9 0a       	sbc	r15, r25
    40de:	0f 90       	pop	r0
    40e0:	0f 90       	pop	r0
    40e2:	0f 90       	pop	r0
    40e4:	0f 90       	pop	r0
    40e6:	0f 90       	pop	r0
    40e8:	0f 90       	pop	r0
    40ea:	73 cb       	rjmp	.-2330   	; 0x37d2 <main+0xc4e>
/Users/askn/Documents/Zinnia-tools/Products/software/UPDI4AVR-USB/src/tpi.cpp:315
      _rspsize = disconnect();
      _tpi_setmode = 0;
      USART::setup();
      USART::change_vcp();
    }
    else if (bit_is_clear(PGCONF, PGCONF_UPDI_bp)) { /* empty */ }
    40ec:	e8 9b       	sbis	0x1d, 0	; 29
    40ee:	7a c0       	rjmp	.+244    	; 0x41e4 <main+0x1660>
/Users/askn/Documents/Zinnia-tools/Products/software/UPDI4AVR-USB/src/tpi.cpp:316
    else if (_cmd == 0x03) {        /* XPRG_CMD_ERASE */
    40f0:	83 30       	cpi	r24, 0x03	; 3
    40f2:	e1 f4       	brne	.+56     	; 0x412c <main+0x15a8>
bswap32():
/Users/askn/Library/Arduino15/packages/MultiX-Zinnia/hardware/modernAVR/0.2.14/cores/modernAVR/api/cpp/btools.cpp:49
uint16_t bswap16 (uint16_t _word) {
  return __builtin_bswap16(_word);
}

uint32_t bswap32 (uint32_t _dword) {
  return __builtin_bswap32(_dword);
    40f4:	60 91 d5 60 	lds	r22, 0x60D5	; 0x8060d5 <packet+0x7>
    40f8:	70 91 d6 60 	lds	r23, 0x60D6	; 0x8060d6 <packet+0x8>
    40fc:	80 91 d7 60 	lds	r24, 0x60D7	; 0x8060d7 <packet+0x9>
    4100:	90 91 d8 60 	lds	r25, 0x60D8	; 0x8060d8 <packet+0xa>
    4104:	3d d4       	rcall	.+2170   	; 0x4980 <__bswapsi2>
jtag_scope_tpi():
/Users/askn/Documents/Zinnia-tools/Products/software/UPDI4AVR-USB/src/tpi.cpp:317
      D1PRINTF(" TPI_ERASE=%02X:%08lX\r\n",
    4106:	9f 93       	push	r25
    4108:	8f 93       	push	r24
    410a:	7f 93       	push	r23
    410c:	6f 93       	push	r22
    410e:	80 91 d4 60 	lds	r24, 0x60D4	; 0x8060d4 <packet+0x6>
    4112:	1f 92       	push	r1
    4114:	8f 93       	push	r24
    4116:	8e ea       	ldi	r24, 0xAE	; 174
    4118:	95 e0       	ldi	r25, 0x05	; 5
    411a:	9f 93       	push	r25
    411c:	8f 93       	push	r24
    411e:	1f 93       	push	r17
    4120:	0f 93       	push	r16
    4122:	0e 94 2e 0a 	call	0x145c	; 0x145c <Print::printf(PGM_t const*, ...) [clone .constprop.21]>
/Users/askn/Documents/Zinnia-tools/Products/software/UPDI4AVR-USB/src/tpi.cpp:321
        packet.out.tpi.read.bMType,
        bswap32(packet.out.tpi.read.dwAddr)
      );
      _rspsize = Timeout::command(&erase_memory);
    4126:	8c e2       	ldi	r24, 0x2C	; 44
    4128:	94 e1       	ldi	r25, 0x14	; 20
    412a:	8c cf       	rjmp	.-232    	; 0x4044 <main+0x14c0>
/Users/askn/Documents/Zinnia-tools/Products/software/UPDI4AVR-USB/src/tpi.cpp:323
    }
    else if (_cmd == 0x04) {        /* XPRG_CMD_WRITE_MEM */
    412c:	84 30       	cpi	r24, 0x04	; 4
    412e:	29 f5       	brne	.+74     	; 0x417a <main+0x15f6>
bswap16():
/Users/askn/Library/Arduino15/packages/MultiX-Zinnia/hardware/modernAVR/0.2.14/cores/modernAVR/api/cpp/btools.cpp:45
//
// Byte convert
//

uint16_t bswap16 (uint16_t _word) {
  return __builtin_bswap16(_word);
    4130:	20 91 da 60 	lds	r18, 0x60DA	; 0x8060da <packet+0xc>
    4134:	30 91 db 60 	lds	r19, 0x60DB	; 0x8060db <packet+0xd>
    4138:	32 27       	eor	r19, r18
    413a:	23 27       	eor	r18, r19
    413c:	32 27       	eor	r19, r18
bswap32():
/Users/askn/Library/Arduino15/packages/MultiX-Zinnia/hardware/modernAVR/0.2.14/cores/modernAVR/api/cpp/btools.cpp:49
}

uint32_t bswap32 (uint32_t _dword) {
  return __builtin_bswap32(_dword);
    413e:	60 91 d6 60 	lds	r22, 0x60D6	; 0x8060d6 <packet+0x8>
    4142:	70 91 d7 60 	lds	r23, 0x60D7	; 0x8060d7 <packet+0x9>
    4146:	80 91 d8 60 	lds	r24, 0x60D8	; 0x8060d8 <packet+0xa>
    414a:	90 91 d9 60 	lds	r25, 0x60D9	; 0x8060d9 <packet+0xb>
    414e:	18 d4       	rcall	.+2096   	; 0x4980 <__bswapsi2>
jtag_scope_tpi():
/Users/askn/Documents/Zinnia-tools/Products/software/UPDI4AVR-USB/src/tpi.cpp:324
      D1PRINTF(" TPI_WRITE=%02X:%08lX:%04X\r\n",
    4150:	3f 93       	push	r19
    4152:	2f 93       	push	r18
    4154:	9f 93       	push	r25
    4156:	8f 93       	push	r24
    4158:	7f 93       	push	r23
    415a:	6f 93       	push	r22
    415c:	80 91 d4 60 	lds	r24, 0x60D4	; 0x8060d4 <packet+0x6>
    4160:	1f 92       	push	r1
    4162:	8f 93       	push	r24
    4164:	81 e9       	ldi	r24, 0x91	; 145
    4166:	95 e0       	ldi	r25, 0x05	; 5
    4168:	9f 93       	push	r25
    416a:	8f 93       	push	r24
    416c:	1f 93       	push	r17
    416e:	0f 93       	push	r16
    4170:	0e 94 2e 0a 	call	0x145c	; 0x145c <Print::printf(PGM_t const*, ...) [clone .constprop.21]>
/Users/askn/Documents/Zinnia-tools/Products/software/UPDI4AVR-USB/src/tpi.cpp:329
        packet.out.tpi.write.bMType,
        bswap32(packet.out.tpi.write.dwAddr),
        bswap16(packet.out.tpi.write.wLength)
      );
      _rspsize = Timeout::command(&write_memory);
    4174:	8a e1       	ldi	r24, 0x1A	; 26
    4176:	93 e1       	ldi	r25, 0x13	; 19
    4178:	65 cf       	rjmp	.-310    	; 0x4044 <main+0x14c0>
/Users/askn/Documents/Zinnia-tools/Products/software/UPDI4AVR-USB/src/tpi.cpp:331
    }
    else if (_cmd == 0x05) {        /* XPRG_CMD_READ_MEM */
    417a:	85 30       	cpi	r24, 0x05	; 5
    417c:	29 f5       	brne	.+74     	; 0x41c8 <main+0x1644>
bswap16():
/Users/askn/Library/Arduino15/packages/MultiX-Zinnia/hardware/modernAVR/0.2.14/cores/modernAVR/api/cpp/btools.cpp:45
//
// Byte convert
//

uint16_t bswap16 (uint16_t _word) {
  return __builtin_bswap16(_word);
    417e:	20 91 d9 60 	lds	r18, 0x60D9	; 0x8060d9 <packet+0xb>
    4182:	30 91 da 60 	lds	r19, 0x60DA	; 0x8060da <packet+0xc>
    4186:	32 27       	eor	r19, r18
    4188:	23 27       	eor	r18, r19
/Users/askn/Library/Arduino15/packages/MultiX-Zinnia/hardware/modernAVR/0.2.14/cores/modernAVR/api/cpp/btools.cpp:49
}

uint32_t bswap32 (uint32_t _dword) {
  return __builtin_bswap32(_dword);
    418a:	32 27       	eor	r19, r18
bswap32():
    418c:	60 91 d5 60 	lds	r22, 0x60D5	; 0x8060d5 <packet+0x7>
    4190:	70 91 d6 60 	lds	r23, 0x60D6	; 0x8060d6 <packet+0x8>
    4194:	80 91 d7 60 	lds	r24, 0x60D7	; 0x8060d7 <packet+0x9>
    4198:	90 91 d8 60 	lds	r25, 0x60D8	; 0x8060d8 <packet+0xa>
    419c:	f1 d3       	rcall	.+2018   	; 0x4980 <__bswapsi2>
jtag_scope_tpi():
/Users/askn/Documents/Zinnia-tools/Products/software/UPDI4AVR-USB/src/tpi.cpp:332
      D1PRINTF(" TPI_READ=%02X:%08lX:%04X\r\n",
    419e:	3f 93       	push	r19
    41a0:	2f 93       	push	r18
    41a2:	9f 93       	push	r25
    41a4:	8f 93       	push	r24
    41a6:	7f 93       	push	r23
    41a8:	6f 93       	push	r22
    41aa:	80 91 d4 60 	lds	r24, 0x60D4	; 0x8060d4 <packet+0x6>
    41ae:	1f 92       	push	r1
    41b0:	8f 93       	push	r24
    41b2:	85 e7       	ldi	r24, 0x75	; 117
    41b4:	95 e0       	ldi	r25, 0x05	; 5
    41b6:	9f 93       	push	r25
    41b8:	8f 93       	push	r24
    41ba:	1f 93       	push	r17
    41bc:	0f 93       	push	r16
    41be:	0e 94 2e 0a 	call	0x145c	; 0x145c <Print::printf(PGM_t const*, ...) [clone .constprop.21]>
/Users/askn/Documents/Zinnia-tools/Products/software/UPDI4AVR-USB/src/tpi.cpp:337
        packet.out.tpi.read.bMType,
        bswap32(packet.out.tpi.read.dwAddr),
        bswap16(packet.out.tpi.read.wLength)
      );
      _rspsize = Timeout::command(&read_memory);
    41c2:	8c ef       	ldi	r24, 0xFC	; 252
    41c4:	93 e1       	ldi	r25, 0x13	; 19
    41c6:	3e cf       	rjmp	.-388    	; 0x4044 <main+0x14c0>
/Users/askn/Documents/Zinnia-tools/Products/software/UPDI4AVR-USB/src/tpi.cpp:339
    }
    else if (_cmd == 0x06) {        /* XPRG_CMD_CRC */
    41c8:	86 30       	cpi	r24, 0x06	; 6
    41ca:	79 f4       	brne	.+30     	; 0x41ea <main+0x1666>
/Users/askn/Documents/Zinnia-tools/Products/software/UPDI4AVR-USB/src/tpi.cpp:340
      D1PRINTF(" TPI_CRC\r\n");     /* not used (Fail) */
    41cc:	8a e6       	ldi	r24, 0x6A	; 106
    41ce:	95 e0       	ldi	r25, 0x05	; 5
    41d0:	9f 93       	push	r25
    41d2:	8f 93       	push	r24
    41d4:	1f 93       	push	r17
    41d6:	0f 93       	push	r16
    41d8:	0e 94 2e 0a 	call	0x145c	; 0x145c <Print::printf(PGM_t const*, ...) [clone .constprop.21]>
    41dc:	0f 90       	pop	r0
    41de:	0f 90       	pop	r0
    41e0:	0f 90       	pop	r0
    41e2:	0f 90       	pop	r0
main():
/Users/askn/Documents/Zinnia-tools/Products/software/UPDI4AVR-USB/src/tpi.cpp:300
   * When this scope is used, CMD3_SIGN_ON will not be called,
   * It doesn't seem to be implemented in the "mEDBG".
   * which means it will start immediately with XPRG_CMD_ENTER_PROGMODE.
   */
  size_t jtag_scope_tpi (void) {
    size_t _rspsize = 0;  /* Make final adjustments. */
    41e4:	f1 2c       	mov	r15, r1
    41e6:	e1 2c       	mov	r14, r1
    41e8:	66 cf       	rjmp	.-308    	; 0x40b6 <main+0x1532>
jtag_scope_tpi():
/Users/askn/Documents/Zinnia-tools/Products/software/UPDI4AVR-USB/src/tpi.cpp:342
      _rspsize = Timeout::command(&read_memory);
    }
    else if (_cmd == 0x06) {        /* XPRG_CMD_CRC */
      D1PRINTF(" TPI_CRC\r\n");     /* not used (Fail) */
    }
    else if (_cmd == 0x07) {        /* XPRG_CMD_SET_PARAM */
    41ea:	21 e0       	ldi	r18, 0x01	; 1
    41ec:	90 e0       	ldi	r25, 0x00	; 0
    41ee:	87 30       	cpi	r24, 0x07	; 7
    41f0:	09 f0       	breq	.+2      	; 0x41f4 <main+0x1670>
    41f2:	20 e0       	ldi	r18, 0x00	; 0
main():
/Users/askn/Documents/Zinnia-tools/Products/software/UPDI4AVR-USB/src/tpi.cpp:306
    uint8_t _cmd    = packet.out.cmd;
    if (_cmd == 0x01) {             /* XPRG_CMD_ENTER_PROGMODE */
      D1PRINTF(" TPI_ENTER_PROGMODE\r\n");
      USART::setup();
      USART::change_tpi();
      _rspsize = Timeout::command(&connect);
    41f4:	e2 2e       	mov	r14, r18
    41f6:	f9 2e       	mov	r15, r25
    41f8:	5e cf       	rjmp	.-324    	; 0x40b6 <main+0x1532>
jtag_scope_branch():
/Users/askn/Documents/Zinnia-tools/Products/software/UPDI4AVR-USB/src/jtag.cpp:401
  #endif
    else if (_scope == 0x20) _rspsize = jtag_scope_edbg();          /* SCOPE_EDBG */
    41fa:	e0 e2       	ldi	r30, 0x20	; 32
    41fc:	fe 12       	cpse	r15, r30
    41fe:	ee cb       	rjmp	.-2084   	; 0x39dc <main+0xe58>
jtag_scope_edbg():
/Users/askn/Documents/Zinnia-tools/Products/software/UPDI4AVR-USB/src/jtag.cpp:225

  /*** The EDBG scope provides access to the writer's hardware specifications. ***/
  /* There is no impact on operation if it is not called at all. */
  size_t jtag_scope_edbg (void) {
    size_t  _rspsize = 0;
    uint8_t _cmd     = packet.out.cmd;
    4200:	90 91 d3 60 	lds	r25, 0x60D3	; 0x8060d3 <packet+0x5>
/Users/askn/Documents/Zinnia-tools/Products/software/UPDI4AVR-USB/src/jtag.cpp:226
    uint8_t _section = packet.out.section;
    4204:	c0 90 d5 60 	lds	r12, 0x60D5	; 0x8060d5 <packet+0x7>
/Users/askn/Documents/Zinnia-tools/Products/software/UPDI4AVR-USB/src/jtag.cpp:227
    uint8_t _index   = packet.out.index;
    4208:	d0 90 d6 60 	lds	r13, 0x60D6	; 0x8060d6 <packet+0x8>
/Users/askn/Documents/Zinnia-tools/Products/software/UPDI4AVR-USB/src/jtag.cpp:228
    uint8_t _length  = packet.out.length;
    420c:	80 91 d7 60 	lds	r24, 0x60D7	; 0x8060d7 <packet+0x9>
/Users/askn/Documents/Zinnia-tools/Products/software/UPDI4AVR-USB/src/jtag.cpp:229
    if (_cmd == 0x01) {             /* CMD3_SET_PARAMETER */
    4210:	91 30       	cpi	r25, 0x01	; 1
    4212:	99 f5       	brne	.+102    	; 0x427a <main+0x16f6>
/Users/askn/Documents/Zinnia-tools/Products/software/UPDI4AVR-USB/src/jtag.cpp:230
      uint16_t _data = packet.out.wValue;
    4214:	e0 90 d8 60 	lds	r14, 0x60D8	; 0x8060d8 <packet+0xa>
    4218:	f0 90 d9 60 	lds	r15, 0x60D9	; 0x8060d9 <packet+0xb>
/Users/askn/Documents/Zinnia-tools/Products/software/UPDI4AVR-USB/src/jtag.cpp:231
      D1PRINTF(" AVR_SET_PARAM=%02X:%02X:%02X:%02X\r\n", _section, _index, _length, _data);
    421c:	ff 92       	push	r15
    421e:	ef 92       	push	r14
    4220:	1f 92       	push	r1
    4222:	8f 93       	push	r24
    4224:	1f 92       	push	r1
    4226:	df 92       	push	r13
    4228:	1f 92       	push	r1
    422a:	cf 92       	push	r12
    422c:	8c e3       	ldi	r24, 0x3C	; 60
    422e:	96 e0       	ldi	r25, 0x06	; 6
    4230:	9f 93       	push	r25
    4232:	8f 93       	push	r24
    4234:	1f 93       	push	r17
    4236:	0f 93       	push	r16
    4238:	0e 94 2e 0a 	call	0x145c	; 0x145c <Print::printf(PGM_t const*, ...) [clone .constprop.21]>
/Users/askn/Documents/Zinnia-tools/Products/software/UPDI4AVR-USB/src/jtag.cpp:232
      if (_section == 0) {          /* SET_GET_CTXT_CONFIG */
    423c:	cd bf       	out	0x3d, r28	; 61
    423e:	de bf       	out	0x3e, r29	; 62
    4240:	c1 10       	cpse	r12, r1
    4242:	25 cc       	rjmp	.-1974   	; 0x3a8e <main+0xf0a>
/Users/askn/Documents/Zinnia-tools/Products/software/UPDI4AVR-USB/src/jtag.cpp:233
        if (_index == 0x10) {       /* EDBG_CONTROL_TARGET_POWER */
    4244:	30 e1       	ldi	r19, 0x10	; 16
    4246:	d3 12       	cpse	r13, r19
    4248:	22 cc       	rjmp	.-1980   	; 0x3a8e <main+0xf0a>
/Users/askn/Documents/Zinnia-tools/Products/software/UPDI4AVR-USB/src/jtag.cpp:235
          /* Called with `-xvtarget_switch=0,1` HAS_VTARG_SWITCH */
          D1PRINTF(" TARGET_POWER=%02X\r\n", _data);
    424a:	ff 92       	push	r15
    424c:	ef 92       	push	r14
    424e:	87 e2       	ldi	r24, 0x27	; 39
    4250:	96 e0       	ldi	r25, 0x06	; 6
    4252:	9f 93       	push	r25
    4254:	8f 93       	push	r24
    4256:	1f 93       	push	r17
    4258:	0f 93       	push	r16
    425a:	0e 94 2e 0a 	call	0x145c	; 0x145c <Print::printf(PGM_t const*, ...) [clone .constprop.21]>
/Users/askn/Documents/Zinnia-tools/Products/software/UPDI4AVR-USB/src/jtag.cpp:236
          _jtag_vpow = _data;       /* 0,1 */
    425e:	e0 92 00 60 	sts	0x6000, r14	; 0x806000 <__DATA_REGION_ORIGIN__>
/Users/askn/Documents/Zinnia-tools/Products/software/UPDI4AVR-USB/src/jtag.cpp:238
  #if defined(PIN_HV_POWER)
          if (_data)
    4262:	0f 90       	pop	r0
    4264:	0f 90       	pop	r0
    4266:	0f 90       	pop	r0
    4268:	0f 90       	pop	r0
    426a:	0f 90       	pop	r0
    426c:	0f 90       	pop	r0
    426e:	ef 28       	or	r14, r15
    4270:	11 f0       	breq	.+4      	; 0x4276 <main+0x16f2>
/Users/askn/Documents/Zinnia-tools/Products/software/UPDI4AVR-USB/src/jtag.cpp:239
            digitalWriteMacro(PIN_HV_POWER, HIGH);
    4272:	0e 9a       	sbi	0x01, 6	; 1
    4274:	0c cc       	rjmp	.-2024   	; 0x3a8e <main+0xf0a>
/Users/askn/Documents/Zinnia-tools/Products/software/UPDI4AVR-USB/src/jtag.cpp:241
          else
            digitalWriteMacro(PIN_HV_POWER, LOW);
    4276:	0e 98       	cbi	0x01, 6	; 1
    4278:	0a cc       	rjmp	.-2028   	; 0x3a8e <main+0xf0a>
/Users/askn/Documents/Zinnia-tools/Products/software/UPDI4AVR-USB/src/jtag.cpp:247
  #endif
        }
      }
      packet.in.res = 0x80;         /* RSP3_OK */
    }
    else if (_cmd == 0x02) {        /* CMD3_GET_PARAMETER */
    427a:	92 30       	cpi	r25, 0x02	; 2
    427c:	09 f0       	breq	.+2      	; 0x4280 <main+0x16fc>
    427e:	ae cb       	rjmp	.-2212   	; 0x39dc <main+0xe58>
/Users/askn/Documents/Zinnia-tools/Products/software/UPDI4AVR-USB/src/jtag.cpp:248
      D1PRINTF(" AVR_GET_PARAM=%02X:%02X:%02X\r\n", _section, _index, _length);
    4280:	e8 2e       	mov	r14, r24
    4282:	f1 2c       	mov	r15, r1
    4284:	1f 92       	push	r1
    4286:	8f 93       	push	r24
    4288:	1f 92       	push	r1
    428a:	df 92       	push	r13
    428c:	1f 92       	push	r1
    428e:	cf 92       	push	r12
    4290:	87 e0       	ldi	r24, 0x07	; 7
    4292:	96 e0       	ldi	r25, 0x06	; 6
    4294:	9f 93       	push	r25
    4296:	8f 93       	push	r24
    4298:	1f 93       	push	r17
    429a:	0f 93       	push	r16
    429c:	0e 94 2e 0a 	call	0x145c	; 0x145c <Print::printf(PGM_t const*, ...) [clone .constprop.21]>
/Users/askn/Documents/Zinnia-tools/Products/software/UPDI4AVR-USB/src/jtag.cpp:249
      if (_section == 0) {          /* SET_GET_CTXT_CONFIG */
    42a0:	cd bf       	out	0x3d, r28	; 61
    42a2:	de bf       	out	0x3e, r29	; 62
    42a4:	c1 10       	cpse	r12, r1
    42a6:	19 c0       	rjmp	.+50     	; 0x42da <main+0x1756>
/Users/askn/Documents/Zinnia-tools/Products/software/UPDI4AVR-USB/src/jtag.cpp:250
        if (_index == 0x10) {       /* EDBG_CONTROL_TARGET_POWER */
    42a8:	90 e1       	ldi	r25, 0x10	; 16
    42aa:	d9 12       	cpse	r13, r25
    42ac:	16 c0       	rjmp	.+44     	; 0x42da <main+0x1756>
/Users/askn/Documents/Zinnia-tools/Products/software/UPDI4AVR-USB/src/jtag.cpp:252
          /* Called with `-xvtarget_switch` HAS_VTARG_SWITCH */
          D1PRINTF(" TARGET_POWER=%02X\r\n", _jtag_vpow);
    42ae:	80 91 00 60 	lds	r24, 0x6000	; 0x806000 <__DATA_REGION_ORIGIN__>
    42b2:	1f 92       	push	r1
    42b4:	8f 93       	push	r24
    42b6:	82 ef       	ldi	r24, 0xF2	; 242
    42b8:	95 e0       	ldi	r25, 0x05	; 5
    42ba:	9f 93       	push	r25
    42bc:	8f 93       	push	r24
    42be:	1f 93       	push	r17
    42c0:	0f 93       	push	r16
    42c2:	0e 94 2e 0a 	call	0x145c	; 0x145c <Print::printf(PGM_t const*, ...) [clone .constprop.21]>
/Users/askn/Documents/Zinnia-tools/Products/software/UPDI4AVR-USB/src/jtag.cpp:253
          packet.in.data[0] = _jtag_vpow;
    42c6:	80 91 00 60 	lds	r24, 0x6000	; 0x806000 <__DATA_REGION_ORIGIN__>
    42ca:	80 93 d5 60 	sts	0x60D5, r24	; 0x8060d5 <packet+0x7>
    42ce:	0f 90       	pop	r0
    42d0:	0f 90       	pop	r0
    42d2:	0f 90       	pop	r0
    42d4:	0f 90       	pop	r0
    42d6:	0f 90       	pop	r0
    42d8:	0f 90       	pop	r0
/Users/askn/Documents/Zinnia-tools/Products/software/UPDI4AVR-USB/src/jtag.cpp:256
        }
      }
      packet.in.res = 0x184;        /* RSP3_DATA */
    42da:	84 e8       	ldi	r24, 0x84	; 132
    42dc:	91 e0       	ldi	r25, 0x01	; 1
    42de:	80 93 d3 60 	sts	0x60D3, r24	; 0x8060d3 <packet+0x5>
    42e2:	90 93 d4 60 	sts	0x60D4, r25	; 0x8060d4 <packet+0x6>
/Users/askn/Documents/Zinnia-tools/Products/software/UPDI4AVR-USB/src/jtag.cpp:257
      _rspsize = _length + 1;
    42e6:	ef ef       	ldi	r30, 0xFF	; 255
    42e8:	ee 1a       	sub	r14, r30
    42ea:	fe 0a       	sbc	r15, r30
    42ec:	72 ca       	rjmp	.-2844   	; 0x37d2 <main+0xc4e>

000042ee <setjmp>:
setjmp():
    42ee:	dc 01       	movw	r26, r24
    42f0:	2d 92       	st	X+, r2
    42f2:	3d 92       	st	X+, r3
    42f4:	4d 92       	st	X+, r4
    42f6:	5d 92       	st	X+, r5
    42f8:	6d 92       	st	X+, r6
    42fa:	7d 92       	st	X+, r7
    42fc:	8d 92       	st	X+, r8
    42fe:	9d 92       	st	X+, r9
    4300:	ad 92       	st	X+, r10
    4302:	bd 92       	st	X+, r11
    4304:	cd 92       	st	X+, r12
    4306:	dd 92       	st	X+, r13
    4308:	ed 92       	st	X+, r14
    430a:	fd 92       	st	X+, r15
    430c:	0d 93       	st	X+, r16
    430e:	1d 93       	st	X+, r17
    4310:	cd 93       	st	X+, r28
    4312:	dd 93       	st	X+, r29
    4314:	ff 91       	pop	r31
    4316:	ef 91       	pop	r30
    4318:	8d b7       	in	r24, 0x3d	; 61
    431a:	8d 93       	st	X+, r24
    431c:	8e b7       	in	r24, 0x3e	; 62
    431e:	8d 93       	st	X+, r24
    4320:	8f b7       	in	r24, 0x3f	; 63
    4322:	8d 93       	st	X+, r24
    4324:	ed 93       	st	X+, r30
    4326:	fd 93       	st	X+, r31
    4328:	88 27       	eor	r24, r24
    432a:	99 27       	eor	r25, r25
    432c:	09 94       	ijmp

0000432e <longjmp>:
longjmp():
    432e:	dc 01       	movw	r26, r24
    4330:	cb 01       	movw	r24, r22
    4332:	81 30       	cpi	r24, 0x01	; 1
    4334:	91 05       	cpc	r25, r1
    4336:	81 1d       	adc	r24, r1
    4338:	2d 90       	ld	r2, X+
    433a:	3d 90       	ld	r3, X+
    433c:	4d 90       	ld	r4, X+
    433e:	5d 90       	ld	r5, X+
    4340:	6d 90       	ld	r6, X+
    4342:	7d 90       	ld	r7, X+
    4344:	8d 90       	ld	r8, X+
    4346:	9d 90       	ld	r9, X+
    4348:	ad 90       	ld	r10, X+
    434a:	bd 90       	ld	r11, X+
    434c:	cd 90       	ld	r12, X+
    434e:	dd 90       	ld	r13, X+
    4350:	ed 90       	ld	r14, X+
    4352:	fd 90       	ld	r15, X+
    4354:	0d 91       	ld	r16, X+
    4356:	1d 91       	ld	r17, X+
    4358:	cd 91       	ld	r28, X+
    435a:	dd 91       	ld	r29, X+
    435c:	ed 91       	ld	r30, X+
    435e:	fd 91       	ld	r31, X+
    4360:	0d 90       	ld	r0, X+
    4362:	0f be       	out	0x3f, r0	; 63
    4364:	ed bf       	out	0x3d, r30	; 61
    4366:	fe bf       	out	0x3e, r31	; 62
    4368:	ed 91       	ld	r30, X+
    436a:	fd 91       	ld	r31, X+
    436c:	09 94       	ijmp

0000436e <memcpy_P>:
memcpy_P():
    436e:	fb 01       	movw	r30, r22
    4370:	dc 01       	movw	r26, r24
    4372:	02 c0       	rjmp	.+4      	; 0x4378 <memcpy_P+0xa>
    4374:	05 90       	lpm	r0, Z+
    4376:	0d 92       	st	X+, r0
    4378:	41 50       	subi	r20, 0x01	; 1
    437a:	50 40       	sbci	r21, 0x00	; 0
    437c:	d8 f7       	brcc	.-10     	; 0x4374 <memcpy_P+0x6>
    437e:	08 95       	ret

00004380 <vfprintf_P>:
vfprintf_P():
    4380:	cf 93       	push	r28
    4382:	df 93       	push	r29
    4384:	ec 01       	movw	r28, r24
    4386:	8b 81       	ldd	r24, Y+3	; 0x03
    4388:	88 60       	ori	r24, 0x08	; 8
    438a:	8b 83       	std	Y+3, r24	; 0x03
    438c:	ce 01       	movw	r24, r28
    438e:	06 d0       	rcall	.+12     	; 0x439c <vfprintf>
    4390:	2b 81       	ldd	r18, Y+3	; 0x03
    4392:	27 7f       	andi	r18, 0xF7	; 247
    4394:	2b 83       	std	Y+3, r18	; 0x03
    4396:	df 91       	pop	r29
    4398:	cf 91       	pop	r28
    439a:	08 95       	ret

0000439c <vfprintf>:
vfprintf():
    439c:	ab e0       	ldi	r26, 0x0B	; 11
    439e:	b0 e0       	ldi	r27, 0x00	; 0
    43a0:	e3 ed       	ldi	r30, 0xD3	; 211
    43a2:	f1 e2       	ldi	r31, 0x21	; 33
    43a4:	6a c2       	rjmp	.+1236   	; 0x487a <__prologue_saves__>
    43a6:	7c 01       	movw	r14, r24
    43a8:	3b 01       	movw	r6, r22
    43aa:	8a 01       	movw	r16, r20
    43ac:	fc 01       	movw	r30, r24
    43ae:	16 82       	std	Z+6, r1	; 0x06
    43b0:	17 82       	std	Z+7, r1	; 0x07
    43b2:	83 81       	ldd	r24, Z+3	; 0x03
    43b4:	81 ff       	sbrs	r24, 1
    43b6:	ba c1       	rjmp	.+884    	; 0x472c <vfprintf+0x390>
    43b8:	ce 01       	movw	r24, r28
    43ba:	01 96       	adiw	r24, 0x01	; 1
    43bc:	5c 01       	movw	r10, r24
    43be:	f7 01       	movw	r30, r14
    43c0:	93 81       	ldd	r25, Z+3	; 0x03
    43c2:	f3 01       	movw	r30, r6
    43c4:	93 fd       	sbrc	r25, 3
    43c6:	85 91       	lpm	r24, Z+
    43c8:	93 ff       	sbrs	r25, 3
    43ca:	81 91       	ld	r24, Z+
    43cc:	3f 01       	movw	r6, r30
    43ce:	88 23       	and	r24, r24
    43d0:	09 f4       	brne	.+2      	; 0x43d4 <vfprintf+0x38>
    43d2:	49 c1       	rjmp	.+658    	; 0x4666 <vfprintf+0x2ca>
    43d4:	85 32       	cpi	r24, 0x25	; 37
    43d6:	39 f4       	brne	.+14     	; 0x43e6 <vfprintf+0x4a>
    43d8:	93 fd       	sbrc	r25, 3
    43da:	85 91       	lpm	r24, Z+
    43dc:	93 ff       	sbrs	r25, 3
    43de:	81 91       	ld	r24, Z+
    43e0:	3f 01       	movw	r6, r30
    43e2:	85 32       	cpi	r24, 0x25	; 37
    43e4:	21 f4       	brne	.+8      	; 0x43ee <vfprintf+0x52>
    43e6:	b7 01       	movw	r22, r14
    43e8:	90 e0       	ldi	r25, 0x00	; 0
    43ea:	b9 d1       	rcall	.+882    	; 0x475e <fputc>
    43ec:	e8 cf       	rjmp	.-48     	; 0x43be <vfprintf+0x22>
    43ee:	91 2c       	mov	r9, r1
    43f0:	21 2c       	mov	r2, r1
    43f2:	31 2c       	mov	r3, r1
    43f4:	ff e1       	ldi	r31, 0x1F	; 31
    43f6:	f3 15       	cp	r31, r3
    43f8:	38 f0       	brcs	.+14     	; 0x4408 <vfprintf+0x6c>
    43fa:	8b 32       	cpi	r24, 0x2B	; 43
    43fc:	11 f1       	breq	.+68     	; 0x4442 <vfprintf+0xa6>
    43fe:	90 f4       	brcc	.+36     	; 0x4424 <vfprintf+0x88>
    4400:	80 32       	cpi	r24, 0x20	; 32
    4402:	09 f1       	breq	.+66     	; 0x4446 <vfprintf+0xaa>
    4404:	83 32       	cpi	r24, 0x23	; 35
    4406:	29 f1       	breq	.+74     	; 0x4452 <vfprintf+0xb6>
    4408:	37 fc       	sbrc	r3, 7
    440a:	3c c0       	rjmp	.+120    	; 0x4484 <vfprintf+0xe8>
    440c:	20 ed       	ldi	r18, 0xD0	; 208
    440e:	28 0f       	add	r18, r24
    4410:	2a 30       	cpi	r18, 0x0A	; 10
    4412:	50 f5       	brcc	.+84     	; 0x4468 <vfprintf+0xcc>
    4414:	36 fe       	sbrs	r3, 6
    4416:	20 c0       	rjmp	.+64     	; 0x4458 <vfprintf+0xbc>
    4418:	8a e0       	ldi	r24, 0x0A	; 10
    441a:	98 9e       	mul	r9, r24
    441c:	20 0d       	add	r18, r0
    441e:	11 24       	eor	r1, r1
    4420:	92 2e       	mov	r9, r18
    4422:	06 c0       	rjmp	.+12     	; 0x4430 <vfprintf+0x94>
    4424:	8d 32       	cpi	r24, 0x2D	; 45
    4426:	91 f0       	breq	.+36     	; 0x444c <vfprintf+0xb0>
    4428:	80 33       	cpi	r24, 0x30	; 48
    442a:	71 f7       	brne	.-36     	; 0x4408 <vfprintf+0x6c>
    442c:	68 94       	set
    442e:	30 f8       	bld	r3, 0
    4430:	f3 01       	movw	r30, r6
    4432:	93 fd       	sbrc	r25, 3
    4434:	85 91       	lpm	r24, Z+
    4436:	93 ff       	sbrs	r25, 3
    4438:	81 91       	ld	r24, Z+
    443a:	3f 01       	movw	r6, r30
    443c:	81 11       	cpse	r24, r1
    443e:	da cf       	rjmp	.-76     	; 0x43f4 <vfprintf+0x58>
    4440:	21 c0       	rjmp	.+66     	; 0x4484 <vfprintf+0xe8>
    4442:	68 94       	set
    4444:	31 f8       	bld	r3, 1
    4446:	68 94       	set
    4448:	32 f8       	bld	r3, 2
    444a:	f2 cf       	rjmp	.-28     	; 0x4430 <vfprintf+0x94>
    444c:	68 94       	set
    444e:	33 f8       	bld	r3, 3
    4450:	ef cf       	rjmp	.-34     	; 0x4430 <vfprintf+0x94>
    4452:	68 94       	set
    4454:	34 f8       	bld	r3, 4
    4456:	ec cf       	rjmp	.-40     	; 0x4430 <vfprintf+0x94>
    4458:	ea e0       	ldi	r30, 0x0A	; 10
    445a:	2e 9e       	mul	r2, r30
    445c:	20 0d       	add	r18, r0
    445e:	11 24       	eor	r1, r1
    4460:	22 2e       	mov	r2, r18
    4462:	68 94       	set
    4464:	35 f8       	bld	r3, 5
    4466:	e4 cf       	rjmp	.-56     	; 0x4430 <vfprintf+0x94>
    4468:	8e 32       	cpi	r24, 0x2E	; 46
    446a:	29 f4       	brne	.+10     	; 0x4476 <vfprintf+0xda>
    446c:	36 fc       	sbrc	r3, 6
    446e:	fb c0       	rjmp	.+502    	; 0x4666 <vfprintf+0x2ca>
    4470:	68 94       	set
    4472:	36 f8       	bld	r3, 6
    4474:	dd cf       	rjmp	.-70     	; 0x4430 <vfprintf+0x94>
    4476:	8c 36       	cpi	r24, 0x6C	; 108
    4478:	19 f4       	brne	.+6      	; 0x4480 <vfprintf+0xe4>
    447a:	68 94       	set
    447c:	37 f8       	bld	r3, 7
    447e:	d8 cf       	rjmp	.-80     	; 0x4430 <vfprintf+0x94>
    4480:	88 36       	cpi	r24, 0x68	; 104
    4482:	b1 f2       	breq	.-84     	; 0x4430 <vfprintf+0x94>
    4484:	98 2f       	mov	r25, r24
    4486:	9f 7d       	andi	r25, 0xDF	; 223
    4488:	95 54       	subi	r25, 0x45	; 69
    448a:	93 30       	cpi	r25, 0x03	; 3
    448c:	d8 f0       	brcs	.+54     	; 0x44c4 <vfprintf+0x128>
    448e:	83 36       	cpi	r24, 0x63	; 99
    4490:	91 f1       	breq	.+100    	; 0x44f6 <vfprintf+0x15a>
    4492:	83 37       	cpi	r24, 0x73	; 115
    4494:	b1 f1       	breq	.+108    	; 0x4502 <vfprintf+0x166>
    4496:	83 35       	cpi	r24, 0x53	; 83
    4498:	09 f0       	breq	.+2      	; 0x449c <vfprintf+0x100>
    449a:	5e c0       	rjmp	.+188    	; 0x4558 <vfprintf+0x1bc>
    449c:	28 01       	movw	r4, r16
    449e:	f2 e0       	ldi	r31, 0x02	; 2
    44a0:	4f 0e       	add	r4, r31
    44a2:	51 1c       	adc	r5, r1
    44a4:	f8 01       	movw	r30, r16
    44a6:	c0 80       	ld	r12, Z
    44a8:	d1 80       	ldd	r13, Z+1	; 0x01
    44aa:	69 2d       	mov	r22, r9
    44ac:	70 e0       	ldi	r23, 0x00	; 0
    44ae:	36 fc       	sbrc	r3, 6
    44b0:	02 c0       	rjmp	.+4      	; 0x44b6 <vfprintf+0x11a>
    44b2:	6f ef       	ldi	r22, 0xFF	; 255
    44b4:	7f ef       	ldi	r23, 0xFF	; 255
    44b6:	c6 01       	movw	r24, r12
    44b8:	3c d1       	rcall	.+632    	; 0x4732 <strnlen_P>
    44ba:	4c 01       	movw	r8, r24
    44bc:	68 94       	set
    44be:	37 f8       	bld	r3, 7
    44c0:	82 01       	movw	r16, r4
    44c2:	0a c0       	rjmp	.+20     	; 0x44d8 <vfprintf+0x13c>
    44c4:	0c 5f       	subi	r16, 0xFC	; 252
    44c6:	1f 4f       	sbci	r17, 0xFF	; 255
    44c8:	ff e3       	ldi	r31, 0x3F	; 63
    44ca:	f9 83       	std	Y+1, r31	; 0x01
    44cc:	88 24       	eor	r8, r8
    44ce:	83 94       	inc	r8
    44d0:	91 2c       	mov	r9, r1
    44d2:	65 01       	movw	r12, r10
    44d4:	e8 94       	clt
    44d6:	37 f8       	bld	r3, 7
    44d8:	33 fe       	sbrs	r3, 3
    44da:	2a c0       	rjmp	.+84     	; 0x4530 <vfprintf+0x194>
    44dc:	52 2c       	mov	r5, r2
    44de:	81 14       	cp	r8, r1
    44e0:	91 04       	cpc	r9, r1
    44e2:	59 f5       	brne	.+86     	; 0x453a <vfprintf+0x19e>
    44e4:	55 20       	and	r5, r5
    44e6:	09 f4       	brne	.+2      	; 0x44ea <vfprintf+0x14e>
    44e8:	6a cf       	rjmp	.-300    	; 0x43be <vfprintf+0x22>
    44ea:	b7 01       	movw	r22, r14
    44ec:	80 e2       	ldi	r24, 0x20	; 32
    44ee:	90 e0       	ldi	r25, 0x00	; 0
    44f0:	36 d1       	rcall	.+620    	; 0x475e <fputc>
    44f2:	5a 94       	dec	r5
    44f4:	f7 cf       	rjmp	.-18     	; 0x44e4 <vfprintf+0x148>
    44f6:	f8 01       	movw	r30, r16
    44f8:	80 81       	ld	r24, Z
    44fa:	89 83       	std	Y+1, r24	; 0x01
    44fc:	0e 5f       	subi	r16, 0xFE	; 254
    44fe:	1f 4f       	sbci	r17, 0xFF	; 255
    4500:	e5 cf       	rjmp	.-54     	; 0x44cc <vfprintf+0x130>
    4502:	28 01       	movw	r4, r16
    4504:	f2 e0       	ldi	r31, 0x02	; 2
    4506:	4f 0e       	add	r4, r31
    4508:	51 1c       	adc	r5, r1
    450a:	f8 01       	movw	r30, r16
    450c:	c0 80       	ld	r12, Z
    450e:	d1 80       	ldd	r13, Z+1	; 0x01
    4510:	69 2d       	mov	r22, r9
    4512:	70 e0       	ldi	r23, 0x00	; 0
    4514:	36 fc       	sbrc	r3, 6
    4516:	02 c0       	rjmp	.+4      	; 0x451c <vfprintf+0x180>
    4518:	6f ef       	ldi	r22, 0xFF	; 255
    451a:	7f ef       	ldi	r23, 0xFF	; 255
    451c:	c6 01       	movw	r24, r12
    451e:	14 d1       	rcall	.+552    	; 0x4748 <strnlen>
    4520:	4c 01       	movw	r8, r24
    4522:	82 01       	movw	r16, r4
    4524:	d7 cf       	rjmp	.-82     	; 0x44d4 <vfprintf+0x138>
    4526:	b7 01       	movw	r22, r14
    4528:	80 e2       	ldi	r24, 0x20	; 32
    452a:	90 e0       	ldi	r25, 0x00	; 0
    452c:	18 d1       	rcall	.+560    	; 0x475e <fputc>
    452e:	2a 94       	dec	r2
    4530:	28 14       	cp	r2, r8
    4532:	19 04       	cpc	r1, r9
    4534:	09 f0       	breq	.+2      	; 0x4538 <vfprintf+0x19c>
    4536:	b8 f7       	brcc	.-18     	; 0x4526 <vfprintf+0x18a>
    4538:	d1 cf       	rjmp	.-94     	; 0x44dc <vfprintf+0x140>
    453a:	f6 01       	movw	r30, r12
    453c:	37 fc       	sbrc	r3, 7
    453e:	85 91       	lpm	r24, Z+
    4540:	37 fe       	sbrs	r3, 7
    4542:	81 91       	ld	r24, Z+
    4544:	6f 01       	movw	r12, r30
    4546:	b7 01       	movw	r22, r14
    4548:	90 e0       	ldi	r25, 0x00	; 0
    454a:	09 d1       	rcall	.+530    	; 0x475e <fputc>
    454c:	51 10       	cpse	r5, r1
    454e:	5a 94       	dec	r5
    4550:	f1 e0       	ldi	r31, 0x01	; 1
    4552:	8f 1a       	sub	r8, r31
    4554:	91 08       	sbc	r9, r1
    4556:	c3 cf       	rjmp	.-122    	; 0x44de <vfprintf+0x142>
    4558:	84 36       	cpi	r24, 0x64	; 100
    455a:	19 f0       	breq	.+6      	; 0x4562 <vfprintf+0x1c6>
    455c:	89 36       	cpi	r24, 0x69	; 105
    455e:	09 f0       	breq	.+2      	; 0x4562 <vfprintf+0x1c6>
    4560:	73 c0       	rjmp	.+230    	; 0x4648 <vfprintf+0x2ac>
    4562:	f8 01       	movw	r30, r16
    4564:	37 fe       	sbrs	r3, 7
    4566:	67 c0       	rjmp	.+206    	; 0x4636 <vfprintf+0x29a>
    4568:	60 81       	ld	r22, Z
    456a:	71 81       	ldd	r23, Z+1	; 0x01
    456c:	82 81       	ldd	r24, Z+2	; 0x02
    456e:	93 81       	ldd	r25, Z+3	; 0x03
    4570:	0c 5f       	subi	r16, 0xFC	; 252
    4572:	1f 4f       	sbci	r17, 0xFF	; 255
    4574:	f3 2d       	mov	r31, r3
    4576:	ff 76       	andi	r31, 0x6F	; 111
    4578:	3f 2e       	mov	r3, r31
    457a:	97 ff       	sbrs	r25, 7
    457c:	09 c0       	rjmp	.+18     	; 0x4590 <vfprintf+0x1f4>
    457e:	90 95       	com	r25
    4580:	80 95       	com	r24
    4582:	70 95       	com	r23
    4584:	61 95       	neg	r22
    4586:	7f 4f       	sbci	r23, 0xFF	; 255
    4588:	8f 4f       	sbci	r24, 0xFF	; 255
    458a:	9f 4f       	sbci	r25, 0xFF	; 255
    458c:	68 94       	set
    458e:	37 f8       	bld	r3, 7
    4590:	2a e0       	ldi	r18, 0x0A	; 10
    4592:	30 e0       	ldi	r19, 0x00	; 0
    4594:	a5 01       	movw	r20, r10
    4596:	13 d1       	rcall	.+550    	; 0x47be <__ultoa_invert>
    4598:	c8 2e       	mov	r12, r24
    459a:	ca 18       	sub	r12, r10
    459c:	8c 2c       	mov	r8, r12
    459e:	43 2c       	mov	r4, r3
    45a0:	36 fe       	sbrs	r3, 6
    45a2:	0c c0       	rjmp	.+24     	; 0x45bc <vfprintf+0x220>
    45a4:	e8 94       	clt
    45a6:	40 f8       	bld	r4, 0
    45a8:	c9 14       	cp	r12, r9
    45aa:	40 f4       	brcc	.+16     	; 0x45bc <vfprintf+0x220>
    45ac:	34 fe       	sbrs	r3, 4
    45ae:	05 c0       	rjmp	.+10     	; 0x45ba <vfprintf+0x21e>
    45b0:	32 fc       	sbrc	r3, 2
    45b2:	03 c0       	rjmp	.+6      	; 0x45ba <vfprintf+0x21e>
    45b4:	f3 2d       	mov	r31, r3
    45b6:	fe 7e       	andi	r31, 0xEE	; 238
    45b8:	4f 2e       	mov	r4, r31
    45ba:	89 2c       	mov	r8, r9
    45bc:	44 fe       	sbrs	r4, 4
    45be:	90 c0       	rjmp	.+288    	; 0x46e0 <vfprintf+0x344>
    45c0:	fe 01       	movw	r30, r28
    45c2:	ec 0d       	add	r30, r12
    45c4:	f1 1d       	adc	r31, r1
    45c6:	80 81       	ld	r24, Z
    45c8:	80 33       	cpi	r24, 0x30	; 48
    45ca:	09 f0       	breq	.+2      	; 0x45ce <vfprintf+0x232>
    45cc:	82 c0       	rjmp	.+260    	; 0x46d2 <vfprintf+0x336>
    45ce:	24 2d       	mov	r18, r4
    45d0:	29 7e       	andi	r18, 0xE9	; 233
    45d2:	42 2e       	mov	r4, r18
    45d4:	84 2d       	mov	r24, r4
    45d6:	88 70       	andi	r24, 0x08	; 8
    45d8:	58 2e       	mov	r5, r24
    45da:	43 fc       	sbrc	r4, 3
    45dc:	8f c0       	rjmp	.+286    	; 0x46fc <vfprintf+0x360>
    45de:	40 fe       	sbrs	r4, 0
    45e0:	89 c0       	rjmp	.+274    	; 0x46f4 <vfprintf+0x358>
    45e2:	9c 2c       	mov	r9, r12
    45e4:	82 14       	cp	r8, r2
    45e6:	18 f4       	brcc	.+6      	; 0x45ee <vfprintf+0x252>
    45e8:	2c 0c       	add	r2, r12
    45ea:	92 2c       	mov	r9, r2
    45ec:	98 18       	sub	r9, r8
    45ee:	44 fe       	sbrs	r4, 4
    45f0:	8b c0       	rjmp	.+278    	; 0x4708 <vfprintf+0x36c>
    45f2:	b7 01       	movw	r22, r14
    45f4:	80 e3       	ldi	r24, 0x30	; 48
    45f6:	90 e0       	ldi	r25, 0x00	; 0
    45f8:	b2 d0       	rcall	.+356    	; 0x475e <fputc>
    45fa:	42 fe       	sbrs	r4, 2
    45fc:	08 c0       	rjmp	.+16     	; 0x460e <vfprintf+0x272>
    45fe:	88 e7       	ldi	r24, 0x78	; 120
    4600:	90 e0       	ldi	r25, 0x00	; 0
    4602:	41 fe       	sbrs	r4, 1
    4604:	02 c0       	rjmp	.+4      	; 0x460a <vfprintf+0x26e>
    4606:	88 e5       	ldi	r24, 0x58	; 88
    4608:	90 e0       	ldi	r25, 0x00	; 0
    460a:	b7 01       	movw	r22, r14
    460c:	a8 d0       	rcall	.+336    	; 0x475e <fputc>
    460e:	c9 14       	cp	r12, r9
    4610:	08 f4       	brcc	.+2      	; 0x4614 <vfprintf+0x278>
    4612:	86 c0       	rjmp	.+268    	; 0x4720 <vfprintf+0x384>
    4614:	ca 94       	dec	r12
    4616:	d1 2c       	mov	r13, r1
    4618:	9f ef       	ldi	r25, 0xFF	; 255
    461a:	c9 1a       	sub	r12, r25
    461c:	d9 0a       	sbc	r13, r25
    461e:	ca 0c       	add	r12, r10
    4620:	db 1c       	adc	r13, r11
    4622:	f6 01       	movw	r30, r12
    4624:	82 91       	ld	r24, -Z
    4626:	6f 01       	movw	r12, r30
    4628:	b7 01       	movw	r22, r14
    462a:	90 e0       	ldi	r25, 0x00	; 0
    462c:	98 d0       	rcall	.+304    	; 0x475e <fputc>
    462e:	ac 14       	cp	r10, r12
    4630:	bd 04       	cpc	r11, r13
    4632:	b9 f7       	brne	.-18     	; 0x4622 <vfprintf+0x286>
    4634:	57 cf       	rjmp	.-338    	; 0x44e4 <vfprintf+0x148>
    4636:	60 81       	ld	r22, Z
    4638:	71 81       	ldd	r23, Z+1	; 0x01
    463a:	07 2e       	mov	r0, r23
    463c:	00 0c       	add	r0, r0
    463e:	88 0b       	sbc	r24, r24
    4640:	99 0b       	sbc	r25, r25
    4642:	0e 5f       	subi	r16, 0xFE	; 254
    4644:	1f 4f       	sbci	r17, 0xFF	; 255
    4646:	96 cf       	rjmp	.-212    	; 0x4574 <vfprintf+0x1d8>
    4648:	d3 2c       	mov	r13, r3
    464a:	e8 94       	clt
    464c:	d4 f8       	bld	r13, 4
    464e:	2a e0       	ldi	r18, 0x0A	; 10
    4650:	30 e0       	ldi	r19, 0x00	; 0
    4652:	85 37       	cpi	r24, 0x75	; 117
    4654:	31 f1       	breq	.+76     	; 0x46a2 <vfprintf+0x306>
    4656:	23 2d       	mov	r18, r3
    4658:	29 7f       	andi	r18, 0xF9	; 249
    465a:	d2 2e       	mov	r13, r18
    465c:	8f 36       	cpi	r24, 0x6F	; 111
    465e:	f9 f0       	breq	.+62     	; 0x469e <vfprintf+0x302>
    4660:	40 f4       	brcc	.+16     	; 0x4672 <vfprintf+0x2d6>
    4662:	88 35       	cpi	r24, 0x58	; 88
    4664:	a1 f0       	breq	.+40     	; 0x468e <vfprintf+0x2f2>
    4666:	f7 01       	movw	r30, r14
    4668:	86 81       	ldd	r24, Z+6	; 0x06
    466a:	97 81       	ldd	r25, Z+7	; 0x07
    466c:	2b 96       	adiw	r28, 0x0b	; 11
    466e:	e2 e1       	ldi	r30, 0x12	; 18
    4670:	1d c1       	rjmp	.+570    	; 0x48ac <__epilogue_restores__>
    4672:	80 37       	cpi	r24, 0x70	; 112
    4674:	49 f0       	breq	.+18     	; 0x4688 <vfprintf+0x2ec>
    4676:	88 37       	cpi	r24, 0x78	; 120
    4678:	b1 f7       	brne	.-20     	; 0x4666 <vfprintf+0x2ca>
    467a:	d4 fe       	sbrs	r13, 4
    467c:	02 c0       	rjmp	.+4      	; 0x4682 <vfprintf+0x2e6>
    467e:	68 94       	set
    4680:	d2 f8       	bld	r13, 2
    4682:	20 e1       	ldi	r18, 0x10	; 16
    4684:	30 e0       	ldi	r19, 0x00	; 0
    4686:	0d c0       	rjmp	.+26     	; 0x46a2 <vfprintf+0x306>
    4688:	68 94       	set
    468a:	d4 f8       	bld	r13, 4
    468c:	f6 cf       	rjmp	.-20     	; 0x467a <vfprintf+0x2de>
    468e:	34 fe       	sbrs	r3, 4
    4690:	03 c0       	rjmp	.+6      	; 0x4698 <vfprintf+0x2fc>
    4692:	82 2f       	mov	r24, r18
    4694:	86 60       	ori	r24, 0x06	; 6
    4696:	d8 2e       	mov	r13, r24
    4698:	20 e1       	ldi	r18, 0x10	; 16
    469a:	32 e0       	ldi	r19, 0x02	; 2
    469c:	02 c0       	rjmp	.+4      	; 0x46a2 <vfprintf+0x306>
    469e:	28 e0       	ldi	r18, 0x08	; 8
    46a0:	30 e0       	ldi	r19, 0x00	; 0
    46a2:	f8 01       	movw	r30, r16
    46a4:	d7 fe       	sbrs	r13, 7
    46a6:	0e c0       	rjmp	.+28     	; 0x46c4 <vfprintf+0x328>
    46a8:	60 81       	ld	r22, Z
    46aa:	71 81       	ldd	r23, Z+1	; 0x01
    46ac:	82 81       	ldd	r24, Z+2	; 0x02
    46ae:	93 81       	ldd	r25, Z+3	; 0x03
    46b0:	0c 5f       	subi	r16, 0xFC	; 252
    46b2:	1f 4f       	sbci	r17, 0xFF	; 255
    46b4:	a5 01       	movw	r20, r10
    46b6:	83 d0       	rcall	.+262    	; 0x47be <__ultoa_invert>
    46b8:	c8 2e       	mov	r12, r24
    46ba:	ca 18       	sub	r12, r10
    46bc:	3d 2c       	mov	r3, r13
    46be:	e8 94       	clt
    46c0:	37 f8       	bld	r3, 7
    46c2:	6c cf       	rjmp	.-296    	; 0x459c <vfprintf+0x200>
    46c4:	60 81       	ld	r22, Z
    46c6:	71 81       	ldd	r23, Z+1	; 0x01
    46c8:	90 e0       	ldi	r25, 0x00	; 0
    46ca:	80 e0       	ldi	r24, 0x00	; 0
    46cc:	0e 5f       	subi	r16, 0xFE	; 254
    46ce:	1f 4f       	sbci	r17, 0xFF	; 255
    46d0:	f1 cf       	rjmp	.-30     	; 0x46b4 <vfprintf+0x318>
    46d2:	42 fc       	sbrc	r4, 2
    46d4:	02 c0       	rjmp	.+4      	; 0x46da <vfprintf+0x33e>
    46d6:	83 94       	inc	r8
    46d8:	7d cf       	rjmp	.-262    	; 0x45d4 <vfprintf+0x238>
    46da:	83 94       	inc	r8
    46dc:	83 94       	inc	r8
    46de:	7a cf       	rjmp	.-268    	; 0x45d4 <vfprintf+0x238>
    46e0:	84 2d       	mov	r24, r4
    46e2:	86 78       	andi	r24, 0x86	; 134
    46e4:	09 f4       	brne	.+2      	; 0x46e8 <vfprintf+0x34c>
    46e6:	76 cf       	rjmp	.-276    	; 0x45d4 <vfprintf+0x238>
    46e8:	f6 cf       	rjmp	.-20     	; 0x46d6 <vfprintf+0x33a>
    46ea:	b7 01       	movw	r22, r14
    46ec:	80 e2       	ldi	r24, 0x20	; 32
    46ee:	90 e0       	ldi	r25, 0x00	; 0
    46f0:	36 d0       	rcall	.+108    	; 0x475e <fputc>
    46f2:	83 94       	inc	r8
    46f4:	82 14       	cp	r8, r2
    46f6:	c8 f3       	brcs	.-14     	; 0x46ea <vfprintf+0x34e>
    46f8:	51 2c       	mov	r5, r1
    46fa:	79 cf       	rjmp	.-270    	; 0x45ee <vfprintf+0x252>
    46fc:	52 2c       	mov	r5, r2
    46fe:	58 18       	sub	r5, r8
    4700:	82 14       	cp	r8, r2
    4702:	08 f4       	brcc	.+2      	; 0x4706 <vfprintf+0x36a>
    4704:	74 cf       	rjmp	.-280    	; 0x45ee <vfprintf+0x252>
    4706:	f8 cf       	rjmp	.-16     	; 0x46f8 <vfprintf+0x35c>
    4708:	84 2d       	mov	r24, r4
    470a:	86 78       	andi	r24, 0x86	; 134
    470c:	09 f4       	brne	.+2      	; 0x4710 <vfprintf+0x374>
    470e:	7f cf       	rjmp	.-258    	; 0x460e <vfprintf+0x272>
    4710:	8b e2       	ldi	r24, 0x2B	; 43
    4712:	41 fe       	sbrs	r4, 1
    4714:	80 e2       	ldi	r24, 0x20	; 32
    4716:	47 fc       	sbrc	r4, 7
    4718:	8d e2       	ldi	r24, 0x2D	; 45
    471a:	b7 01       	movw	r22, r14
    471c:	90 e0       	ldi	r25, 0x00	; 0
    471e:	76 cf       	rjmp	.-276    	; 0x460c <vfprintf+0x270>
    4720:	b7 01       	movw	r22, r14
    4722:	80 e3       	ldi	r24, 0x30	; 48
    4724:	90 e0       	ldi	r25, 0x00	; 0
    4726:	1b d0       	rcall	.+54     	; 0x475e <fputc>
    4728:	9a 94       	dec	r9
    472a:	71 cf       	rjmp	.-286    	; 0x460e <vfprintf+0x272>
    472c:	8f ef       	ldi	r24, 0xFF	; 255
    472e:	9f ef       	ldi	r25, 0xFF	; 255
    4730:	9d cf       	rjmp	.-198    	; 0x466c <vfprintf+0x2d0>

00004732 <strnlen_P>:
strnlen_P():
    4732:	fc 01       	movw	r30, r24
    4734:	05 90       	lpm	r0, Z+
    4736:	61 50       	subi	r22, 0x01	; 1
    4738:	70 40       	sbci	r23, 0x00	; 0
    473a:	01 10       	cpse	r0, r1
    473c:	d8 f7       	brcc	.-10     	; 0x4734 <strnlen_P+0x2>
    473e:	80 95       	com	r24
    4740:	90 95       	com	r25
    4742:	8e 0f       	add	r24, r30
    4744:	9f 1f       	adc	r25, r31
    4746:	08 95       	ret

00004748 <strnlen>:
strnlen():
    4748:	fc 01       	movw	r30, r24
    474a:	61 50       	subi	r22, 0x01	; 1
    474c:	70 40       	sbci	r23, 0x00	; 0
    474e:	01 90       	ld	r0, Z+
    4750:	01 10       	cpse	r0, r1
    4752:	d8 f7       	brcc	.-10     	; 0x474a <strnlen+0x2>
    4754:	80 95       	com	r24
    4756:	90 95       	com	r25
    4758:	8e 0f       	add	r24, r30
    475a:	9f 1f       	adc	r25, r31
    475c:	08 95       	ret

0000475e <fputc>:
fputc():
    475e:	0f 93       	push	r16
    4760:	1f 93       	push	r17
    4762:	cf 93       	push	r28
    4764:	df 93       	push	r29
    4766:	18 2f       	mov	r17, r24
    4768:	09 2f       	mov	r16, r25
    476a:	eb 01       	movw	r28, r22
    476c:	8b 81       	ldd	r24, Y+3	; 0x03
    476e:	81 fd       	sbrc	r24, 1
    4770:	09 c0       	rjmp	.+18     	; 0x4784 <fputc+0x26>
    4772:	1f ef       	ldi	r17, 0xFF	; 255
    4774:	0f ef       	ldi	r16, 0xFF	; 255
    4776:	81 2f       	mov	r24, r17
    4778:	90 2f       	mov	r25, r16
    477a:	df 91       	pop	r29
    477c:	cf 91       	pop	r28
    477e:	1f 91       	pop	r17
    4780:	0f 91       	pop	r16
    4782:	08 95       	ret
    4784:	82 ff       	sbrs	r24, 2
    4786:	14 c0       	rjmp	.+40     	; 0x47b0 <fputc+0x52>
    4788:	2e 81       	ldd	r18, Y+6	; 0x06
    478a:	3f 81       	ldd	r19, Y+7	; 0x07
    478c:	8c 81       	ldd	r24, Y+4	; 0x04
    478e:	9d 81       	ldd	r25, Y+5	; 0x05
    4790:	28 17       	cp	r18, r24
    4792:	39 07       	cpc	r19, r25
    4794:	3c f4       	brge	.+14     	; 0x47a4 <fputc+0x46>
    4796:	e8 81       	ld	r30, Y
    4798:	f9 81       	ldd	r31, Y+1	; 0x01
    479a:	cf 01       	movw	r24, r30
    479c:	01 96       	adiw	r24, 0x01	; 1
    479e:	88 83       	st	Y, r24
    47a0:	99 83       	std	Y+1, r25	; 0x01
    47a2:	10 83       	st	Z, r17
    47a4:	8e 81       	ldd	r24, Y+6	; 0x06
    47a6:	9f 81       	ldd	r25, Y+7	; 0x07
    47a8:	01 96       	adiw	r24, 0x01	; 1
    47aa:	8e 83       	std	Y+6, r24	; 0x06
    47ac:	9f 83       	std	Y+7, r25	; 0x07
    47ae:	e3 cf       	rjmp	.-58     	; 0x4776 <fputc+0x18>
    47b0:	e8 85       	ldd	r30, Y+8	; 0x08
    47b2:	f9 85       	ldd	r31, Y+9	; 0x09
    47b4:	81 2f       	mov	r24, r17
    47b6:	09 95       	icall
    47b8:	89 2b       	or	r24, r25
    47ba:	a1 f3       	breq	.-24     	; 0x47a4 <fputc+0x46>
    47bc:	da cf       	rjmp	.-76     	; 0x4772 <fputc+0x14>

000047be <__ultoa_invert>:
__ultoa_invert():
    47be:	fa 01       	movw	r30, r20
    47c0:	aa 27       	eor	r26, r26
    47c2:	28 30       	cpi	r18, 0x08	; 8
    47c4:	51 f1       	breq	.+84     	; 0x481a <__ultoa_invert+0x5c>
    47c6:	20 31       	cpi	r18, 0x10	; 16
    47c8:	81 f1       	breq	.+96     	; 0x482a <__ultoa_invert+0x6c>
    47ca:	e8 94       	clt
    47cc:	6f 93       	push	r22
    47ce:	6e 7f       	andi	r22, 0xFE	; 254
    47d0:	6e 5f       	subi	r22, 0xFE	; 254
    47d2:	7f 4f       	sbci	r23, 0xFF	; 255
    47d4:	8f 4f       	sbci	r24, 0xFF	; 255
    47d6:	9f 4f       	sbci	r25, 0xFF	; 255
    47d8:	af 4f       	sbci	r26, 0xFF	; 255
    47da:	b1 e0       	ldi	r27, 0x01	; 1
    47dc:	3e d0       	rcall	.+124    	; 0x485a <__ultoa_invert+0x9c>
    47de:	b4 e0       	ldi	r27, 0x04	; 4
    47e0:	3c d0       	rcall	.+120    	; 0x485a <__ultoa_invert+0x9c>
    47e2:	67 0f       	add	r22, r23
    47e4:	78 1f       	adc	r23, r24
    47e6:	89 1f       	adc	r24, r25
    47e8:	9a 1f       	adc	r25, r26
    47ea:	a1 1d       	adc	r26, r1
    47ec:	68 0f       	add	r22, r24
    47ee:	79 1f       	adc	r23, r25
    47f0:	8a 1f       	adc	r24, r26
    47f2:	91 1d       	adc	r25, r1
    47f4:	a1 1d       	adc	r26, r1
    47f6:	6a 0f       	add	r22, r26
    47f8:	71 1d       	adc	r23, r1
    47fa:	81 1d       	adc	r24, r1
    47fc:	91 1d       	adc	r25, r1
    47fe:	a1 1d       	adc	r26, r1
    4800:	20 d0       	rcall	.+64     	; 0x4842 <__ultoa_invert+0x84>
    4802:	09 f4       	brne	.+2      	; 0x4806 <__ultoa_invert+0x48>
    4804:	68 94       	set
    4806:	3f 91       	pop	r19
    4808:	2a e0       	ldi	r18, 0x0A	; 10
    480a:	26 9f       	mul	r18, r22
    480c:	11 24       	eor	r1, r1
    480e:	30 19       	sub	r19, r0
    4810:	30 5d       	subi	r19, 0xD0	; 208
    4812:	31 93       	st	Z+, r19
    4814:	de f6       	brtc	.-74     	; 0x47cc <__ultoa_invert+0xe>
    4816:	cf 01       	movw	r24, r30
    4818:	08 95       	ret
    481a:	46 2f       	mov	r20, r22
    481c:	47 70       	andi	r20, 0x07	; 7
    481e:	40 5d       	subi	r20, 0xD0	; 208
    4820:	41 93       	st	Z+, r20
    4822:	b3 e0       	ldi	r27, 0x03	; 3
    4824:	0f d0       	rcall	.+30     	; 0x4844 <__ultoa_invert+0x86>
    4826:	c9 f7       	brne	.-14     	; 0x481a <__ultoa_invert+0x5c>
    4828:	f6 cf       	rjmp	.-20     	; 0x4816 <__ultoa_invert+0x58>
    482a:	46 2f       	mov	r20, r22
    482c:	4f 70       	andi	r20, 0x0F	; 15
    482e:	40 5d       	subi	r20, 0xD0	; 208
    4830:	4a 33       	cpi	r20, 0x3A	; 58
    4832:	18 f0       	brcs	.+6      	; 0x483a <__ultoa_invert+0x7c>
    4834:	49 5d       	subi	r20, 0xD9	; 217
    4836:	31 fd       	sbrc	r19, 1
    4838:	40 52       	subi	r20, 0x20	; 32
    483a:	41 93       	st	Z+, r20
    483c:	02 d0       	rcall	.+4      	; 0x4842 <__ultoa_invert+0x84>
    483e:	a9 f7       	brne	.-22     	; 0x482a <__ultoa_invert+0x6c>
    4840:	ea cf       	rjmp	.-44     	; 0x4816 <__ultoa_invert+0x58>
    4842:	b4 e0       	ldi	r27, 0x04	; 4
    4844:	a6 95       	lsr	r26
    4846:	97 95       	ror	r25
    4848:	87 95       	ror	r24
    484a:	77 95       	ror	r23
    484c:	67 95       	ror	r22
    484e:	ba 95       	dec	r27
    4850:	c9 f7       	brne	.-14     	; 0x4844 <__ultoa_invert+0x86>
    4852:	00 97       	sbiw	r24, 0x00	; 0
    4854:	61 05       	cpc	r22, r1
    4856:	71 05       	cpc	r23, r1
    4858:	08 95       	ret
    485a:	9b 01       	movw	r18, r22
    485c:	ac 01       	movw	r20, r24
    485e:	0a 2e       	mov	r0, r26
    4860:	06 94       	lsr	r0
    4862:	57 95       	ror	r21
    4864:	47 95       	ror	r20
    4866:	37 95       	ror	r19
    4868:	27 95       	ror	r18
    486a:	ba 95       	dec	r27
    486c:	c9 f7       	brne	.-14     	; 0x4860 <__ultoa_invert+0xa2>
    486e:	62 0f       	add	r22, r18
    4870:	73 1f       	adc	r23, r19
    4872:	84 1f       	adc	r24, r20
    4874:	95 1f       	adc	r25, r21
    4876:	a0 1d       	adc	r26, r0
    4878:	08 95       	ret

0000487a <__prologue_saves__>:
__prologue_saves__():
    487a:	2f 92       	push	r2
    487c:	3f 92       	push	r3
    487e:	4f 92       	push	r4
    4880:	5f 92       	push	r5
    4882:	6f 92       	push	r6
    4884:	7f 92       	push	r7
    4886:	8f 92       	push	r8
    4888:	9f 92       	push	r9
    488a:	af 92       	push	r10
    488c:	bf 92       	push	r11
    488e:	cf 92       	push	r12
    4890:	df 92       	push	r13
    4892:	ef 92       	push	r14
    4894:	ff 92       	push	r15
    4896:	0f 93       	push	r16
    4898:	1f 93       	push	r17
    489a:	cf 93       	push	r28
    489c:	df 93       	push	r29
    489e:	cd b7       	in	r28, 0x3d	; 61
    48a0:	de b7       	in	r29, 0x3e	; 62
    48a2:	ca 1b       	sub	r28, r26
    48a4:	db 0b       	sbc	r29, r27
    48a6:	cd bf       	out	0x3d, r28	; 61
    48a8:	de bf       	out	0x3e, r29	; 62
    48aa:	09 94       	ijmp

000048ac <__epilogue_restores__>:
__epilogue_restores__():
    48ac:	2a 88       	ldd	r2, Y+18	; 0x12
    48ae:	39 88       	ldd	r3, Y+17	; 0x11
    48b0:	48 88       	ldd	r4, Y+16	; 0x10
    48b2:	5f 84       	ldd	r5, Y+15	; 0x0f
    48b4:	6e 84       	ldd	r6, Y+14	; 0x0e
    48b6:	7d 84       	ldd	r7, Y+13	; 0x0d
    48b8:	8c 84       	ldd	r8, Y+12	; 0x0c
    48ba:	9b 84       	ldd	r9, Y+11	; 0x0b
    48bc:	aa 84       	ldd	r10, Y+10	; 0x0a
    48be:	b9 84       	ldd	r11, Y+9	; 0x09
    48c0:	c8 84       	ldd	r12, Y+8	; 0x08
    48c2:	df 80       	ldd	r13, Y+7	; 0x07
    48c4:	ee 80       	ldd	r14, Y+6	; 0x06
    48c6:	fd 80       	ldd	r15, Y+5	; 0x05
    48c8:	0c 81       	ldd	r16, Y+4	; 0x04
    48ca:	1b 81       	ldd	r17, Y+3	; 0x03
    48cc:	aa 81       	ldd	r26, Y+2	; 0x02
    48ce:	b9 81       	ldd	r27, Y+1	; 0x01
    48d0:	ce 0f       	add	r28, r30
    48d2:	d1 1d       	adc	r29, r1
    48d4:	cd bf       	out	0x3d, r28	; 61
    48d6:	de bf       	out	0x3e, r29	; 62
    48d8:	ed 01       	movw	r28, r26
    48da:	08 95       	ret

000048dc <__udivmodhi4>:
__udivmodhi4():
    48dc:	aa 1b       	sub	r26, r26
    48de:	bb 1b       	sub	r27, r27
    48e0:	51 e1       	ldi	r21, 0x11	; 17
    48e2:	07 c0       	rjmp	.+14     	; 0x48f2 <__udivmodhi4_ep>

000048e4 <__udivmodhi4_loop>:
    48e4:	aa 1f       	adc	r26, r26
    48e6:	bb 1f       	adc	r27, r27
    48e8:	a6 17       	cp	r26, r22
    48ea:	b7 07       	cpc	r27, r23
    48ec:	10 f0       	brcs	.+4      	; 0x48f2 <__udivmodhi4_ep>
    48ee:	a6 1b       	sub	r26, r22
    48f0:	b7 0b       	sbc	r27, r23

000048f2 <__udivmodhi4_ep>:
    48f2:	88 1f       	adc	r24, r24
    48f4:	99 1f       	adc	r25, r25
    48f6:	5a 95       	dec	r21
    48f8:	a9 f7       	brne	.-22     	; 0x48e4 <__udivmodhi4_loop>
    48fa:	80 95       	com	r24
    48fc:	90 95       	com	r25
    48fe:	bc 01       	movw	r22, r24
    4900:	cd 01       	movw	r24, r26
    4902:	08 95       	ret

00004904 <__udivmodsi4>:
__udivmodsi4():
    4904:	a1 e2       	ldi	r26, 0x21	; 33
    4906:	1a 2e       	mov	r1, r26
    4908:	aa 1b       	sub	r26, r26
    490a:	bb 1b       	sub	r27, r27
    490c:	fd 01       	movw	r30, r26
    490e:	0d c0       	rjmp	.+26     	; 0x492a <__udivmodsi4_ep>

00004910 <__udivmodsi4_loop>:
    4910:	aa 1f       	adc	r26, r26
    4912:	bb 1f       	adc	r27, r27
    4914:	ee 1f       	adc	r30, r30
    4916:	ff 1f       	adc	r31, r31
    4918:	a2 17       	cp	r26, r18
    491a:	b3 07       	cpc	r27, r19
    491c:	e4 07       	cpc	r30, r20
    491e:	f5 07       	cpc	r31, r21
    4920:	20 f0       	brcs	.+8      	; 0x492a <__udivmodsi4_ep>
    4922:	a2 1b       	sub	r26, r18
    4924:	b3 0b       	sbc	r27, r19
    4926:	e4 0b       	sbc	r30, r20
    4928:	f5 0b       	sbc	r31, r21

0000492a <__udivmodsi4_ep>:
    492a:	66 1f       	adc	r22, r22
    492c:	77 1f       	adc	r23, r23
    492e:	88 1f       	adc	r24, r24
    4930:	99 1f       	adc	r25, r25
    4932:	1a 94       	dec	r1
    4934:	69 f7       	brne	.-38     	; 0x4910 <__udivmodsi4_loop>
    4936:	60 95       	com	r22
    4938:	70 95       	com	r23
    493a:	80 95       	com	r24
    493c:	90 95       	com	r25
    493e:	9b 01       	movw	r18, r22
    4940:	ac 01       	movw	r20, r24
    4942:	bd 01       	movw	r22, r26
    4944:	cf 01       	movw	r24, r30
    4946:	08 95       	ret

00004948 <__divmodsi4>:
__divmodsi4():
    4948:	05 2e       	mov	r0, r21
    494a:	97 fb       	bst	r25, 7
    494c:	16 f4       	brtc	.+4      	; 0x4952 <__divmodsi4+0xa>
    494e:	00 94       	com	r0
    4950:	0f d0       	rcall	.+30     	; 0x4970 <__negsi2>
    4952:	57 fd       	sbrc	r21, 7
    4954:	05 d0       	rcall	.+10     	; 0x4960 <__divmodsi4_neg2>
    4956:	d6 df       	rcall	.-84     	; 0x4904 <__udivmodsi4>
    4958:	07 fc       	sbrc	r0, 7
    495a:	02 d0       	rcall	.+4      	; 0x4960 <__divmodsi4_neg2>
    495c:	46 f4       	brtc	.+16     	; 0x496e <__divmodsi4_exit>
    495e:	08 c0       	rjmp	.+16     	; 0x4970 <__negsi2>

00004960 <__divmodsi4_neg2>:
    4960:	50 95       	com	r21
    4962:	40 95       	com	r20
    4964:	30 95       	com	r19
    4966:	21 95       	neg	r18
    4968:	3f 4f       	sbci	r19, 0xFF	; 255
    496a:	4f 4f       	sbci	r20, 0xFF	; 255
    496c:	5f 4f       	sbci	r21, 0xFF	; 255

0000496e <__divmodsi4_exit>:
    496e:	08 95       	ret

00004970 <__negsi2>:
__negsi2():
    4970:	90 95       	com	r25
    4972:	80 95       	com	r24
    4974:	70 95       	com	r23
    4976:	61 95       	neg	r22
    4978:	7f 4f       	sbci	r23, 0xFF	; 255
    497a:	8f 4f       	sbci	r24, 0xFF	; 255
    497c:	9f 4f       	sbci	r25, 0xFF	; 255
    497e:	08 95       	ret

00004980 <__bswapsi2>:
__bswapsi2():
    4980:	69 27       	eor	r22, r25
    4982:	96 27       	eor	r25, r22
    4984:	69 27       	eor	r22, r25
    4986:	78 27       	eor	r23, r24
    4988:	87 27       	eor	r24, r23
    498a:	78 27       	eor	r23, r24
    498c:	08 95       	ret

0000498e <__tablejump2__>:
__tablejump2__():
    498e:	ee 0f       	add	r30, r30
    4990:	ff 1f       	adc	r31, r31
    4992:	05 90       	lpm	r0, Z+
    4994:	f4 91       	lpm	r31, Z
    4996:	e0 2d       	mov	r30, r0
    4998:	09 94       	ijmp

0000499a <memcmp>:
memcmp():
    499a:	fb 01       	movw	r30, r22
    499c:	dc 01       	movw	r26, r24
    499e:	04 c0       	rjmp	.+8      	; 0x49a8 <memcmp+0xe>
    49a0:	8d 91       	ld	r24, X+
    49a2:	01 90       	ld	r0, Z+
    49a4:	80 19       	sub	r24, r0
    49a6:	21 f4       	brne	.+8      	; 0x49b0 <memcmp+0x16>
    49a8:	41 50       	subi	r20, 0x01	; 1
    49aa:	50 40       	sbci	r21, 0x00	; 0
    49ac:	c8 f7       	brcc	.-14     	; 0x49a0 <memcmp+0x6>
    49ae:	88 1b       	sub	r24, r24
    49b0:	99 0b       	sbc	r25, r25
    49b2:	08 95       	ret

000049b4 <memcpy>:
memcpy():
    49b4:	fb 01       	movw	r30, r22
    49b6:	dc 01       	movw	r26, r24
    49b8:	02 c0       	rjmp	.+4      	; 0x49be <memcpy+0xa>
    49ba:	01 90       	ld	r0, Z+
    49bc:	0d 92       	st	X+, r0
    49be:	41 50       	subi	r20, 0x01	; 1
    49c0:	50 40       	sbci	r21, 0x00	; 0
    49c2:	d8 f7       	brcc	.-10     	; 0x49ba <memcpy+0x6>
    49c4:	08 95       	ret

000049c6 <memset>:
memset():
    49c6:	dc 01       	movw	r26, r24
    49c8:	01 c0       	rjmp	.+2      	; 0x49cc <memset+0x6>
    49ca:	6d 93       	st	X+, r22
    49cc:	41 50       	subi	r20, 0x01	; 1
    49ce:	50 40       	sbci	r21, 0x00	; 0
    49d0:	e0 f7       	brcc	.-8      	; 0x49ca <memset+0x4>
    49d2:	08 95       	ret

000049d4 <_exit>:
exit():
    49d4:	f8 94       	cli

000049d6 <__stop_program>:
__stop_program():
    49d6:	ff cf       	rjmp	.-2      	; 0x49d6 <__stop_program>

Disassembly of section .nvmem:

00004a5c <.nvmem>:
	...

Disassembly of section .eeprom:

00810000 <_EEP>:
  810000:	ff ff ff ff ff ff ff ff                             ........

Disassembly of section .fuse:

00820000 <__fuse>:
  820000:	00 00 00 00 00 d1 08 00 00 00 03 00                 ............
